
testing.elf:     file format elf32-littlearm

Sections:
Idx Name          Size      VMA       LMA       File off  Algn
  0 .isr_vector   000000c0  08000000  08000000  00010000  2**0
                  CONTENTS, ALLOC, LOAD, READONLY, DATA
  1 .text         000071ec  080000c0  080000c0  000100c0  2**2
                  CONTENTS, ALLOC, LOAD, READONLY, CODE
  2 .rodata       00000120  080072ac  080072ac  000172ac  2**2
                  CONTENTS, ALLOC, LOAD, READONLY, DATA
  3 .ARM.extab    00000000  080073cc  080073cc  00020144  2**0
                  CONTENTS
  4 .ARM          00000000  080073cc  080073cc  00020144  2**0
                  CONTENTS
  5 .preinit_array 00000000  080073cc  080073cc  00020144  2**0
                  CONTENTS, ALLOC, LOAD, DATA
  6 .init_array   00000004  080073cc  080073cc  000173cc  2**2
                  CONTENTS, ALLOC, LOAD, DATA
  7 .fini_array   00000004  080073d0  080073d0  000173d0  2**2
                  CONTENTS, ALLOC, LOAD, DATA
  8 .data         00000144  20000000  080073d4  00020000  2**2
                  CONTENTS, ALLOC, LOAD, DATA
  9 .bss          000007f8  20000144  08007518  00020144  2**2
                  ALLOC
 10 ._user_heap_stack 00000804  2000093c  08007518  0002093c  2**0
                  ALLOC
 11 .ARM.attributes 00000028  00000000  00000000  00020144  2**0
                  CONTENTS, READONLY
 12 .debug_info   0000ae4a  00000000  00000000  0002016c  2**0
                  CONTENTS, READONLY, DEBUGGING, OCTETS
 13 .debug_abbrev 00002569  00000000  00000000  0002afb6  2**0
                  CONTENTS, READONLY, DEBUGGING, OCTETS
 14 .debug_aranges 00000990  00000000  00000000  0002d520  2**3
                  CONTENTS, READONLY, DEBUGGING, OCTETS
 15 .debug_ranges 00000858  00000000  00000000  0002deb0  2**3
                  CONTENTS, READONLY, DEBUGGING, OCTETS
 16 .debug_macro  0001a379  00000000  00000000  0002e708  2**0
                  CONTENTS, READONLY, DEBUGGING, OCTETS
 17 .debug_line   0000d8cc  00000000  00000000  00048a81  2**0
                  CONTENTS, READONLY, DEBUGGING, OCTETS
 18 .debug_str    00089661  00000000  00000000  0005634d  2**0
                  CONTENTS, READONLY, DEBUGGING, OCTETS
 19 .comment      00000050  00000000  00000000  000df9ae  2**0
                  CONTENTS, READONLY
 20 .debug_frame  00001fac  00000000  00000000  000dfa00  2**2
                  CONTENTS, READONLY, DEBUGGING, OCTETS

Disassembly of section .text:

080000c0 <__do_global_dtors_aux>:
 80000c0:	b510      	push	{r4, lr}
 80000c2:	4c06      	ldr	r4, [pc, #24]	; (80000dc <__do_global_dtors_aux+0x1c>)
 80000c4:	7823      	ldrb	r3, [r4, #0]
 80000c6:	2b00      	cmp	r3, #0
 80000c8:	d107      	bne.n	80000da <__do_global_dtors_aux+0x1a>
 80000ca:	4b05      	ldr	r3, [pc, #20]	; (80000e0 <__do_global_dtors_aux+0x20>)
 80000cc:	2b00      	cmp	r3, #0
 80000ce:	d002      	beq.n	80000d6 <__do_global_dtors_aux+0x16>
 80000d0:	4804      	ldr	r0, [pc, #16]	; (80000e4 <__do_global_dtors_aux+0x24>)
 80000d2:	e000      	b.n	80000d6 <__do_global_dtors_aux+0x16>
 80000d4:	bf00      	nop
 80000d6:	2301      	movs	r3, #1
 80000d8:	7023      	strb	r3, [r4, #0]
 80000da:	bd10      	pop	{r4, pc}
 80000dc:	20000144 	.word	0x20000144
 80000e0:	00000000 	.word	0x00000000
 80000e4:	08007294 	.word	0x08007294

080000e8 <frame_dummy>:
 80000e8:	4b04      	ldr	r3, [pc, #16]	; (80000fc <frame_dummy+0x14>)
 80000ea:	b510      	push	{r4, lr}
 80000ec:	2b00      	cmp	r3, #0
 80000ee:	d003      	beq.n	80000f8 <frame_dummy+0x10>
 80000f0:	4903      	ldr	r1, [pc, #12]	; (8000100 <frame_dummy+0x18>)
 80000f2:	4804      	ldr	r0, [pc, #16]	; (8000104 <frame_dummy+0x1c>)
 80000f4:	e000      	b.n	80000f8 <frame_dummy+0x10>
 80000f6:	bf00      	nop
 80000f8:	bd10      	pop	{r4, pc}
 80000fa:	46c0      	nop			; (mov r8, r8)
 80000fc:	00000000 	.word	0x00000000
 8000100:	20000148 	.word	0x20000148
 8000104:	08007294 	.word	0x08007294

08000108 <__udivsi3>:
 8000108:	2200      	movs	r2, #0
 800010a:	0843      	lsrs	r3, r0, #1
 800010c:	428b      	cmp	r3, r1
 800010e:	d374      	bcc.n	80001fa <__udivsi3+0xf2>
 8000110:	0903      	lsrs	r3, r0, #4
 8000112:	428b      	cmp	r3, r1
 8000114:	d35f      	bcc.n	80001d6 <__udivsi3+0xce>
 8000116:	0a03      	lsrs	r3, r0, #8
 8000118:	428b      	cmp	r3, r1
 800011a:	d344      	bcc.n	80001a6 <__udivsi3+0x9e>
 800011c:	0b03      	lsrs	r3, r0, #12
 800011e:	428b      	cmp	r3, r1
 8000120:	d328      	bcc.n	8000174 <__udivsi3+0x6c>
 8000122:	0c03      	lsrs	r3, r0, #16
 8000124:	428b      	cmp	r3, r1
 8000126:	d30d      	bcc.n	8000144 <__udivsi3+0x3c>
 8000128:	22ff      	movs	r2, #255	; 0xff
 800012a:	0209      	lsls	r1, r1, #8
 800012c:	ba12      	rev	r2, r2
 800012e:	0c03      	lsrs	r3, r0, #16
 8000130:	428b      	cmp	r3, r1
 8000132:	d302      	bcc.n	800013a <__udivsi3+0x32>
 8000134:	1212      	asrs	r2, r2, #8
 8000136:	0209      	lsls	r1, r1, #8
 8000138:	d065      	beq.n	8000206 <__udivsi3+0xfe>
 800013a:	0b03      	lsrs	r3, r0, #12
 800013c:	428b      	cmp	r3, r1
 800013e:	d319      	bcc.n	8000174 <__udivsi3+0x6c>
 8000140:	e000      	b.n	8000144 <__udivsi3+0x3c>
 8000142:	0a09      	lsrs	r1, r1, #8
 8000144:	0bc3      	lsrs	r3, r0, #15
 8000146:	428b      	cmp	r3, r1
 8000148:	d301      	bcc.n	800014e <__udivsi3+0x46>
 800014a:	03cb      	lsls	r3, r1, #15
 800014c:	1ac0      	subs	r0, r0, r3
 800014e:	4152      	adcs	r2, r2
 8000150:	0b83      	lsrs	r3, r0, #14
 8000152:	428b      	cmp	r3, r1
 8000154:	d301      	bcc.n	800015a <__udivsi3+0x52>
 8000156:	038b      	lsls	r3, r1, #14
 8000158:	1ac0      	subs	r0, r0, r3
 800015a:	4152      	adcs	r2, r2
 800015c:	0b43      	lsrs	r3, r0, #13
 800015e:	428b      	cmp	r3, r1
 8000160:	d301      	bcc.n	8000166 <__udivsi3+0x5e>
 8000162:	034b      	lsls	r3, r1, #13
 8000164:	1ac0      	subs	r0, r0, r3
 8000166:	4152      	adcs	r2, r2
 8000168:	0b03      	lsrs	r3, r0, #12
 800016a:	428b      	cmp	r3, r1
 800016c:	d301      	bcc.n	8000172 <__udivsi3+0x6a>
 800016e:	030b      	lsls	r3, r1, #12
 8000170:	1ac0      	subs	r0, r0, r3
 8000172:	4152      	adcs	r2, r2
 8000174:	0ac3      	lsrs	r3, r0, #11
 8000176:	428b      	cmp	r3, r1
 8000178:	d301      	bcc.n	800017e <__udivsi3+0x76>
 800017a:	02cb      	lsls	r3, r1, #11
 800017c:	1ac0      	subs	r0, r0, r3
 800017e:	4152      	adcs	r2, r2
 8000180:	0a83      	lsrs	r3, r0, #10
 8000182:	428b      	cmp	r3, r1
 8000184:	d301      	bcc.n	800018a <__udivsi3+0x82>
 8000186:	028b      	lsls	r3, r1, #10
 8000188:	1ac0      	subs	r0, r0, r3
 800018a:	4152      	adcs	r2, r2
 800018c:	0a43      	lsrs	r3, r0, #9
 800018e:	428b      	cmp	r3, r1
 8000190:	d301      	bcc.n	8000196 <__udivsi3+0x8e>
 8000192:	024b      	lsls	r3, r1, #9
 8000194:	1ac0      	subs	r0, r0, r3
 8000196:	4152      	adcs	r2, r2
 8000198:	0a03      	lsrs	r3, r0, #8
 800019a:	428b      	cmp	r3, r1
 800019c:	d301      	bcc.n	80001a2 <__udivsi3+0x9a>
 800019e:	020b      	lsls	r3, r1, #8
 80001a0:	1ac0      	subs	r0, r0, r3
 80001a2:	4152      	adcs	r2, r2
 80001a4:	d2cd      	bcs.n	8000142 <__udivsi3+0x3a>
 80001a6:	09c3      	lsrs	r3, r0, #7
 80001a8:	428b      	cmp	r3, r1
 80001aa:	d301      	bcc.n	80001b0 <__udivsi3+0xa8>
 80001ac:	01cb      	lsls	r3, r1, #7
 80001ae:	1ac0      	subs	r0, r0, r3
 80001b0:	4152      	adcs	r2, r2
 80001b2:	0983      	lsrs	r3, r0, #6
 80001b4:	428b      	cmp	r3, r1
 80001b6:	d301      	bcc.n	80001bc <__udivsi3+0xb4>
 80001b8:	018b      	lsls	r3, r1, #6
 80001ba:	1ac0      	subs	r0, r0, r3
 80001bc:	4152      	adcs	r2, r2
 80001be:	0943      	lsrs	r3, r0, #5
 80001c0:	428b      	cmp	r3, r1
 80001c2:	d301      	bcc.n	80001c8 <__udivsi3+0xc0>
 80001c4:	014b      	lsls	r3, r1, #5
 80001c6:	1ac0      	subs	r0, r0, r3
 80001c8:	4152      	adcs	r2, r2
 80001ca:	0903      	lsrs	r3, r0, #4
 80001cc:	428b      	cmp	r3, r1
 80001ce:	d301      	bcc.n	80001d4 <__udivsi3+0xcc>
 80001d0:	010b      	lsls	r3, r1, #4
 80001d2:	1ac0      	subs	r0, r0, r3
 80001d4:	4152      	adcs	r2, r2
 80001d6:	08c3      	lsrs	r3, r0, #3
 80001d8:	428b      	cmp	r3, r1
 80001da:	d301      	bcc.n	80001e0 <__udivsi3+0xd8>
 80001dc:	00cb      	lsls	r3, r1, #3
 80001de:	1ac0      	subs	r0, r0, r3
 80001e0:	4152      	adcs	r2, r2
 80001e2:	0883      	lsrs	r3, r0, #2
 80001e4:	428b      	cmp	r3, r1
 80001e6:	d301      	bcc.n	80001ec <__udivsi3+0xe4>
 80001e8:	008b      	lsls	r3, r1, #2
 80001ea:	1ac0      	subs	r0, r0, r3
 80001ec:	4152      	adcs	r2, r2
 80001ee:	0843      	lsrs	r3, r0, #1
 80001f0:	428b      	cmp	r3, r1
 80001f2:	d301      	bcc.n	80001f8 <__udivsi3+0xf0>
 80001f4:	004b      	lsls	r3, r1, #1
 80001f6:	1ac0      	subs	r0, r0, r3
 80001f8:	4152      	adcs	r2, r2
 80001fa:	1a41      	subs	r1, r0, r1
 80001fc:	d200      	bcs.n	8000200 <__udivsi3+0xf8>
 80001fe:	4601      	mov	r1, r0
 8000200:	4152      	adcs	r2, r2
 8000202:	4610      	mov	r0, r2
 8000204:	4770      	bx	lr
 8000206:	e7ff      	b.n	8000208 <__udivsi3+0x100>
 8000208:	b501      	push	{r0, lr}
 800020a:	2000      	movs	r0, #0
 800020c:	f000 f806 	bl	800021c <__aeabi_idiv0>
 8000210:	bd02      	pop	{r1, pc}
 8000212:	46c0      	nop			; (mov r8, r8)

08000214 <__aeabi_uidivmod>:
 8000214:	2900      	cmp	r1, #0
 8000216:	d0f7      	beq.n	8000208 <__udivsi3+0x100>
 8000218:	e776      	b.n	8000108 <__udivsi3>
 800021a:	4770      	bx	lr

0800021c <__aeabi_idiv0>:
 800021c:	4770      	bx	lr
 800021e:	46c0      	nop			; (mov r8, r8)

08000220 <main>:
/**
  * @brief  The application entry point.
  * @retval int
  */
int main(void)
{
 8000220:	b580      	push	{r7, lr}
 8000222:	af00      	add	r7, sp, #0
  /* USER CODE END 1 */

  /* MCU Configuration--------------------------------------------------------*/

  /* Reset of all peripherals, Initializes the Flash interface and the Systick. */
  HAL_Init();
 8000224:	f000 f90c 	bl	8000440 <HAL_Init>

  /* USER CODE BEGIN Init */
  /* USER CODE END Init */

  /* Configure the system clock */
  SystemClock_Config();
 8000228:	f000 f808 	bl	800023c <SystemClock_Config>

  /* USER CODE BEGIN SysInit */
  /* USER CODE END SysInit */

  /* Initialize all configured peripherals */
  MX_GPIO_Init();
 800022c:	f000 f85a 	bl	80002e4 <MX_GPIO_Init>
  MX_USB_DEVICE_Init();
 8000230:	f006 fb4c 	bl	80068cc <MX_USB_DEVICE_Init>
 8000234:	2300      	movs	r3, #0
  /* USER CODE BEGIN WHILE */
    /* USER CODE END WHILE */

    /* USER CODE BEGIN 3 */
  /* USER CODE END 3 */
}
 8000236:	0018      	movs	r0, r3
 8000238:	46bd      	mov	sp, r7
 800023a:	bd80      	pop	{r7, pc}

0800023c <SystemClock_Config>:
/**
  * @brief System Clock Configuration
  * @retval None
  */
void SystemClock_Config(void)
{
 800023c:	b590      	push	{r4, r7, lr}
 800023e:	b099      	sub	sp, #100	; 0x64
 8000240:	af00      	add	r7, sp, #0
  RCC_OscInitTypeDef RCC_OscInitStruct = {0};
 8000242:	242c      	movs	r4, #44	; 0x2c
 8000244:	193b      	adds	r3, r7, r4
 8000246:	0018      	movs	r0, r3
 8000248:	2334      	movs	r3, #52	; 0x34
 800024a:	001a      	movs	r2, r3
 800024c:	2100      	movs	r1, #0
 800024e:	f007 f819 	bl	8007284 <memset>
  RCC_ClkInitTypeDef RCC_ClkInitStruct = {0};
 8000252:	231c      	movs	r3, #28
 8000254:	18fb      	adds	r3, r7, r3
 8000256:	0018      	movs	r0, r3
 8000258:	2310      	movs	r3, #16
 800025a:	001a      	movs	r2, r3
 800025c:	2100      	movs	r1, #0
 800025e:	f007 f811 	bl	8007284 <memset>
  RCC_PeriphCLKInitTypeDef PeriphClkInit = {0};
 8000262:	1d3b      	adds	r3, r7, #4
 8000264:	0018      	movs	r0, r3
 8000266:	2318      	movs	r3, #24
 8000268:	001a      	movs	r2, r3
 800026a:	2100      	movs	r1, #0
 800026c:	f007 f80a 	bl	8007284 <memset>

  /** Initializes the RCC Oscillators according to the specified parameters
  * in the RCC_OscInitTypeDef structure.
  */
  RCC_OscInitStruct.OscillatorType = RCC_OSCILLATORTYPE_HSI48;
 8000270:	193b      	adds	r3, r7, r4
 8000272:	2220      	movs	r2, #32
 8000274:	601a      	str	r2, [r3, #0]
  RCC_OscInitStruct.HSI48State = RCC_HSI48_ON;
 8000276:	193b      	adds	r3, r7, r4
 8000278:	2201      	movs	r2, #1
 800027a:	621a      	str	r2, [r3, #32]
  RCC_OscInitStruct.PLL.PLLState = RCC_PLL_NONE;
 800027c:	193b      	adds	r3, r7, r4
 800027e:	2200      	movs	r2, #0
 8000280:	625a      	str	r2, [r3, #36]	; 0x24
  if (HAL_RCC_OscConfig(&RCC_OscInitStruct) != HAL_OK)
 8000282:	193b      	adds	r3, r7, r4
 8000284:	0018      	movs	r0, r3
 8000286:	f002 f855 	bl	8002334 <HAL_RCC_OscConfig>
 800028a:	1e03      	subs	r3, r0, #0
 800028c:	d001      	beq.n	8000292 <SystemClock_Config+0x56>
  {
    Error_Handler();
 800028e:	f000 f841 	bl	8000314 <Error_Handler>
  }

  /** Initializes the CPU, AHB and APB buses clocks
  */
  RCC_ClkInitStruct.ClockType = RCC_CLOCKTYPE_HCLK|RCC_CLOCKTYPE_SYSCLK
 8000292:	211c      	movs	r1, #28
 8000294:	187b      	adds	r3, r7, r1
 8000296:	2207      	movs	r2, #7
 8000298:	601a      	str	r2, [r3, #0]
                              |RCC_CLOCKTYPE_PCLK1;
  RCC_ClkInitStruct.SYSCLKSource = RCC_SYSCLKSOURCE_HSI48;
 800029a:	187b      	adds	r3, r7, r1
 800029c:	2203      	movs	r2, #3
 800029e:	605a      	str	r2, [r3, #4]
  RCC_ClkInitStruct.AHBCLKDivider = RCC_SYSCLK_DIV1;
 80002a0:	187b      	adds	r3, r7, r1
 80002a2:	2200      	movs	r2, #0
 80002a4:	609a      	str	r2, [r3, #8]
  RCC_ClkInitStruct.APB1CLKDivider = RCC_HCLK_DIV1;
 80002a6:	187b      	adds	r3, r7, r1
 80002a8:	2200      	movs	r2, #0
 80002aa:	60da      	str	r2, [r3, #12]

  if (HAL_RCC_ClockConfig(&RCC_ClkInitStruct, FLASH_LATENCY_1) != HAL_OK)
 80002ac:	187b      	adds	r3, r7, r1
 80002ae:	2101      	movs	r1, #1
 80002b0:	0018      	movs	r0, r3
 80002b2:	f002 fbc5 	bl	8002a40 <HAL_RCC_ClockConfig>
 80002b6:	1e03      	subs	r3, r0, #0
 80002b8:	d001      	beq.n	80002be <SystemClock_Config+0x82>
  {
    Error_Handler();
 80002ba:	f000 f82b 	bl	8000314 <Error_Handler>
  }
  PeriphClkInit.PeriphClockSelection = RCC_PERIPHCLK_USB;
 80002be:	1d3b      	adds	r3, r7, #4
 80002c0:	2280      	movs	r2, #128	; 0x80
 80002c2:	0292      	lsls	r2, r2, #10
 80002c4:	601a      	str	r2, [r3, #0]
  PeriphClkInit.UsbClockSelection = RCC_USBCLKSOURCE_HSI48;
 80002c6:	1d3b      	adds	r3, r7, #4
 80002c8:	2200      	movs	r2, #0
 80002ca:	615a      	str	r2, [r3, #20]

  if (HAL_RCCEx_PeriphCLKConfig(&PeriphClkInit) != HAL_OK)
 80002cc:	1d3b      	adds	r3, r7, #4
 80002ce:	0018      	movs	r0, r3
 80002d0:	f002 fd02 	bl	8002cd8 <HAL_RCCEx_PeriphCLKConfig>
 80002d4:	1e03      	subs	r3, r0, #0
 80002d6:	d001      	beq.n	80002dc <SystemClock_Config+0xa0>
  {
    Error_Handler();
 80002d8:	f000 f81c 	bl	8000314 <Error_Handler>
  }
}
 80002dc:	46c0      	nop			; (mov r8, r8)
 80002de:	46bd      	mov	sp, r7
 80002e0:	b019      	add	sp, #100	; 0x64
 80002e2:	bd90      	pop	{r4, r7, pc}

080002e4 <MX_GPIO_Init>:
  * @brief GPIO Initialization Function
  * @param None
  * @retval None
  */
static void MX_GPIO_Init(void)
{
 80002e4:	b580      	push	{r7, lr}
 80002e6:	b082      	sub	sp, #8
 80002e8:	af00      	add	r7, sp, #0

  /* GPIO Ports Clock Enable */
  __HAL_RCC_GPIOA_CLK_ENABLE();
 80002ea:	4b09      	ldr	r3, [pc, #36]	; (8000310 <MX_GPIO_Init+0x2c>)
 80002ec:	695a      	ldr	r2, [r3, #20]
 80002ee:	4b08      	ldr	r3, [pc, #32]	; (8000310 <MX_GPIO_Init+0x2c>)
 80002f0:	2180      	movs	r1, #128	; 0x80
 80002f2:	0289      	lsls	r1, r1, #10
 80002f4:	430a      	orrs	r2, r1
 80002f6:	615a      	str	r2, [r3, #20]
 80002f8:	4b05      	ldr	r3, [pc, #20]	; (8000310 <MX_GPIO_Init+0x2c>)
 80002fa:	695a      	ldr	r2, [r3, #20]
 80002fc:	2380      	movs	r3, #128	; 0x80
 80002fe:	029b      	lsls	r3, r3, #10
 8000300:	4013      	ands	r3, r2
 8000302:	607b      	str	r3, [r7, #4]
 8000304:	687b      	ldr	r3, [r7, #4]

}
 8000306:	46c0      	nop			; (mov r8, r8)
 8000308:	46bd      	mov	sp, r7
 800030a:	b002      	add	sp, #8
 800030c:	bd80      	pop	{r7, pc}
 800030e:	46c0      	nop			; (mov r8, r8)
 8000310:	40021000 	.word	0x40021000

08000314 <Error_Handler>:
/**
  * @brief  This function is executed in case of error occurrence.
  * @retval None
  */
void Error_Handler(void)
{
 8000314:	b580      	push	{r7, lr}
 8000316:	af00      	add	r7, sp, #0
  /* USER CODE BEGIN Error_Handler_Debug */
  /* USER CODE END Error_Handler_Debug */
}
 8000318:	46c0      	nop			; (mov r8, r8)
 800031a:	46bd      	mov	sp, r7
 800031c:	bd80      	pop	{r7, pc}
	...

08000320 <HAL_MspInit>:
/* USER CODE END 0 */
/**
  * Initializes the Global MSP.
  */
void HAL_MspInit(void)
{
 8000320:	b580      	push	{r7, lr}
 8000322:	b082      	sub	sp, #8
 8000324:	af00      	add	r7, sp, #0
  /* USER CODE BEGIN MspInit 0 */

  /* USER CODE END MspInit 0 */

  __HAL_RCC_SYSCFG_CLK_ENABLE();
 8000326:	4b0f      	ldr	r3, [pc, #60]	; (8000364 <HAL_MspInit+0x44>)
 8000328:	699a      	ldr	r2, [r3, #24]
 800032a:	4b0e      	ldr	r3, [pc, #56]	; (8000364 <HAL_MspInit+0x44>)
 800032c:	2101      	movs	r1, #1
 800032e:	430a      	orrs	r2, r1
 8000330:	619a      	str	r2, [r3, #24]
 8000332:	4b0c      	ldr	r3, [pc, #48]	; (8000364 <HAL_MspInit+0x44>)
 8000334:	699b      	ldr	r3, [r3, #24]
 8000336:	2201      	movs	r2, #1
 8000338:	4013      	ands	r3, r2
 800033a:	607b      	str	r3, [r7, #4]
 800033c:	687b      	ldr	r3, [r7, #4]
  __HAL_RCC_PWR_CLK_ENABLE();
 800033e:	4b09      	ldr	r3, [pc, #36]	; (8000364 <HAL_MspInit+0x44>)
 8000340:	69da      	ldr	r2, [r3, #28]
 8000342:	4b08      	ldr	r3, [pc, #32]	; (8000364 <HAL_MspInit+0x44>)
 8000344:	2180      	movs	r1, #128	; 0x80
 8000346:	0549      	lsls	r1, r1, #21
 8000348:	430a      	orrs	r2, r1
 800034a:	61da      	str	r2, [r3, #28]
 800034c:	4b05      	ldr	r3, [pc, #20]	; (8000364 <HAL_MspInit+0x44>)
 800034e:	69da      	ldr	r2, [r3, #28]
 8000350:	2380      	movs	r3, #128	; 0x80
 8000352:	055b      	lsls	r3, r3, #21
 8000354:	4013      	ands	r3, r2
 8000356:	603b      	str	r3, [r7, #0]
 8000358:	683b      	ldr	r3, [r7, #0]
  /* System interrupt init*/

  /* USER CODE BEGIN MspInit 1 */

  /* USER CODE END MspInit 1 */
}
 800035a:	46c0      	nop			; (mov r8, r8)
 800035c:	46bd      	mov	sp, r7
 800035e:	b002      	add	sp, #8
 8000360:	bd80      	pop	{r7, pc}
 8000362:	46c0      	nop			; (mov r8, r8)
 8000364:	40021000 	.word	0x40021000

08000368 <NMI_Handler>:
/******************************************************************************/
/**
  * @brief This function handles Non maskable interrupt.
  */
void NMI_Handler(void)
{
 8000368:	b580      	push	{r7, lr}
 800036a:	af00      	add	r7, sp, #0
  /* USER CODE BEGIN NonMaskableInt_IRQn 0 */

  /* USER CODE END NonMaskableInt_IRQn 0 */
  /* USER CODE BEGIN NonMaskableInt_IRQn 1 */
  while (1)
 800036c:	e7fe      	b.n	800036c <NMI_Handler+0x4>

0800036e <HardFault_Handler>:

/**
  * @brief This function handles Hard fault interrupt.
  */
void HardFault_Handler(void)
{
 800036e:	b580      	push	{r7, lr}
 8000370:	af00      	add	r7, sp, #0
  /* USER CODE BEGIN HardFault_IRQn 0 */

  /* USER CODE END HardFault_IRQn 0 */
  while (1)
 8000372:	e7fe      	b.n	8000372 <HardFault_Handler+0x4>

08000374 <SVC_Handler>:

/**
  * @brief This function handles System service call via SWI instruction.
  */
void SVC_Handler(void)
{
 8000374:	b580      	push	{r7, lr}
 8000376:	af00      	add	r7, sp, #0

  /* USER CODE END SVC_IRQn 0 */
  /* USER CODE BEGIN SVC_IRQn 1 */

  /* USER CODE END SVC_IRQn 1 */
}
 8000378:	46c0      	nop			; (mov r8, r8)
 800037a:	46bd      	mov	sp, r7
 800037c:	bd80      	pop	{r7, pc}

0800037e <PendSV_Handler>:

/**
  * @brief This function handles Pendable request for system service.
  */
void PendSV_Handler(void)
{
 800037e:	b580      	push	{r7, lr}
 8000380:	af00      	add	r7, sp, #0

  /* USER CODE END PendSV_IRQn 0 */
  /* USER CODE BEGIN PendSV_IRQn 1 */

  /* USER CODE END PendSV_IRQn 1 */
}
 8000382:	46c0      	nop			; (mov r8, r8)
 8000384:	46bd      	mov	sp, r7
 8000386:	bd80      	pop	{r7, pc}

08000388 <SysTick_Handler>:

/**
  * @brief This function handles System tick timer.
  */
void SysTick_Handler(void)
{
 8000388:	b580      	push	{r7, lr}
 800038a:	af00      	add	r7, sp, #0
  /* USER CODE BEGIN SysTick_IRQn 0 */

  /* USER CODE END SysTick_IRQn 0 */
  HAL_IncTick();
 800038c:	f000 f8a0 	bl	80004d0 <HAL_IncTick>
  /* USER CODE BEGIN SysTick_IRQn 1 */

  /* USER CODE END SysTick_IRQn 1 */
}
 8000390:	46c0      	nop			; (mov r8, r8)
 8000392:	46bd      	mov	sp, r7
 8000394:	bd80      	pop	{r7, pc}
	...

08000398 <USB_IRQHandler>:

/**
  * @brief This function handles USB global Interrupt / USB wake-up interrupt through EXTI line 18.
  */
void USB_IRQHandler(void)
{
 8000398:	b580      	push	{r7, lr}
 800039a:	af00      	add	r7, sp, #0
  /* USER CODE BEGIN USB_IRQn 0 */

  /* USER CODE END USB_IRQn 0 */
  HAL_PCD_IRQHandler(&hpcd_USB_FS);
 800039c:	4b03      	ldr	r3, [pc, #12]	; (80003ac <USB_IRQHandler+0x14>)
 800039e:	0018      	movs	r0, r3
 80003a0:	f000 fab6 	bl	8000910 <HAL_PCD_IRQHandler>
  /* USER CODE BEGIN USB_IRQn 1 */

  /* USER CODE END USB_IRQn 1 */
}
 80003a4:	46c0      	nop			; (mov r8, r8)
 80003a6:	46bd      	mov	sp, r7
 80003a8:	bd80      	pop	{r7, pc}
 80003aa:	46c0      	nop			; (mov r8, r8)
 80003ac:	2000062c 	.word	0x2000062c

080003b0 <SystemInit>:
  * @brief  Setup the microcontroller system
  * @param  None
  * @retval None
  */
void SystemInit(void)
{
 80003b0:	b580      	push	{r7, lr}
 80003b2:	af00      	add	r7, sp, #0
                         before branch to main program. This call is made inside
                         the "startup_stm32f0xx.s" file.
                         User can setups the default system clock (System clock source, PLL Multiplier
                         and Divider factors, AHB/APBx prescalers and Flash settings).
   */
}
 80003b4:	46c0      	nop			; (mov r8, r8)
 80003b6:	46bd      	mov	sp, r7
 80003b8:	bd80      	pop	{r7, pc}
	...

080003bc <Reset_Handler>:

  .section .text.Reset_Handler
  .weak Reset_Handler
  .type Reset_Handler, %function
Reset_Handler:
  ldr   r0, =_estack
 80003bc:	4813      	ldr	r0, [pc, #76]	; (800040c <LoopForever+0x2>)
  mov   sp, r0          /* set stack pointer */
 80003be:	4685      	mov	sp, r0
  
/* Call the clock system initialization function.*/
  bl  SystemInit
 80003c0:	f7ff fff6 	bl	80003b0 <SystemInit>

/*Check if boot space corresponds to test memory*/
 
    LDR R0,=0x00000004
 80003c4:	4812      	ldr	r0, [pc, #72]	; (8000410 <LoopForever+0x6>)
    LDR R1, [R0]
 80003c6:	6801      	ldr	r1, [r0, #0]
    LSRS R1, R1, #24
 80003c8:	0e09      	lsrs	r1, r1, #24
    LDR R2,=0x1F
 80003ca:	4a12      	ldr	r2, [pc, #72]	; (8000414 <LoopForever+0xa>)
    CMP R1, R2
 80003cc:	4291      	cmp	r1, r2
    BNE ApplicationStart
 80003ce:	d105      	bne.n	80003dc <ApplicationStart>

 /*SYSCFG clock enable*/

    LDR R0,=0x40021018
 80003d0:	4811      	ldr	r0, [pc, #68]	; (8000418 <LoopForever+0xe>)
    LDR R1,=0x00000001
 80003d2:	4912      	ldr	r1, [pc, #72]	; (800041c <LoopForever+0x12>)
    STR R1, [R0]
 80003d4:	6001      	str	r1, [r0, #0]

/*Set CFGR1 register with flash memory remap at address 0*/
    LDR R0,=0x40010000
 80003d6:	4812      	ldr	r0, [pc, #72]	; (8000420 <LoopForever+0x16>)
    LDR R1,=0x00000000
 80003d8:	4912      	ldr	r1, [pc, #72]	; (8000424 <LoopForever+0x1a>)
    STR R1, [R0]
 80003da:	6001      	str	r1, [r0, #0]

080003dc <ApplicationStart>:

ApplicationStart:
/* Copy the data segment initializers from flash to SRAM */
  ldr r0, =_sdata
 80003dc:	4812      	ldr	r0, [pc, #72]	; (8000428 <LoopForever+0x1e>)
  ldr r1, =_edata
 80003de:	4913      	ldr	r1, [pc, #76]	; (800042c <LoopForever+0x22>)
  ldr r2, =_sidata
 80003e0:	4a13      	ldr	r2, [pc, #76]	; (8000430 <LoopForever+0x26>)
  movs r3, #0
 80003e2:	2300      	movs	r3, #0
  b LoopCopyDataInit
 80003e4:	e002      	b.n	80003ec <LoopCopyDataInit>

080003e6 <CopyDataInit>:

CopyDataInit:
  ldr r4, [r2, r3]
 80003e6:	58d4      	ldr	r4, [r2, r3]
  str r4, [r0, r3]
 80003e8:	50c4      	str	r4, [r0, r3]
  adds r3, r3, #4
 80003ea:	3304      	adds	r3, #4

080003ec <LoopCopyDataInit>:

LoopCopyDataInit:
  adds r4, r0, r3
 80003ec:	18c4      	adds	r4, r0, r3
  cmp r4, r1
 80003ee:	428c      	cmp	r4, r1
  bcc CopyDataInit
 80003f0:	d3f9      	bcc.n	80003e6 <CopyDataInit>
  
/* Zero fill the bss segment. */
  ldr r2, =_sbss
 80003f2:	4a10      	ldr	r2, [pc, #64]	; (8000434 <LoopForever+0x2a>)
  ldr r4, =_ebss
 80003f4:	4c10      	ldr	r4, [pc, #64]	; (8000438 <LoopForever+0x2e>)
  movs r3, #0
 80003f6:	2300      	movs	r3, #0
  b LoopFillZerobss
 80003f8:	e001      	b.n	80003fe <LoopFillZerobss>

080003fa <FillZerobss>:

FillZerobss:
  str  r3, [r2]
 80003fa:	6013      	str	r3, [r2, #0]
  adds r2, r2, #4
 80003fc:	3204      	adds	r2, #4

080003fe <LoopFillZerobss>:

LoopFillZerobss:
  cmp r2, r4
 80003fe:	42a2      	cmp	r2, r4
  bcc FillZerobss
 8000400:	d3fb      	bcc.n	80003fa <FillZerobss>

/* Call static constructors */
  bl __libc_init_array
 8000402:	f006 ff1b 	bl	800723c <__libc_init_array>
/* Call the application's entry point.*/
  bl main
 8000406:	f7ff ff0b 	bl	8000220 <main>

0800040a <LoopForever>:

LoopForever:
    b LoopForever
 800040a:	e7fe      	b.n	800040a <LoopForever>
  ldr   r0, =_estack
 800040c:	20001800 	.word	0x20001800
    LDR R0,=0x00000004
 8000410:	00000004 	.word	0x00000004
    LDR R2,=0x1F
 8000414:	0000001f 	.word	0x0000001f
    LDR R0,=0x40021018
 8000418:	40021018 	.word	0x40021018
    LDR R1,=0x00000001
 800041c:	00000001 	.word	0x00000001
    LDR R0,=0x40010000
 8000420:	40010000 	.word	0x40010000
    LDR R1,=0x00000000
 8000424:	00000000 	.word	0x00000000
  ldr r0, =_sdata
 8000428:	20000000 	.word	0x20000000
  ldr r1, =_edata
 800042c:	20000144 	.word	0x20000144
  ldr r2, =_sidata
 8000430:	080073d4 	.word	0x080073d4
  ldr r2, =_sbss
 8000434:	20000144 	.word	0x20000144
  ldr r4, =_ebss
 8000438:	2000093c 	.word	0x2000093c

0800043c <ADC1_IRQHandler>:
 * @retval : None
*/
    .section .text.Default_Handler,"ax",%progbits
Default_Handler:
Infinite_Loop:
  b Infinite_Loop
 800043c:	e7fe      	b.n	800043c <ADC1_IRQHandler>
	...

08000440 <HAL_Init>:
  *       In the default implementation,Systick is used as source of time base.
  *       The tick variable is incremented each 1ms in its ISR.
  * @retval HAL status
  */
HAL_StatusTypeDef HAL_Init(void)
{
 8000440:	b580      	push	{r7, lr}
 8000442:	af00      	add	r7, sp, #0
  /* Configure Flash prefetch */ 
#if (PREFETCH_ENABLE != 0)
  __HAL_FLASH_PREFETCH_BUFFER_ENABLE();
 8000444:	4b07      	ldr	r3, [pc, #28]	; (8000464 <HAL_Init+0x24>)
 8000446:	681a      	ldr	r2, [r3, #0]
 8000448:	4b06      	ldr	r3, [pc, #24]	; (8000464 <HAL_Init+0x24>)
 800044a:	2110      	movs	r1, #16
 800044c:	430a      	orrs	r2, r1
 800044e:	601a      	str	r2, [r3, #0]
#endif /* PREFETCH_ENABLE */

  /* Use systick as time base source and configure 1ms tick (default clock after Reset is HSI) */

  HAL_InitTick(TICK_INT_PRIORITY);
 8000450:	2003      	movs	r0, #3
 8000452:	f000 f809 	bl	8000468 <HAL_InitTick>

  /* Init the low level hardware */
  HAL_MspInit();
 8000456:	f7ff ff63 	bl	8000320 <HAL_MspInit>

  /* Return function status */
  return HAL_OK;
 800045a:	2300      	movs	r3, #0
}
 800045c:	0018      	movs	r0, r3
 800045e:	46bd      	mov	sp, r7
 8000460:	bd80      	pop	{r7, pc}
 8000462:	46c0      	nop			; (mov r8, r8)
 8000464:	40022000 	.word	0x40022000

08000468 <HAL_InitTick>:
  *       implementation  in user file.
  * @param TickPriority Tick interrupt priority.
  * @retval HAL status
  */
__weak HAL_StatusTypeDef HAL_InitTick(uint32_t TickPriority)
{
 8000468:	b590      	push	{r4, r7, lr}
 800046a:	b083      	sub	sp, #12
 800046c:	af00      	add	r7, sp, #0
 800046e:	6078      	str	r0, [r7, #4]
  /*Configure the SysTick to have interrupt in 1ms time basis*/
  if (HAL_SYSTICK_Config(SystemCoreClock / (1000U / uwTickFreq)) > 0U)
 8000470:	4b14      	ldr	r3, [pc, #80]	; (80004c4 <HAL_InitTick+0x5c>)
 8000472:	681c      	ldr	r4, [r3, #0]
 8000474:	4b14      	ldr	r3, [pc, #80]	; (80004c8 <HAL_InitTick+0x60>)
 8000476:	781b      	ldrb	r3, [r3, #0]
 8000478:	0019      	movs	r1, r3
 800047a:	23fa      	movs	r3, #250	; 0xfa
 800047c:	0098      	lsls	r0, r3, #2
 800047e:	f7ff fe43 	bl	8000108 <__udivsi3>
 8000482:	0003      	movs	r3, r0
 8000484:	0019      	movs	r1, r3
 8000486:	0020      	movs	r0, r4
 8000488:	f7ff fe3e 	bl	8000108 <__udivsi3>
 800048c:	0003      	movs	r3, r0
 800048e:	0018      	movs	r0, r3
 8000490:	f000 f90b 	bl	80006aa <HAL_SYSTICK_Config>
 8000494:	1e03      	subs	r3, r0, #0
 8000496:	d001      	beq.n	800049c <HAL_InitTick+0x34>
  {
    return HAL_ERROR;
 8000498:	2301      	movs	r3, #1
 800049a:	e00f      	b.n	80004bc <HAL_InitTick+0x54>
  }

  /* Configure the SysTick IRQ priority */
  if (TickPriority < (1UL << __NVIC_PRIO_BITS))
 800049c:	687b      	ldr	r3, [r7, #4]
 800049e:	2b03      	cmp	r3, #3
 80004a0:	d80b      	bhi.n	80004ba <HAL_InitTick+0x52>
  {
    HAL_NVIC_SetPriority(SysTick_IRQn, TickPriority, 0U);
 80004a2:	6879      	ldr	r1, [r7, #4]
 80004a4:	2301      	movs	r3, #1
 80004a6:	425b      	negs	r3, r3
 80004a8:	2200      	movs	r2, #0
 80004aa:	0018      	movs	r0, r3
 80004ac:	f000 f8d8 	bl	8000660 <HAL_NVIC_SetPriority>
    uwTickPrio = TickPriority;
 80004b0:	4b06      	ldr	r3, [pc, #24]	; (80004cc <HAL_InitTick+0x64>)
 80004b2:	687a      	ldr	r2, [r7, #4]
 80004b4:	601a      	str	r2, [r3, #0]
  {
    return HAL_ERROR;
  }

   /* Return function status */
  return HAL_OK;
 80004b6:	2300      	movs	r3, #0
 80004b8:	e000      	b.n	80004bc <HAL_InitTick+0x54>
    return HAL_ERROR;
 80004ba:	2301      	movs	r3, #1
}
 80004bc:	0018      	movs	r0, r3
 80004be:	46bd      	mov	sp, r7
 80004c0:	b003      	add	sp, #12
 80004c2:	bd90      	pop	{r4, r7, pc}
 80004c4:	20000000 	.word	0x20000000
 80004c8:	20000008 	.word	0x20000008
 80004cc:	20000004 	.word	0x20000004

080004d0 <HAL_IncTick>:
  * @note This function is declared as __weak to be overwritten in case of other 
  *       implementations in user file.
  * @retval None
  */
__weak void HAL_IncTick(void)
{
 80004d0:	b580      	push	{r7, lr}
 80004d2:	af00      	add	r7, sp, #0
  uwTick += uwTickFreq;
 80004d4:	4b05      	ldr	r3, [pc, #20]	; (80004ec <HAL_IncTick+0x1c>)
 80004d6:	781b      	ldrb	r3, [r3, #0]
 80004d8:	001a      	movs	r2, r3
 80004da:	4b05      	ldr	r3, [pc, #20]	; (80004f0 <HAL_IncTick+0x20>)
 80004dc:	681b      	ldr	r3, [r3, #0]
 80004de:	18d2      	adds	r2, r2, r3
 80004e0:	4b03      	ldr	r3, [pc, #12]	; (80004f0 <HAL_IncTick+0x20>)
 80004e2:	601a      	str	r2, [r3, #0]
}
 80004e4:	46c0      	nop			; (mov r8, r8)
 80004e6:	46bd      	mov	sp, r7
 80004e8:	bd80      	pop	{r7, pc}
 80004ea:	46c0      	nop			; (mov r8, r8)
 80004ec:	20000008 	.word	0x20000008
 80004f0:	20000160 	.word	0x20000160

080004f4 <HAL_GetTick>:
  * @note   This function is declared as __weak  to be overwritten  in case of other 
  *       implementations in user file.
  * @retval tick value
  */
__weak uint32_t HAL_GetTick(void)
{
 80004f4:	b580      	push	{r7, lr}
 80004f6:	af00      	add	r7, sp, #0
  return uwTick;
 80004f8:	4b02      	ldr	r3, [pc, #8]	; (8000504 <HAL_GetTick+0x10>)
 80004fa:	681b      	ldr	r3, [r3, #0]
}
 80004fc:	0018      	movs	r0, r3
 80004fe:	46bd      	mov	sp, r7
 8000500:	bd80      	pop	{r7, pc}
 8000502:	46c0      	nop			; (mov r8, r8)
 8000504:	20000160 	.word	0x20000160

08000508 <__NVIC_EnableIRQ>:
  \details Enables a device specific interrupt in the NVIC interrupt controller.
  \param [in]      IRQn  Device specific interrupt number.
  \note    IRQn must not be negative.
 */
__STATIC_INLINE void __NVIC_EnableIRQ(IRQn_Type IRQn)
{
 8000508:	b580      	push	{r7, lr}
 800050a:	b082      	sub	sp, #8
 800050c:	af00      	add	r7, sp, #0
 800050e:	0002      	movs	r2, r0
 8000510:	1dfb      	adds	r3, r7, #7
 8000512:	701a      	strb	r2, [r3, #0]
  if ((int32_t)(IRQn) >= 0)
 8000514:	1dfb      	adds	r3, r7, #7
 8000516:	781b      	ldrb	r3, [r3, #0]
 8000518:	2b7f      	cmp	r3, #127	; 0x7f
 800051a:	d809      	bhi.n	8000530 <__NVIC_EnableIRQ+0x28>
  {
    NVIC->ISER[0U] = (uint32_t)(1UL << (((uint32_t)IRQn) & 0x1FUL));
 800051c:	1dfb      	adds	r3, r7, #7
 800051e:	781b      	ldrb	r3, [r3, #0]
 8000520:	001a      	movs	r2, r3
 8000522:	231f      	movs	r3, #31
 8000524:	401a      	ands	r2, r3
 8000526:	4b04      	ldr	r3, [pc, #16]	; (8000538 <__NVIC_EnableIRQ+0x30>)
 8000528:	2101      	movs	r1, #1
 800052a:	4091      	lsls	r1, r2
 800052c:	000a      	movs	r2, r1
 800052e:	601a      	str	r2, [r3, #0]
  }
}
 8000530:	46c0      	nop			; (mov r8, r8)
 8000532:	46bd      	mov	sp, r7
 8000534:	b002      	add	sp, #8
 8000536:	bd80      	pop	{r7, pc}
 8000538:	e000e100 	.word	0xe000e100

0800053c <__NVIC_SetPriority>:
  \param [in]      IRQn  Interrupt number.
  \param [in]  priority  Priority to set.
  \note    The priority cannot be set for every processor exception.
 */
__STATIC_INLINE void __NVIC_SetPriority(IRQn_Type IRQn, uint32_t priority)
{
 800053c:	b590      	push	{r4, r7, lr}
 800053e:	b083      	sub	sp, #12
 8000540:	af00      	add	r7, sp, #0
 8000542:	0002      	movs	r2, r0
 8000544:	6039      	str	r1, [r7, #0]
 8000546:	1dfb      	adds	r3, r7, #7
 8000548:	701a      	strb	r2, [r3, #0]
  if ((int32_t)(IRQn) >= 0)
 800054a:	1dfb      	adds	r3, r7, #7
 800054c:	781b      	ldrb	r3, [r3, #0]
 800054e:	2b7f      	cmp	r3, #127	; 0x7f
 8000550:	d828      	bhi.n	80005a4 <__NVIC_SetPriority+0x68>
  {
    NVIC->IP[_IP_IDX(IRQn)]  = ((uint32_t)(NVIC->IP[_IP_IDX(IRQn)]  & ~(0xFFUL << _BIT_SHIFT(IRQn))) |
 8000552:	4a2f      	ldr	r2, [pc, #188]	; (8000610 <__NVIC_SetPriority+0xd4>)
 8000554:	1dfb      	adds	r3, r7, #7
 8000556:	781b      	ldrb	r3, [r3, #0]
 8000558:	b25b      	sxtb	r3, r3
 800055a:	089b      	lsrs	r3, r3, #2
 800055c:	33c0      	adds	r3, #192	; 0xc0
 800055e:	009b      	lsls	r3, r3, #2
 8000560:	589b      	ldr	r3, [r3, r2]
 8000562:	1dfa      	adds	r2, r7, #7
 8000564:	7812      	ldrb	r2, [r2, #0]
 8000566:	0011      	movs	r1, r2
 8000568:	2203      	movs	r2, #3
 800056a:	400a      	ands	r2, r1
 800056c:	00d2      	lsls	r2, r2, #3
 800056e:	21ff      	movs	r1, #255	; 0xff
 8000570:	4091      	lsls	r1, r2
 8000572:	000a      	movs	r2, r1
 8000574:	43d2      	mvns	r2, r2
 8000576:	401a      	ands	r2, r3
 8000578:	0011      	movs	r1, r2
       (((priority << (8U - __NVIC_PRIO_BITS)) & (uint32_t)0xFFUL) << _BIT_SHIFT(IRQn)));
 800057a:	683b      	ldr	r3, [r7, #0]
 800057c:	019b      	lsls	r3, r3, #6
 800057e:	22ff      	movs	r2, #255	; 0xff
 8000580:	401a      	ands	r2, r3
 8000582:	1dfb      	adds	r3, r7, #7
 8000584:	781b      	ldrb	r3, [r3, #0]
 8000586:	0018      	movs	r0, r3
 8000588:	2303      	movs	r3, #3
 800058a:	4003      	ands	r3, r0
 800058c:	00db      	lsls	r3, r3, #3
 800058e:	409a      	lsls	r2, r3
    NVIC->IP[_IP_IDX(IRQn)]  = ((uint32_t)(NVIC->IP[_IP_IDX(IRQn)]  & ~(0xFFUL << _BIT_SHIFT(IRQn))) |
 8000590:	481f      	ldr	r0, [pc, #124]	; (8000610 <__NVIC_SetPriority+0xd4>)
 8000592:	1dfb      	adds	r3, r7, #7
 8000594:	781b      	ldrb	r3, [r3, #0]
 8000596:	b25b      	sxtb	r3, r3
 8000598:	089b      	lsrs	r3, r3, #2
 800059a:	430a      	orrs	r2, r1
 800059c:	33c0      	adds	r3, #192	; 0xc0
 800059e:	009b      	lsls	r3, r3, #2
 80005a0:	501a      	str	r2, [r3, r0]
  else
  {
    SCB->SHP[_SHP_IDX(IRQn)] = ((uint32_t)(SCB->SHP[_SHP_IDX(IRQn)] & ~(0xFFUL << _BIT_SHIFT(IRQn))) |
       (((priority << (8U - __NVIC_PRIO_BITS)) & (uint32_t)0xFFUL) << _BIT_SHIFT(IRQn)));
  }
}
 80005a2:	e031      	b.n	8000608 <__NVIC_SetPriority+0xcc>
    SCB->SHP[_SHP_IDX(IRQn)] = ((uint32_t)(SCB->SHP[_SHP_IDX(IRQn)] & ~(0xFFUL << _BIT_SHIFT(IRQn))) |
 80005a4:	4a1b      	ldr	r2, [pc, #108]	; (8000614 <__NVIC_SetPriority+0xd8>)
 80005a6:	1dfb      	adds	r3, r7, #7
 80005a8:	781b      	ldrb	r3, [r3, #0]
 80005aa:	0019      	movs	r1, r3
 80005ac:	230f      	movs	r3, #15
 80005ae:	400b      	ands	r3, r1
 80005b0:	3b08      	subs	r3, #8
 80005b2:	089b      	lsrs	r3, r3, #2
 80005b4:	3306      	adds	r3, #6
 80005b6:	009b      	lsls	r3, r3, #2
 80005b8:	18d3      	adds	r3, r2, r3
 80005ba:	3304      	adds	r3, #4
 80005bc:	681b      	ldr	r3, [r3, #0]
 80005be:	1dfa      	adds	r2, r7, #7
 80005c0:	7812      	ldrb	r2, [r2, #0]
 80005c2:	0011      	movs	r1, r2
 80005c4:	2203      	movs	r2, #3
 80005c6:	400a      	ands	r2, r1
 80005c8:	00d2      	lsls	r2, r2, #3
 80005ca:	21ff      	movs	r1, #255	; 0xff
 80005cc:	4091      	lsls	r1, r2
 80005ce:	000a      	movs	r2, r1
 80005d0:	43d2      	mvns	r2, r2
 80005d2:	401a      	ands	r2, r3
 80005d4:	0011      	movs	r1, r2
       (((priority << (8U - __NVIC_PRIO_BITS)) & (uint32_t)0xFFUL) << _BIT_SHIFT(IRQn)));
 80005d6:	683b      	ldr	r3, [r7, #0]
 80005d8:	019b      	lsls	r3, r3, #6
 80005da:	22ff      	movs	r2, #255	; 0xff
 80005dc:	401a      	ands	r2, r3
 80005de:	1dfb      	adds	r3, r7, #7
 80005e0:	781b      	ldrb	r3, [r3, #0]
 80005e2:	0018      	movs	r0, r3
 80005e4:	2303      	movs	r3, #3
 80005e6:	4003      	ands	r3, r0
 80005e8:	00db      	lsls	r3, r3, #3
 80005ea:	409a      	lsls	r2, r3
    SCB->SHP[_SHP_IDX(IRQn)] = ((uint32_t)(SCB->SHP[_SHP_IDX(IRQn)] & ~(0xFFUL << _BIT_SHIFT(IRQn))) |
 80005ec:	4809      	ldr	r0, [pc, #36]	; (8000614 <__NVIC_SetPriority+0xd8>)
 80005ee:	1dfb      	adds	r3, r7, #7
 80005f0:	781b      	ldrb	r3, [r3, #0]
 80005f2:	001c      	movs	r4, r3
 80005f4:	230f      	movs	r3, #15
 80005f6:	4023      	ands	r3, r4
 80005f8:	3b08      	subs	r3, #8
 80005fa:	089b      	lsrs	r3, r3, #2
 80005fc:	430a      	orrs	r2, r1
 80005fe:	3306      	adds	r3, #6
 8000600:	009b      	lsls	r3, r3, #2
 8000602:	18c3      	adds	r3, r0, r3
 8000604:	3304      	adds	r3, #4
 8000606:	601a      	str	r2, [r3, #0]
}
 8000608:	46c0      	nop			; (mov r8, r8)
 800060a:	46bd      	mov	sp, r7
 800060c:	b003      	add	sp, #12
 800060e:	bd90      	pop	{r4, r7, pc}
 8000610:	e000e100 	.word	0xe000e100
 8000614:	e000ed00 	.word	0xe000ed00

08000618 <SysTick_Config>:
  \note    When the variable <b>__Vendor_SysTickConfig</b> is set to 1, then the
           function <b>SysTick_Config</b> is not included. In this case, the file <b><i>device</i>.h</b>
           must contain a vendor-specific implementation of this function.
 */
__STATIC_INLINE uint32_t SysTick_Config(uint32_t ticks)
{
 8000618:	b580      	push	{r7, lr}
 800061a:	b082      	sub	sp, #8
 800061c:	af00      	add	r7, sp, #0
 800061e:	6078      	str	r0, [r7, #4]
  if ((ticks - 1UL) > SysTick_LOAD_RELOAD_Msk)
 8000620:	687b      	ldr	r3, [r7, #4]
 8000622:	1e5a      	subs	r2, r3, #1
 8000624:	2380      	movs	r3, #128	; 0x80
 8000626:	045b      	lsls	r3, r3, #17
 8000628:	429a      	cmp	r2, r3
 800062a:	d301      	bcc.n	8000630 <SysTick_Config+0x18>
  {
    return (1UL);                                                   /* Reload value impossible */
 800062c:	2301      	movs	r3, #1
 800062e:	e010      	b.n	8000652 <SysTick_Config+0x3a>
  }

  SysTick->LOAD  = (uint32_t)(ticks - 1UL);                         /* set reload register */
 8000630:	4b0a      	ldr	r3, [pc, #40]	; (800065c <SysTick_Config+0x44>)
 8000632:	687a      	ldr	r2, [r7, #4]
 8000634:	3a01      	subs	r2, #1
 8000636:	605a      	str	r2, [r3, #4]
  NVIC_SetPriority (SysTick_IRQn, (1UL << __NVIC_PRIO_BITS) - 1UL); /* set Priority for Systick Interrupt */
 8000638:	2301      	movs	r3, #1
 800063a:	425b      	negs	r3, r3
 800063c:	2103      	movs	r1, #3
 800063e:	0018      	movs	r0, r3
 8000640:	f7ff ff7c 	bl	800053c <__NVIC_SetPriority>
  SysTick->VAL   = 0UL;                                             /* Load the SysTick Counter Value */
 8000644:	4b05      	ldr	r3, [pc, #20]	; (800065c <SysTick_Config+0x44>)
 8000646:	2200      	movs	r2, #0
 8000648:	609a      	str	r2, [r3, #8]
  SysTick->CTRL  = SysTick_CTRL_CLKSOURCE_Msk |
 800064a:	4b04      	ldr	r3, [pc, #16]	; (800065c <SysTick_Config+0x44>)
 800064c:	2207      	movs	r2, #7
 800064e:	601a      	str	r2, [r3, #0]
                   SysTick_CTRL_TICKINT_Msk   |
                   SysTick_CTRL_ENABLE_Msk;                         /* Enable SysTick IRQ and SysTick Timer */
  return (0UL);                                                     /* Function successful */
 8000650:	2300      	movs	r3, #0
}
 8000652:	0018      	movs	r0, r3
 8000654:	46bd      	mov	sp, r7
 8000656:	b002      	add	sp, #8
 8000658:	bd80      	pop	{r7, pc}
 800065a:	46c0      	nop			; (mov r8, r8)
 800065c:	e000e010 	.word	0xe000e010

08000660 <HAL_NVIC_SetPriority>:
  *         with stm32f0xx devices, this parameter is a dummy value and it is ignored, because 
  *         no subpriority supported in Cortex M0 based products.   
  * @retval None
  */
void HAL_NVIC_SetPriority(IRQn_Type IRQn, uint32_t PreemptPriority, uint32_t SubPriority)
{ 
 8000660:	b580      	push	{r7, lr}
 8000662:	b084      	sub	sp, #16
 8000664:	af00      	add	r7, sp, #0
 8000666:	60b9      	str	r1, [r7, #8]
 8000668:	607a      	str	r2, [r7, #4]
 800066a:	210f      	movs	r1, #15
 800066c:	187b      	adds	r3, r7, r1
 800066e:	1c02      	adds	r2, r0, #0
 8000670:	701a      	strb	r2, [r3, #0]
  /* Check the parameters */
  assert_param(IS_NVIC_PREEMPTION_PRIORITY(PreemptPriority));
  NVIC_SetPriority(IRQn,PreemptPriority);
 8000672:	68ba      	ldr	r2, [r7, #8]
 8000674:	187b      	adds	r3, r7, r1
 8000676:	781b      	ldrb	r3, [r3, #0]
 8000678:	b25b      	sxtb	r3, r3
 800067a:	0011      	movs	r1, r2
 800067c:	0018      	movs	r0, r3
 800067e:	f7ff ff5d 	bl	800053c <__NVIC_SetPriority>
}
 8000682:	46c0      	nop			; (mov r8, r8)
 8000684:	46bd      	mov	sp, r7
 8000686:	b004      	add	sp, #16
 8000688:	bd80      	pop	{r7, pc}

0800068a <HAL_NVIC_EnableIRQ>:
  *         This parameter can be an enumerator of IRQn_Type enumeration
  *         (For the complete STM32 Devices IRQ Channels list, please refer to the appropriate CMSIS device file (stm32f0xxxx.h))
  * @retval None
  */
void HAL_NVIC_EnableIRQ(IRQn_Type IRQn)
{
 800068a:	b580      	push	{r7, lr}
 800068c:	b082      	sub	sp, #8
 800068e:	af00      	add	r7, sp, #0
 8000690:	0002      	movs	r2, r0
 8000692:	1dfb      	adds	r3, r7, #7
 8000694:	701a      	strb	r2, [r3, #0]
  /* Check the parameters */
  assert_param(IS_NVIC_DEVICE_IRQ(IRQn));
  
  /* Enable interrupt */
  NVIC_EnableIRQ(IRQn);
 8000696:	1dfb      	adds	r3, r7, #7
 8000698:	781b      	ldrb	r3, [r3, #0]
 800069a:	b25b      	sxtb	r3, r3
 800069c:	0018      	movs	r0, r3
 800069e:	f7ff ff33 	bl	8000508 <__NVIC_EnableIRQ>
}
 80006a2:	46c0      	nop			; (mov r8, r8)
 80006a4:	46bd      	mov	sp, r7
 80006a6:	b002      	add	sp, #8
 80006a8:	bd80      	pop	{r7, pc}

080006aa <HAL_SYSTICK_Config>:
  * @param  TicksNumb Specifies the ticks Number of ticks between two interrupts.
  * @retval status:  - 0  Function succeeded.
  *                  - 1  Function failed.
  */
uint32_t HAL_SYSTICK_Config(uint32_t TicksNumb)
{
 80006aa:	b580      	push	{r7, lr}
 80006ac:	b082      	sub	sp, #8
 80006ae:	af00      	add	r7, sp, #0
 80006b0:	6078      	str	r0, [r7, #4]
   return SysTick_Config(TicksNumb);
 80006b2:	687b      	ldr	r3, [r7, #4]
 80006b4:	0018      	movs	r0, r3
 80006b6:	f7ff ffaf 	bl	8000618 <SysTick_Config>
 80006ba:	0003      	movs	r3, r0
}
 80006bc:	0018      	movs	r0, r3
 80006be:	46bd      	mov	sp, r7
 80006c0:	b002      	add	sp, #8
 80006c2:	bd80      	pop	{r7, pc}

080006c4 <HAL_PCD_Init>:
  *         parameters in the PCD_InitTypeDef and initialize the associated handle.
  * @param  hpcd PCD handle
  * @retval HAL status
  */
HAL_StatusTypeDef HAL_PCD_Init(PCD_HandleTypeDef *hpcd)
{
 80006c4:	b5f0      	push	{r4, r5, r6, r7, lr}
 80006c6:	b08b      	sub	sp, #44	; 0x2c
 80006c8:	af06      	add	r7, sp, #24
 80006ca:	6078      	str	r0, [r7, #4]
  uint8_t i;

  /* Check the PCD handle allocation */
  if (hpcd == NULL)
 80006cc:	687b      	ldr	r3, [r7, #4]
 80006ce:	2b00      	cmp	r3, #0
 80006d0:	d101      	bne.n	80006d6 <HAL_PCD_Init+0x12>
  {
    return HAL_ERROR;
 80006d2:	2301      	movs	r3, #1
 80006d4:	e0f0      	b.n	80008b8 <HAL_PCD_Init+0x1f4>
  }

  /* Check the parameters */
  assert_param(IS_PCD_ALL_INSTANCE(hpcd->Instance));

  if (hpcd->State == HAL_PCD_STATE_RESET)
 80006d6:	687b      	ldr	r3, [r7, #4]
 80006d8:	4a79      	ldr	r2, [pc, #484]	; (80008c0 <HAL_PCD_Init+0x1fc>)
 80006da:	5c9b      	ldrb	r3, [r3, r2]
 80006dc:	b2db      	uxtb	r3, r3
 80006de:	2b00      	cmp	r3, #0
 80006e0:	d108      	bne.n	80006f4 <HAL_PCD_Init+0x30>
  {
    /* Allocate lock resource and initialize it */
    hpcd->Lock = HAL_UNLOCKED;
 80006e2:	687a      	ldr	r2, [r7, #4]
 80006e4:	23aa      	movs	r3, #170	; 0xaa
 80006e6:	009b      	lsls	r3, r3, #2
 80006e8:	2100      	movs	r1, #0
 80006ea:	54d1      	strb	r1, [r2, r3]

    /* Init the low level hardware */
    hpcd->MspInitCallback(hpcd);
#else
    /* Init the low level hardware : GPIO, CLOCK, NVIC... */
    HAL_PCD_MspInit(hpcd);
 80006ec:	687b      	ldr	r3, [r7, #4]
 80006ee:	0018      	movs	r0, r3
 80006f0:	f006 fa68 	bl	8006bc4 <HAL_PCD_MspInit>
#endif /* (USE_HAL_PCD_REGISTER_CALLBACKS) */
  }

  hpcd->State = HAL_PCD_STATE_BUSY;
 80006f4:	687b      	ldr	r3, [r7, #4]
 80006f6:	4a72      	ldr	r2, [pc, #456]	; (80008c0 <HAL_PCD_Init+0x1fc>)
 80006f8:	2103      	movs	r1, #3
 80006fa:	5499      	strb	r1, [r3, r2]

  /* Disable the Interrupts */
  __HAL_PCD_DISABLE(hpcd);
 80006fc:	687b      	ldr	r3, [r7, #4]
 80006fe:	681b      	ldr	r3, [r3, #0]
 8000700:	0018      	movs	r0, r3
 8000702:	f002 fbed 	bl	8002ee0 <USB_DisableGlobalInt>

  /* Init endpoints structures */
  for (i = 0U; i < hpcd->Init.dev_endpoints; i++)
 8000706:	230f      	movs	r3, #15
 8000708:	18fb      	adds	r3, r7, r3
 800070a:	2200      	movs	r2, #0
 800070c:	701a      	strb	r2, [r3, #0]
 800070e:	e049      	b.n	80007a4 <HAL_PCD_Init+0xe0>
  {
    /* Init ep structure */
    hpcd->IN_ep[i].is_in = 1U;
 8000710:	200f      	movs	r0, #15
 8000712:	183b      	adds	r3, r7, r0
 8000714:	781b      	ldrb	r3, [r3, #0]
 8000716:	6879      	ldr	r1, [r7, #4]
 8000718:	1c5a      	adds	r2, r3, #1
 800071a:	0013      	movs	r3, r2
 800071c:	009b      	lsls	r3, r3, #2
 800071e:	189b      	adds	r3, r3, r2
 8000720:	00db      	lsls	r3, r3, #3
 8000722:	18cb      	adds	r3, r1, r3
 8000724:	3301      	adds	r3, #1
 8000726:	2201      	movs	r2, #1
 8000728:	701a      	strb	r2, [r3, #0]
    hpcd->IN_ep[i].num = i;
 800072a:	183b      	adds	r3, r7, r0
 800072c:	781b      	ldrb	r3, [r3, #0]
 800072e:	6879      	ldr	r1, [r7, #4]
 8000730:	1c5a      	adds	r2, r3, #1
 8000732:	0013      	movs	r3, r2
 8000734:	009b      	lsls	r3, r3, #2
 8000736:	189b      	adds	r3, r3, r2
 8000738:	00db      	lsls	r3, r3, #3
 800073a:	183a      	adds	r2, r7, r0
 800073c:	7812      	ldrb	r2, [r2, #0]
 800073e:	545a      	strb	r2, [r3, r1]
    /* Control until ep is activated */
    hpcd->IN_ep[i].type = EP_TYPE_CTRL;
 8000740:	183b      	adds	r3, r7, r0
 8000742:	781b      	ldrb	r3, [r3, #0]
 8000744:	6879      	ldr	r1, [r7, #4]
 8000746:	1c5a      	adds	r2, r3, #1
 8000748:	0013      	movs	r3, r2
 800074a:	009b      	lsls	r3, r3, #2
 800074c:	189b      	adds	r3, r3, r2
 800074e:	00db      	lsls	r3, r3, #3
 8000750:	18cb      	adds	r3, r1, r3
 8000752:	3303      	adds	r3, #3
 8000754:	2200      	movs	r2, #0
 8000756:	701a      	strb	r2, [r3, #0]
    hpcd->IN_ep[i].maxpacket = 0U;
 8000758:	183b      	adds	r3, r7, r0
 800075a:	781a      	ldrb	r2, [r3, #0]
 800075c:	6879      	ldr	r1, [r7, #4]
 800075e:	0013      	movs	r3, r2
 8000760:	009b      	lsls	r3, r3, #2
 8000762:	189b      	adds	r3, r3, r2
 8000764:	00db      	lsls	r3, r3, #3
 8000766:	18cb      	adds	r3, r1, r3
 8000768:	3338      	adds	r3, #56	; 0x38
 800076a:	2200      	movs	r2, #0
 800076c:	601a      	str	r2, [r3, #0]
    hpcd->IN_ep[i].xfer_buff = 0U;
 800076e:	183b      	adds	r3, r7, r0
 8000770:	781a      	ldrb	r2, [r3, #0]
 8000772:	6879      	ldr	r1, [r7, #4]
 8000774:	0013      	movs	r3, r2
 8000776:	009b      	lsls	r3, r3, #2
 8000778:	189b      	adds	r3, r3, r2
 800077a:	00db      	lsls	r3, r3, #3
 800077c:	18cb      	adds	r3, r1, r3
 800077e:	333c      	adds	r3, #60	; 0x3c
 8000780:	2200      	movs	r2, #0
 8000782:	601a      	str	r2, [r3, #0]
    hpcd->IN_ep[i].xfer_len = 0U;
 8000784:	183b      	adds	r3, r7, r0
 8000786:	781a      	ldrb	r2, [r3, #0]
 8000788:	6879      	ldr	r1, [r7, #4]
 800078a:	0013      	movs	r3, r2
 800078c:	009b      	lsls	r3, r3, #2
 800078e:	189b      	adds	r3, r3, r2
 8000790:	00db      	lsls	r3, r3, #3
 8000792:	18cb      	adds	r3, r1, r3
 8000794:	3340      	adds	r3, #64	; 0x40
 8000796:	2200      	movs	r2, #0
 8000798:	601a      	str	r2, [r3, #0]
  for (i = 0U; i < hpcd->Init.dev_endpoints; i++)
 800079a:	183b      	adds	r3, r7, r0
 800079c:	781a      	ldrb	r2, [r3, #0]
 800079e:	183b      	adds	r3, r7, r0
 80007a0:	3201      	adds	r2, #1
 80007a2:	701a      	strb	r2, [r3, #0]
 80007a4:	210f      	movs	r1, #15
 80007a6:	187b      	adds	r3, r7, r1
 80007a8:	781a      	ldrb	r2, [r3, #0]
 80007aa:	687b      	ldr	r3, [r7, #4]
 80007ac:	685b      	ldr	r3, [r3, #4]
 80007ae:	429a      	cmp	r2, r3
 80007b0:	d3ae      	bcc.n	8000710 <HAL_PCD_Init+0x4c>
  }

  for (i = 0U; i < hpcd->Init.dev_endpoints; i++)
 80007b2:	187b      	adds	r3, r7, r1
 80007b4:	2200      	movs	r2, #0
 80007b6:	701a      	strb	r2, [r3, #0]
 80007b8:	e056      	b.n	8000868 <HAL_PCD_Init+0x1a4>
  {
    hpcd->OUT_ep[i].is_in = 0U;
 80007ba:	240f      	movs	r4, #15
 80007bc:	193b      	adds	r3, r7, r4
 80007be:	781a      	ldrb	r2, [r3, #0]
 80007c0:	6878      	ldr	r0, [r7, #4]
 80007c2:	236a      	movs	r3, #106	; 0x6a
 80007c4:	33ff      	adds	r3, #255	; 0xff
 80007c6:	0019      	movs	r1, r3
 80007c8:	0013      	movs	r3, r2
 80007ca:	009b      	lsls	r3, r3, #2
 80007cc:	189b      	adds	r3, r3, r2
 80007ce:	00db      	lsls	r3, r3, #3
 80007d0:	18c3      	adds	r3, r0, r3
 80007d2:	185b      	adds	r3, r3, r1
 80007d4:	2200      	movs	r2, #0
 80007d6:	701a      	strb	r2, [r3, #0]
    hpcd->OUT_ep[i].num = i;
 80007d8:	193b      	adds	r3, r7, r4
 80007da:	781a      	ldrb	r2, [r3, #0]
 80007dc:	6878      	ldr	r0, [r7, #4]
 80007de:	23b4      	movs	r3, #180	; 0xb4
 80007e0:	0059      	lsls	r1, r3, #1
 80007e2:	0013      	movs	r3, r2
 80007e4:	009b      	lsls	r3, r3, #2
 80007e6:	189b      	adds	r3, r3, r2
 80007e8:	00db      	lsls	r3, r3, #3
 80007ea:	18c3      	adds	r3, r0, r3
 80007ec:	185b      	adds	r3, r3, r1
 80007ee:	193a      	adds	r2, r7, r4
 80007f0:	7812      	ldrb	r2, [r2, #0]
 80007f2:	701a      	strb	r2, [r3, #0]
    /* Control until ep is activated */
    hpcd->OUT_ep[i].type = EP_TYPE_CTRL;
 80007f4:	193b      	adds	r3, r7, r4
 80007f6:	781a      	ldrb	r2, [r3, #0]
 80007f8:	6878      	ldr	r0, [r7, #4]
 80007fa:	236c      	movs	r3, #108	; 0x6c
 80007fc:	33ff      	adds	r3, #255	; 0xff
 80007fe:	0019      	movs	r1, r3
 8000800:	0013      	movs	r3, r2
 8000802:	009b      	lsls	r3, r3, #2
 8000804:	189b      	adds	r3, r3, r2
 8000806:	00db      	lsls	r3, r3, #3
 8000808:	18c3      	adds	r3, r0, r3
 800080a:	185b      	adds	r3, r3, r1
 800080c:	2200      	movs	r2, #0
 800080e:	701a      	strb	r2, [r3, #0]
    hpcd->OUT_ep[i].maxpacket = 0U;
 8000810:	193b      	adds	r3, r7, r4
 8000812:	781a      	ldrb	r2, [r3, #0]
 8000814:	6878      	ldr	r0, [r7, #4]
 8000816:	23bc      	movs	r3, #188	; 0xbc
 8000818:	0059      	lsls	r1, r3, #1
 800081a:	0013      	movs	r3, r2
 800081c:	009b      	lsls	r3, r3, #2
 800081e:	189b      	adds	r3, r3, r2
 8000820:	00db      	lsls	r3, r3, #3
 8000822:	18c3      	adds	r3, r0, r3
 8000824:	185b      	adds	r3, r3, r1
 8000826:	2200      	movs	r2, #0
 8000828:	601a      	str	r2, [r3, #0]
    hpcd->OUT_ep[i].xfer_buff = 0U;
 800082a:	193b      	adds	r3, r7, r4
 800082c:	781a      	ldrb	r2, [r3, #0]
 800082e:	6878      	ldr	r0, [r7, #4]
 8000830:	23be      	movs	r3, #190	; 0xbe
 8000832:	0059      	lsls	r1, r3, #1
 8000834:	0013      	movs	r3, r2
 8000836:	009b      	lsls	r3, r3, #2
 8000838:	189b      	adds	r3, r3, r2
 800083a:	00db      	lsls	r3, r3, #3
 800083c:	18c3      	adds	r3, r0, r3
 800083e:	185b      	adds	r3, r3, r1
 8000840:	2200      	movs	r2, #0
 8000842:	601a      	str	r2, [r3, #0]
    hpcd->OUT_ep[i].xfer_len = 0U;
 8000844:	193b      	adds	r3, r7, r4
 8000846:	781a      	ldrb	r2, [r3, #0]
 8000848:	6878      	ldr	r0, [r7, #4]
 800084a:	23c0      	movs	r3, #192	; 0xc0
 800084c:	0059      	lsls	r1, r3, #1
 800084e:	0013      	movs	r3, r2
 8000850:	009b      	lsls	r3, r3, #2
 8000852:	189b      	adds	r3, r3, r2
 8000854:	00db      	lsls	r3, r3, #3
 8000856:	18c3      	adds	r3, r0, r3
 8000858:	185b      	adds	r3, r3, r1
 800085a:	2200      	movs	r2, #0
 800085c:	601a      	str	r2, [r3, #0]
  for (i = 0U; i < hpcd->Init.dev_endpoints; i++)
 800085e:	193b      	adds	r3, r7, r4
 8000860:	781a      	ldrb	r2, [r3, #0]
 8000862:	193b      	adds	r3, r7, r4
 8000864:	3201      	adds	r2, #1
 8000866:	701a      	strb	r2, [r3, #0]
 8000868:	230f      	movs	r3, #15
 800086a:	18fb      	adds	r3, r7, r3
 800086c:	781a      	ldrb	r2, [r3, #0]
 800086e:	687b      	ldr	r3, [r7, #4]
 8000870:	685b      	ldr	r3, [r3, #4]
 8000872:	429a      	cmp	r2, r3
 8000874:	d3a1      	bcc.n	80007ba <HAL_PCD_Init+0xf6>
  }

  /* Init Device */
  (void)USB_DevInit(hpcd->Instance, hpcd->Init);
 8000876:	687b      	ldr	r3, [r7, #4]
 8000878:	6818      	ldr	r0, [r3, #0]
 800087a:	687b      	ldr	r3, [r7, #4]
 800087c:	466a      	mov	r2, sp
 800087e:	0011      	movs	r1, r2
 8000880:	001a      	movs	r2, r3
 8000882:	3210      	adds	r2, #16
 8000884:	ca70      	ldmia	r2!, {r4, r5, r6}
 8000886:	c170      	stmia	r1!, {r4, r5, r6}
 8000888:	ca30      	ldmia	r2!, {r4, r5}
 800088a:	c130      	stmia	r1!, {r4, r5}
 800088c:	6859      	ldr	r1, [r3, #4]
 800088e:	689a      	ldr	r2, [r3, #8]
 8000890:	68db      	ldr	r3, [r3, #12]
 8000892:	f002 fb3f 	bl	8002f14 <USB_DevInit>

  hpcd->USB_Address = 0U;
 8000896:	687b      	ldr	r3, [r7, #4]
 8000898:	2224      	movs	r2, #36	; 0x24
 800089a:	2100      	movs	r1, #0
 800089c:	5499      	strb	r1, [r3, r2]
  hpcd->State = HAL_PCD_STATE_READY;
 800089e:	687b      	ldr	r3, [r7, #4]
 80008a0:	4a07      	ldr	r2, [pc, #28]	; (80008c0 <HAL_PCD_Init+0x1fc>)
 80008a2:	2101      	movs	r1, #1
 80008a4:	5499      	strb	r1, [r3, r2]

  /* Activate LPM */
  if (hpcd->Init.lpm_enable == 1U)
 80008a6:	687b      	ldr	r3, [r7, #4]
 80008a8:	69db      	ldr	r3, [r3, #28]
 80008aa:	2b01      	cmp	r3, #1
 80008ac:	d103      	bne.n	80008b6 <HAL_PCD_Init+0x1f2>
  {
    (void)HAL_PCDEx_ActivateLPM(hpcd);
 80008ae:	687b      	ldr	r3, [r7, #4]
 80008b0:	0018      	movs	r0, r3
 80008b2:	f001 fd09 	bl	80022c8 <HAL_PCDEx_ActivateLPM>
  }

  return HAL_OK;
 80008b6:	2300      	movs	r3, #0
}
 80008b8:	0018      	movs	r0, r3
 80008ba:	46bd      	mov	sp, r7
 80008bc:	b005      	add	sp, #20
 80008be:	bdf0      	pop	{r4, r5, r6, r7, pc}
 80008c0:	000002a9 	.word	0x000002a9

080008c4 <HAL_PCD_Start>:
  * @brief  Start the USB device
  * @param  hpcd PCD handle
  * @retval HAL status
  */
HAL_StatusTypeDef HAL_PCD_Start(PCD_HandleTypeDef *hpcd)
{
 80008c4:	b580      	push	{r7, lr}
 80008c6:	b082      	sub	sp, #8
 80008c8:	af00      	add	r7, sp, #0
 80008ca:	6078      	str	r0, [r7, #4]
  __HAL_LOCK(hpcd);
 80008cc:	687a      	ldr	r2, [r7, #4]
 80008ce:	23aa      	movs	r3, #170	; 0xaa
 80008d0:	009b      	lsls	r3, r3, #2
 80008d2:	5cd3      	ldrb	r3, [r2, r3]
 80008d4:	2b01      	cmp	r3, #1
 80008d6:	d101      	bne.n	80008dc <HAL_PCD_Start+0x18>
 80008d8:	2302      	movs	r3, #2
 80008da:	e014      	b.n	8000906 <HAL_PCD_Start+0x42>
 80008dc:	687a      	ldr	r2, [r7, #4]
 80008de:	23aa      	movs	r3, #170	; 0xaa
 80008e0:	009b      	lsls	r3, r3, #2
 80008e2:	2101      	movs	r1, #1
 80008e4:	54d1      	strb	r1, [r2, r3]
  __HAL_PCD_ENABLE(hpcd);
 80008e6:	687b      	ldr	r3, [r7, #4]
 80008e8:	681b      	ldr	r3, [r3, #0]
 80008ea:	0018      	movs	r0, r3
 80008ec:	f002 fae2 	bl	8002eb4 <USB_EnableGlobalInt>
  (void)USB_DevConnect(hpcd->Instance);
 80008f0:	687b      	ldr	r3, [r7, #4]
 80008f2:	681b      	ldr	r3, [r3, #0]
 80008f4:	0018      	movs	r0, r3
 80008f6:	f004 fae5 	bl	8004ec4 <USB_DevConnect>
  __HAL_UNLOCK(hpcd);
 80008fa:	687a      	ldr	r2, [r7, #4]
 80008fc:	23aa      	movs	r3, #170	; 0xaa
 80008fe:	009b      	lsls	r3, r3, #2
 8000900:	2100      	movs	r1, #0
 8000902:	54d1      	strb	r1, [r2, r3]

  return HAL_OK;
 8000904:	2300      	movs	r3, #0
}
 8000906:	0018      	movs	r0, r3
 8000908:	46bd      	mov	sp, r7
 800090a:	b002      	add	sp, #8
 800090c:	bd80      	pop	{r7, pc}
	...

08000910 <HAL_PCD_IRQHandler>:
  * @brief  This function handles PCD interrupt request.
  * @param  hpcd PCD handle
  * @retval HAL status
  */
void HAL_PCD_IRQHandler(PCD_HandleTypeDef *hpcd)
{
 8000910:	b580      	push	{r7, lr}
 8000912:	b084      	sub	sp, #16
 8000914:	af00      	add	r7, sp, #0
 8000916:	6078      	str	r0, [r7, #4]
  uint32_t wIstr = USB_ReadInterrupts(hpcd->Instance);
 8000918:	687b      	ldr	r3, [r7, #4]
 800091a:	681b      	ldr	r3, [r3, #0]
 800091c:	0018      	movs	r0, r3
 800091e:	f004 fae7 	bl	8004ef0 <USB_ReadInterrupts>
 8000922:	0003      	movs	r3, r0
 8000924:	60fb      	str	r3, [r7, #12]

  if ((wIstr & USB_ISTR_CTR) == USB_ISTR_CTR)
 8000926:	68fa      	ldr	r2, [r7, #12]
 8000928:	2380      	movs	r3, #128	; 0x80
 800092a:	021b      	lsls	r3, r3, #8
 800092c:	4013      	ands	r3, r2
 800092e:	d004      	beq.n	800093a <HAL_PCD_IRQHandler+0x2a>
  {
    /* servicing of the endpoint correct transfer interrupt */
    /* clear of the CTR flag into the sub */
    (void)PCD_EP_ISR_Handler(hpcd);
 8000930:	687b      	ldr	r3, [r7, #4]
 8000932:	0018      	movs	r0, r3
 8000934:	f000 fb48 	bl	8000fc8 <PCD_EP_ISR_Handler>

    return;
 8000938:	e11d      	b.n	8000b76 <HAL_PCD_IRQHandler+0x266>
  }

  if ((wIstr & USB_ISTR_RESET) == USB_ISTR_RESET)
 800093a:	68fa      	ldr	r2, [r7, #12]
 800093c:	2380      	movs	r3, #128	; 0x80
 800093e:	00db      	lsls	r3, r3, #3
 8000940:	4013      	ands	r3, r2
 8000942:	d015      	beq.n	8000970 <HAL_PCD_IRQHandler+0x60>
  {
    __HAL_PCD_CLEAR_FLAG(hpcd, USB_ISTR_RESET);
 8000944:	687b      	ldr	r3, [r7, #4]
 8000946:	681b      	ldr	r3, [r3, #0]
 8000948:	2244      	movs	r2, #68	; 0x44
 800094a:	5a9b      	ldrh	r3, [r3, r2]
 800094c:	b29a      	uxth	r2, r3
 800094e:	687b      	ldr	r3, [r7, #4]
 8000950:	681b      	ldr	r3, [r3, #0]
 8000952:	498a      	ldr	r1, [pc, #552]	; (8000b7c <HAL_PCD_IRQHandler+0x26c>)
 8000954:	400a      	ands	r2, r1
 8000956:	b291      	uxth	r1, r2
 8000958:	2244      	movs	r2, #68	; 0x44
 800095a:	5299      	strh	r1, [r3, r2]

#if (USE_HAL_PCD_REGISTER_CALLBACKS == 1U)
    hpcd->ResetCallback(hpcd);
#else
    HAL_PCD_ResetCallback(hpcd);
 800095c:	687b      	ldr	r3, [r7, #4]
 800095e:	0018      	movs	r0, r3
 8000960:	f006 f9bb 	bl	8006cda <HAL_PCD_ResetCallback>
#endif /* USE_HAL_PCD_REGISTER_CALLBACKS */

    (void)HAL_PCD_SetAddress(hpcd, 0U);
 8000964:	687b      	ldr	r3, [r7, #4]
 8000966:	2100      	movs	r1, #0
 8000968:	0018      	movs	r0, r3
 800096a:	f000 f915 	bl	8000b98 <HAL_PCD_SetAddress>

    return;
 800096e:	e102      	b.n	8000b76 <HAL_PCD_IRQHandler+0x266>
  }

  if ((wIstr & USB_ISTR_PMAOVR) == USB_ISTR_PMAOVR)
 8000970:	68fa      	ldr	r2, [r7, #12]
 8000972:	2380      	movs	r3, #128	; 0x80
 8000974:	01db      	lsls	r3, r3, #7
 8000976:	4013      	ands	r3, r2
 8000978:	d00c      	beq.n	8000994 <HAL_PCD_IRQHandler+0x84>
  {
    __HAL_PCD_CLEAR_FLAG(hpcd, USB_ISTR_PMAOVR);
 800097a:	687b      	ldr	r3, [r7, #4]
 800097c:	681b      	ldr	r3, [r3, #0]
 800097e:	2244      	movs	r2, #68	; 0x44
 8000980:	5a9b      	ldrh	r3, [r3, r2]
 8000982:	b29a      	uxth	r2, r3
 8000984:	687b      	ldr	r3, [r7, #4]
 8000986:	681b      	ldr	r3, [r3, #0]
 8000988:	497d      	ldr	r1, [pc, #500]	; (8000b80 <HAL_PCD_IRQHandler+0x270>)
 800098a:	400a      	ands	r2, r1
 800098c:	b291      	uxth	r1, r2
 800098e:	2244      	movs	r2, #68	; 0x44
 8000990:	5299      	strh	r1, [r3, r2]

    return;
 8000992:	e0f0      	b.n	8000b76 <HAL_PCD_IRQHandler+0x266>
  }

  if ((wIstr & USB_ISTR_ERR) == USB_ISTR_ERR)
 8000994:	68fa      	ldr	r2, [r7, #12]
 8000996:	2380      	movs	r3, #128	; 0x80
 8000998:	019b      	lsls	r3, r3, #6
 800099a:	4013      	ands	r3, r2
 800099c:	d00c      	beq.n	80009b8 <HAL_PCD_IRQHandler+0xa8>
  {
    __HAL_PCD_CLEAR_FLAG(hpcd, USB_ISTR_ERR);
 800099e:	687b      	ldr	r3, [r7, #4]
 80009a0:	681b      	ldr	r3, [r3, #0]
 80009a2:	2244      	movs	r2, #68	; 0x44
 80009a4:	5a9b      	ldrh	r3, [r3, r2]
 80009a6:	b29a      	uxth	r2, r3
 80009a8:	687b      	ldr	r3, [r7, #4]
 80009aa:	681b      	ldr	r3, [r3, #0]
 80009ac:	4975      	ldr	r1, [pc, #468]	; (8000b84 <HAL_PCD_IRQHandler+0x274>)
 80009ae:	400a      	ands	r2, r1
 80009b0:	b291      	uxth	r1, r2
 80009b2:	2244      	movs	r2, #68	; 0x44
 80009b4:	5299      	strh	r1, [r3, r2]

    return;
 80009b6:	e0de      	b.n	8000b76 <HAL_PCD_IRQHandler+0x266>
  }

  if ((wIstr & USB_ISTR_WKUP) == USB_ISTR_WKUP)
 80009b8:	68fa      	ldr	r2, [r7, #12]
 80009ba:	2380      	movs	r3, #128	; 0x80
 80009bc:	015b      	lsls	r3, r3, #5
 80009be:	4013      	ands	r3, r2
 80009c0:	d038      	beq.n	8000a34 <HAL_PCD_IRQHandler+0x124>
  {
    hpcd->Instance->CNTR &= (uint16_t) ~(USB_CNTR_LPMODE);
 80009c2:	687b      	ldr	r3, [r7, #4]
 80009c4:	681b      	ldr	r3, [r3, #0]
 80009c6:	2240      	movs	r2, #64	; 0x40
 80009c8:	5a9b      	ldrh	r3, [r3, r2]
 80009ca:	b29a      	uxth	r2, r3
 80009cc:	687b      	ldr	r3, [r7, #4]
 80009ce:	681b      	ldr	r3, [r3, #0]
 80009d0:	2104      	movs	r1, #4
 80009d2:	438a      	bics	r2, r1
 80009d4:	b291      	uxth	r1, r2
 80009d6:	2240      	movs	r2, #64	; 0x40
 80009d8:	5299      	strh	r1, [r3, r2]
    hpcd->Instance->CNTR &= (uint16_t) ~(USB_CNTR_FSUSP);
 80009da:	687b      	ldr	r3, [r7, #4]
 80009dc:	681b      	ldr	r3, [r3, #0]
 80009de:	2240      	movs	r2, #64	; 0x40
 80009e0:	5a9b      	ldrh	r3, [r3, r2]
 80009e2:	b29a      	uxth	r2, r3
 80009e4:	687b      	ldr	r3, [r7, #4]
 80009e6:	681b      	ldr	r3, [r3, #0]
 80009e8:	2108      	movs	r1, #8
 80009ea:	438a      	bics	r2, r1
 80009ec:	b291      	uxth	r1, r2
 80009ee:	2240      	movs	r2, #64	; 0x40
 80009f0:	5299      	strh	r1, [r3, r2]

    if (hpcd->LPM_State == LPM_L1)
 80009f2:	687a      	ldr	r2, [r7, #4]
 80009f4:	23b8      	movs	r3, #184	; 0xb8
 80009f6:	009b      	lsls	r3, r3, #2
 80009f8:	5cd3      	ldrb	r3, [r2, r3]
 80009fa:	2b01      	cmp	r3, #1
 80009fc:	d109      	bne.n	8000a12 <HAL_PCD_IRQHandler+0x102>
    {
      hpcd->LPM_State = LPM_L0;
 80009fe:	687a      	ldr	r2, [r7, #4]
 8000a00:	23b8      	movs	r3, #184	; 0xb8
 8000a02:	009b      	lsls	r3, r3, #2
 8000a04:	2100      	movs	r1, #0
 8000a06:	54d1      	strb	r1, [r2, r3]
#if (USE_HAL_PCD_REGISTER_CALLBACKS == 1U)
      hpcd->LPMCallback(hpcd, PCD_LPM_L0_ACTIVE);
#else
      HAL_PCDEx_LPM_Callback(hpcd, PCD_LPM_L0_ACTIVE);
 8000a08:	687b      	ldr	r3, [r7, #4]
 8000a0a:	2100      	movs	r1, #0
 8000a0c:	0018      	movs	r0, r3
 8000a0e:	f001 fc85 	bl	800231c <HAL_PCDEx_LPM_Callback>
    }

#if (USE_HAL_PCD_REGISTER_CALLBACKS == 1U)
    hpcd->ResumeCallback(hpcd);
#else
    HAL_PCD_ResumeCallback(hpcd);
 8000a12:	687b      	ldr	r3, [r7, #4]
 8000a14:	0018      	movs	r0, r3
 8000a16:	f006 f9a1 	bl	8006d5c <HAL_PCD_ResumeCallback>
#endif /* USE_HAL_PCD_REGISTER_CALLBACKS */

    __HAL_PCD_CLEAR_FLAG(hpcd, USB_ISTR_WKUP);
 8000a1a:	687b      	ldr	r3, [r7, #4]
 8000a1c:	681b      	ldr	r3, [r3, #0]
 8000a1e:	2244      	movs	r2, #68	; 0x44
 8000a20:	5a9b      	ldrh	r3, [r3, r2]
 8000a22:	b29a      	uxth	r2, r3
 8000a24:	687b      	ldr	r3, [r7, #4]
 8000a26:	681b      	ldr	r3, [r3, #0]
 8000a28:	4957      	ldr	r1, [pc, #348]	; (8000b88 <HAL_PCD_IRQHandler+0x278>)
 8000a2a:	400a      	ands	r2, r1
 8000a2c:	b291      	uxth	r1, r2
 8000a2e:	2244      	movs	r2, #68	; 0x44
 8000a30:	5299      	strh	r1, [r3, r2]

    return;
 8000a32:	e0a0      	b.n	8000b76 <HAL_PCD_IRQHandler+0x266>
  }

  if ((wIstr & USB_ISTR_SUSP) == USB_ISTR_SUSP)
 8000a34:	68fa      	ldr	r2, [r7, #12]
 8000a36:	2380      	movs	r3, #128	; 0x80
 8000a38:	011b      	lsls	r3, r3, #4
 8000a3a:	4013      	ands	r3, r2
 8000a3c:	d028      	beq.n	8000a90 <HAL_PCD_IRQHandler+0x180>
  {
    /* Force low-power mode in the macrocell */
    hpcd->Instance->CNTR |= (uint16_t)USB_CNTR_FSUSP;
 8000a3e:	687b      	ldr	r3, [r7, #4]
 8000a40:	681b      	ldr	r3, [r3, #0]
 8000a42:	2240      	movs	r2, #64	; 0x40
 8000a44:	5a9b      	ldrh	r3, [r3, r2]
 8000a46:	b29a      	uxth	r2, r3
 8000a48:	687b      	ldr	r3, [r7, #4]
 8000a4a:	681b      	ldr	r3, [r3, #0]
 8000a4c:	2108      	movs	r1, #8
 8000a4e:	430a      	orrs	r2, r1
 8000a50:	b291      	uxth	r1, r2
 8000a52:	2240      	movs	r2, #64	; 0x40
 8000a54:	5299      	strh	r1, [r3, r2]

    /* clear of the ISTR bit must be done after setting of CNTR_FSUSP */
    __HAL_PCD_CLEAR_FLAG(hpcd, USB_ISTR_SUSP);
 8000a56:	687b      	ldr	r3, [r7, #4]
 8000a58:	681b      	ldr	r3, [r3, #0]
 8000a5a:	2244      	movs	r2, #68	; 0x44
 8000a5c:	5a9b      	ldrh	r3, [r3, r2]
 8000a5e:	b29a      	uxth	r2, r3
 8000a60:	687b      	ldr	r3, [r7, #4]
 8000a62:	681b      	ldr	r3, [r3, #0]
 8000a64:	4949      	ldr	r1, [pc, #292]	; (8000b8c <HAL_PCD_IRQHandler+0x27c>)
 8000a66:	400a      	ands	r2, r1
 8000a68:	b291      	uxth	r1, r2
 8000a6a:	2244      	movs	r2, #68	; 0x44
 8000a6c:	5299      	strh	r1, [r3, r2]

    hpcd->Instance->CNTR |= (uint16_t)USB_CNTR_LPMODE;
 8000a6e:	687b      	ldr	r3, [r7, #4]
 8000a70:	681b      	ldr	r3, [r3, #0]
 8000a72:	2240      	movs	r2, #64	; 0x40
 8000a74:	5a9b      	ldrh	r3, [r3, r2]
 8000a76:	b29a      	uxth	r2, r3
 8000a78:	687b      	ldr	r3, [r7, #4]
 8000a7a:	681b      	ldr	r3, [r3, #0]
 8000a7c:	2104      	movs	r1, #4
 8000a7e:	430a      	orrs	r2, r1
 8000a80:	b291      	uxth	r1, r2
 8000a82:	2240      	movs	r2, #64	; 0x40
 8000a84:	5299      	strh	r1, [r3, r2]

#if (USE_HAL_PCD_REGISTER_CALLBACKS == 1U)
    hpcd->SuspendCallback(hpcd);
#else
    HAL_PCD_SuspendCallback(hpcd);
 8000a86:	687b      	ldr	r3, [r7, #4]
 8000a88:	0018      	movs	r0, r3
 8000a8a:	f006 f94b 	bl	8006d24 <HAL_PCD_SuspendCallback>
#endif /* USE_HAL_PCD_REGISTER_CALLBACKS */

    return;
 8000a8e:	e072      	b.n	8000b76 <HAL_PCD_IRQHandler+0x266>
  }

  /* Handle LPM Interrupt */
  if ((wIstr & USB_ISTR_L1REQ) == USB_ISTR_L1REQ)
 8000a90:	68fb      	ldr	r3, [r7, #12]
 8000a92:	2280      	movs	r2, #128	; 0x80
 8000a94:	4013      	ands	r3, r2
 8000a96:	d046      	beq.n	8000b26 <HAL_PCD_IRQHandler+0x216>
  {
    __HAL_PCD_CLEAR_FLAG(hpcd, USB_ISTR_L1REQ);
 8000a98:	687b      	ldr	r3, [r7, #4]
 8000a9a:	681b      	ldr	r3, [r3, #0]
 8000a9c:	2244      	movs	r2, #68	; 0x44
 8000a9e:	5a9b      	ldrh	r3, [r3, r2]
 8000aa0:	b29a      	uxth	r2, r3
 8000aa2:	687b      	ldr	r3, [r7, #4]
 8000aa4:	681b      	ldr	r3, [r3, #0]
 8000aa6:	2180      	movs	r1, #128	; 0x80
 8000aa8:	438a      	bics	r2, r1
 8000aaa:	b291      	uxth	r1, r2
 8000aac:	2244      	movs	r2, #68	; 0x44
 8000aae:	5299      	strh	r1, [r3, r2]
    if (hpcd->LPM_State == LPM_L0)
 8000ab0:	687a      	ldr	r2, [r7, #4]
 8000ab2:	23b8      	movs	r3, #184	; 0xb8
 8000ab4:	009b      	lsls	r3, r3, #2
 8000ab6:	5cd3      	ldrb	r3, [r2, r3]
 8000ab8:	2b00      	cmp	r3, #0
 8000aba:	d12f      	bne.n	8000b1c <HAL_PCD_IRQHandler+0x20c>
    {
      /* Force suspend and low-power mode before going to L1 state*/
      hpcd->Instance->CNTR |= (uint16_t)USB_CNTR_LPMODE;
 8000abc:	687b      	ldr	r3, [r7, #4]
 8000abe:	681b      	ldr	r3, [r3, #0]
 8000ac0:	2240      	movs	r2, #64	; 0x40
 8000ac2:	5a9b      	ldrh	r3, [r3, r2]
 8000ac4:	b29a      	uxth	r2, r3
 8000ac6:	687b      	ldr	r3, [r7, #4]
 8000ac8:	681b      	ldr	r3, [r3, #0]
 8000aca:	2104      	movs	r1, #4
 8000acc:	430a      	orrs	r2, r1
 8000ace:	b291      	uxth	r1, r2
 8000ad0:	2240      	movs	r2, #64	; 0x40
 8000ad2:	5299      	strh	r1, [r3, r2]
      hpcd->Instance->CNTR |= (uint16_t)USB_CNTR_FSUSP;
 8000ad4:	687b      	ldr	r3, [r7, #4]
 8000ad6:	681b      	ldr	r3, [r3, #0]
 8000ad8:	2240      	movs	r2, #64	; 0x40
 8000ada:	5a9b      	ldrh	r3, [r3, r2]
 8000adc:	b29a      	uxth	r2, r3
 8000ade:	687b      	ldr	r3, [r7, #4]
 8000ae0:	681b      	ldr	r3, [r3, #0]
 8000ae2:	2108      	movs	r1, #8
 8000ae4:	430a      	orrs	r2, r1
 8000ae6:	b291      	uxth	r1, r2
 8000ae8:	2240      	movs	r2, #64	; 0x40
 8000aea:	5299      	strh	r1, [r3, r2]

      hpcd->LPM_State = LPM_L1;
 8000aec:	687a      	ldr	r2, [r7, #4]
 8000aee:	23b8      	movs	r3, #184	; 0xb8
 8000af0:	009b      	lsls	r3, r3, #2
 8000af2:	2101      	movs	r1, #1
 8000af4:	54d1      	strb	r1, [r2, r3]
      hpcd->BESL = ((uint32_t)hpcd->Instance->LPMCSR & USB_LPMCSR_BESL) >> 2;
 8000af6:	687b      	ldr	r3, [r7, #4]
 8000af8:	681b      	ldr	r3, [r3, #0]
 8000afa:	2254      	movs	r2, #84	; 0x54
 8000afc:	5a9b      	ldrh	r3, [r3, r2]
 8000afe:	b29b      	uxth	r3, r3
 8000b00:	089b      	lsrs	r3, r3, #2
 8000b02:	223c      	movs	r2, #60	; 0x3c
 8000b04:	4013      	ands	r3, r2
 8000b06:	0019      	movs	r1, r3
 8000b08:	687a      	ldr	r2, [r7, #4]
 8000b0a:	23b9      	movs	r3, #185	; 0xb9
 8000b0c:	009b      	lsls	r3, r3, #2
 8000b0e:	50d1      	str	r1, [r2, r3]
#if (USE_HAL_PCD_REGISTER_CALLBACKS == 1U)
      hpcd->LPMCallback(hpcd, PCD_LPM_L1_ACTIVE);
#else
      HAL_PCDEx_LPM_Callback(hpcd, PCD_LPM_L1_ACTIVE);
 8000b10:	687b      	ldr	r3, [r7, #4]
 8000b12:	2101      	movs	r1, #1
 8000b14:	0018      	movs	r0, r3
 8000b16:	f001 fc01 	bl	800231c <HAL_PCDEx_LPM_Callback>
#else
      HAL_PCD_SuspendCallback(hpcd);
#endif /* USE_HAL_PCD_REGISTER_CALLBACKS */
    }

    return;
 8000b1a:	e02c      	b.n	8000b76 <HAL_PCD_IRQHandler+0x266>
      HAL_PCD_SuspendCallback(hpcd);
 8000b1c:	687b      	ldr	r3, [r7, #4]
 8000b1e:	0018      	movs	r0, r3
 8000b20:	f006 f900 	bl	8006d24 <HAL_PCD_SuspendCallback>
    return;
 8000b24:	e027      	b.n	8000b76 <HAL_PCD_IRQHandler+0x266>
  }

  if ((wIstr & USB_ISTR_SOF) == USB_ISTR_SOF)
 8000b26:	68fa      	ldr	r2, [r7, #12]
 8000b28:	2380      	movs	r3, #128	; 0x80
 8000b2a:	009b      	lsls	r3, r3, #2
 8000b2c:	4013      	ands	r3, r2
 8000b2e:	d010      	beq.n	8000b52 <HAL_PCD_IRQHandler+0x242>
  {
    __HAL_PCD_CLEAR_FLAG(hpcd, USB_ISTR_SOF);
 8000b30:	687b      	ldr	r3, [r7, #4]
 8000b32:	681b      	ldr	r3, [r3, #0]
 8000b34:	2244      	movs	r2, #68	; 0x44
 8000b36:	5a9b      	ldrh	r3, [r3, r2]
 8000b38:	b29a      	uxth	r2, r3
 8000b3a:	687b      	ldr	r3, [r7, #4]
 8000b3c:	681b      	ldr	r3, [r3, #0]
 8000b3e:	4914      	ldr	r1, [pc, #80]	; (8000b90 <HAL_PCD_IRQHandler+0x280>)
 8000b40:	400a      	ands	r2, r1
 8000b42:	b291      	uxth	r1, r2
 8000b44:	2244      	movs	r2, #68	; 0x44
 8000b46:	5299      	strh	r1, [r3, r2]

#if (USE_HAL_PCD_REGISTER_CALLBACKS == 1U)
    hpcd->SOFCallback(hpcd);
#else
    HAL_PCD_SOFCallback(hpcd);
 8000b48:	687b      	ldr	r3, [r7, #4]
 8000b4a:	0018      	movs	r0, r3
 8000b4c:	f006 f8b6 	bl	8006cbc <HAL_PCD_SOFCallback>
#endif /* USE_HAL_PCD_REGISTER_CALLBACKS */

    return;
 8000b50:	e011      	b.n	8000b76 <HAL_PCD_IRQHandler+0x266>
  }

  if ((wIstr & USB_ISTR_ESOF) == USB_ISTR_ESOF)
 8000b52:	68fa      	ldr	r2, [r7, #12]
 8000b54:	2380      	movs	r3, #128	; 0x80
 8000b56:	005b      	lsls	r3, r3, #1
 8000b58:	4013      	ands	r3, r2
 8000b5a:	d00c      	beq.n	8000b76 <HAL_PCD_IRQHandler+0x266>
  {
    /* clear ESOF flag in ISTR */
    __HAL_PCD_CLEAR_FLAG(hpcd, USB_ISTR_ESOF);
 8000b5c:	687b      	ldr	r3, [r7, #4]
 8000b5e:	681b      	ldr	r3, [r3, #0]
 8000b60:	2244      	movs	r2, #68	; 0x44
 8000b62:	5a9b      	ldrh	r3, [r3, r2]
 8000b64:	b29a      	uxth	r2, r3
 8000b66:	687b      	ldr	r3, [r7, #4]
 8000b68:	681b      	ldr	r3, [r3, #0]
 8000b6a:	490a      	ldr	r1, [pc, #40]	; (8000b94 <HAL_PCD_IRQHandler+0x284>)
 8000b6c:	400a      	ands	r2, r1
 8000b6e:	b291      	uxth	r1, r2
 8000b70:	2244      	movs	r2, #68	; 0x44
 8000b72:	5299      	strh	r1, [r3, r2]

    return;
 8000b74:	46c0      	nop			; (mov r8, r8)
  }
}
 8000b76:	46bd      	mov	sp, r7
 8000b78:	b004      	add	sp, #16
 8000b7a:	bd80      	pop	{r7, pc}
 8000b7c:	fffffbff 	.word	0xfffffbff
 8000b80:	ffffbfff 	.word	0xffffbfff
 8000b84:	ffffdfff 	.word	0xffffdfff
 8000b88:	ffffefff 	.word	0xffffefff
 8000b8c:	fffff7ff 	.word	0xfffff7ff
 8000b90:	fffffdff 	.word	0xfffffdff
 8000b94:	fffffeff 	.word	0xfffffeff

08000b98 <HAL_PCD_SetAddress>:
  * @param  hpcd PCD handle
  * @param  address new device address
  * @retval HAL status
  */
HAL_StatusTypeDef HAL_PCD_SetAddress(PCD_HandleTypeDef *hpcd, uint8_t address)
{
 8000b98:	b580      	push	{r7, lr}
 8000b9a:	b082      	sub	sp, #8
 8000b9c:	af00      	add	r7, sp, #0
 8000b9e:	6078      	str	r0, [r7, #4]
 8000ba0:	000a      	movs	r2, r1
 8000ba2:	1cfb      	adds	r3, r7, #3
 8000ba4:	701a      	strb	r2, [r3, #0]
  __HAL_LOCK(hpcd);
 8000ba6:	687a      	ldr	r2, [r7, #4]
 8000ba8:	23aa      	movs	r3, #170	; 0xaa
 8000baa:	009b      	lsls	r3, r3, #2
 8000bac:	5cd3      	ldrb	r3, [r2, r3]
 8000bae:	2b01      	cmp	r3, #1
 8000bb0:	d101      	bne.n	8000bb6 <HAL_PCD_SetAddress+0x1e>
 8000bb2:	2302      	movs	r3, #2
 8000bb4:	e017      	b.n	8000be6 <HAL_PCD_SetAddress+0x4e>
 8000bb6:	687a      	ldr	r2, [r7, #4]
 8000bb8:	23aa      	movs	r3, #170	; 0xaa
 8000bba:	009b      	lsls	r3, r3, #2
 8000bbc:	2101      	movs	r1, #1
 8000bbe:	54d1      	strb	r1, [r2, r3]
  hpcd->USB_Address = address;
 8000bc0:	687b      	ldr	r3, [r7, #4]
 8000bc2:	1cfa      	adds	r2, r7, #3
 8000bc4:	2124      	movs	r1, #36	; 0x24
 8000bc6:	7812      	ldrb	r2, [r2, #0]
 8000bc8:	545a      	strb	r2, [r3, r1]
  (void)USB_SetDevAddress(hpcd->Instance, address);
 8000bca:	687b      	ldr	r3, [r7, #4]
 8000bcc:	681a      	ldr	r2, [r3, #0]
 8000bce:	1cfb      	adds	r3, r7, #3
 8000bd0:	781b      	ldrb	r3, [r3, #0]
 8000bd2:	0019      	movs	r1, r3
 8000bd4:	0010      	movs	r0, r2
 8000bd6:	f004 f961 	bl	8004e9c <USB_SetDevAddress>
  __HAL_UNLOCK(hpcd);
 8000bda:	687a      	ldr	r2, [r7, #4]
 8000bdc:	23aa      	movs	r3, #170	; 0xaa
 8000bde:	009b      	lsls	r3, r3, #2
 8000be0:	2100      	movs	r1, #0
 8000be2:	54d1      	strb	r1, [r2, r3]

  return HAL_OK;
 8000be4:	2300      	movs	r3, #0
}
 8000be6:	0018      	movs	r0, r3
 8000be8:	46bd      	mov	sp, r7
 8000bea:	b002      	add	sp, #8
 8000bec:	bd80      	pop	{r7, pc}

08000bee <HAL_PCD_EP_Open>:
  * @param  ep_type endpoint type
  * @retval HAL status
  */
HAL_StatusTypeDef HAL_PCD_EP_Open(PCD_HandleTypeDef *hpcd, uint8_t ep_addr,
                                  uint16_t ep_mps, uint8_t ep_type)
{
 8000bee:	b590      	push	{r4, r7, lr}
 8000bf0:	b085      	sub	sp, #20
 8000bf2:	af00      	add	r7, sp, #0
 8000bf4:	6078      	str	r0, [r7, #4]
 8000bf6:	000c      	movs	r4, r1
 8000bf8:	0010      	movs	r0, r2
 8000bfa:	0019      	movs	r1, r3
 8000bfc:	1cfb      	adds	r3, r7, #3
 8000bfe:	1c22      	adds	r2, r4, #0
 8000c00:	701a      	strb	r2, [r3, #0]
 8000c02:	003b      	movs	r3, r7
 8000c04:	1c02      	adds	r2, r0, #0
 8000c06:	801a      	strh	r2, [r3, #0]
 8000c08:	1cbb      	adds	r3, r7, #2
 8000c0a:	1c0a      	adds	r2, r1, #0
 8000c0c:	701a      	strb	r2, [r3, #0]
  HAL_StatusTypeDef  ret = HAL_OK;
 8000c0e:	230b      	movs	r3, #11
 8000c10:	18fb      	adds	r3, r7, r3
 8000c12:	2200      	movs	r2, #0
 8000c14:	701a      	strb	r2, [r3, #0]
  PCD_EPTypeDef *ep;

  if ((ep_addr & 0x80U) == 0x80U)
 8000c16:	1cfb      	adds	r3, r7, #3
 8000c18:	781b      	ldrb	r3, [r3, #0]
 8000c1a:	b25b      	sxtb	r3, r3
 8000c1c:	2b00      	cmp	r3, #0
 8000c1e:	da0f      	bge.n	8000c40 <HAL_PCD_EP_Open+0x52>
  {
    ep = &hpcd->IN_ep[ep_addr & EP_ADDR_MSK];
 8000c20:	1cfb      	adds	r3, r7, #3
 8000c22:	781b      	ldrb	r3, [r3, #0]
 8000c24:	2207      	movs	r2, #7
 8000c26:	4013      	ands	r3, r2
 8000c28:	1c5a      	adds	r2, r3, #1
 8000c2a:	0013      	movs	r3, r2
 8000c2c:	009b      	lsls	r3, r3, #2
 8000c2e:	189b      	adds	r3, r3, r2
 8000c30:	00db      	lsls	r3, r3, #3
 8000c32:	687a      	ldr	r2, [r7, #4]
 8000c34:	18d3      	adds	r3, r2, r3
 8000c36:	60fb      	str	r3, [r7, #12]
    ep->is_in = 1U;
 8000c38:	68fb      	ldr	r3, [r7, #12]
 8000c3a:	2201      	movs	r2, #1
 8000c3c:	705a      	strb	r2, [r3, #1]
 8000c3e:	e00f      	b.n	8000c60 <HAL_PCD_EP_Open+0x72>
  }
  else
  {
    ep = &hpcd->OUT_ep[ep_addr & EP_ADDR_MSK];
 8000c40:	1cfb      	adds	r3, r7, #3
 8000c42:	781b      	ldrb	r3, [r3, #0]
 8000c44:	2207      	movs	r2, #7
 8000c46:	401a      	ands	r2, r3
 8000c48:	0013      	movs	r3, r2
 8000c4a:	009b      	lsls	r3, r3, #2
 8000c4c:	189b      	adds	r3, r3, r2
 8000c4e:	00db      	lsls	r3, r3, #3
 8000c50:	3369      	adds	r3, #105	; 0x69
 8000c52:	33ff      	adds	r3, #255	; 0xff
 8000c54:	687a      	ldr	r2, [r7, #4]
 8000c56:	18d3      	adds	r3, r2, r3
 8000c58:	60fb      	str	r3, [r7, #12]
    ep->is_in = 0U;
 8000c5a:	68fb      	ldr	r3, [r7, #12]
 8000c5c:	2200      	movs	r2, #0
 8000c5e:	705a      	strb	r2, [r3, #1]
  }

  ep->num = ep_addr & EP_ADDR_MSK;
 8000c60:	1cfb      	adds	r3, r7, #3
 8000c62:	781b      	ldrb	r3, [r3, #0]
 8000c64:	2207      	movs	r2, #7
 8000c66:	4013      	ands	r3, r2
 8000c68:	b2da      	uxtb	r2, r3
 8000c6a:	68fb      	ldr	r3, [r7, #12]
 8000c6c:	701a      	strb	r2, [r3, #0]
  ep->maxpacket = ep_mps;
 8000c6e:	003b      	movs	r3, r7
 8000c70:	881a      	ldrh	r2, [r3, #0]
 8000c72:	68fb      	ldr	r3, [r7, #12]
 8000c74:	611a      	str	r2, [r3, #16]
  ep->type = ep_type;
 8000c76:	68fb      	ldr	r3, [r7, #12]
 8000c78:	1cba      	adds	r2, r7, #2
 8000c7a:	7812      	ldrb	r2, [r2, #0]
 8000c7c:	70da      	strb	r2, [r3, #3]

  /* Set initial data PID. */
  if (ep_type == EP_TYPE_BULK)
 8000c7e:	1cbb      	adds	r3, r7, #2
 8000c80:	781b      	ldrb	r3, [r3, #0]
 8000c82:	2b02      	cmp	r3, #2
 8000c84:	d102      	bne.n	8000c8c <HAL_PCD_EP_Open+0x9e>
  {
    ep->data_pid_start = 0U;
 8000c86:	68fb      	ldr	r3, [r7, #12]
 8000c88:	2200      	movs	r2, #0
 8000c8a:	711a      	strb	r2, [r3, #4]
  }

  __HAL_LOCK(hpcd);
 8000c8c:	687a      	ldr	r2, [r7, #4]
 8000c8e:	23aa      	movs	r3, #170	; 0xaa
 8000c90:	009b      	lsls	r3, r3, #2
 8000c92:	5cd3      	ldrb	r3, [r2, r3]
 8000c94:	2b01      	cmp	r3, #1
 8000c96:	d101      	bne.n	8000c9c <HAL_PCD_EP_Open+0xae>
 8000c98:	2302      	movs	r3, #2
 8000c9a:	e013      	b.n	8000cc4 <HAL_PCD_EP_Open+0xd6>
 8000c9c:	687a      	ldr	r2, [r7, #4]
 8000c9e:	23aa      	movs	r3, #170	; 0xaa
 8000ca0:	009b      	lsls	r3, r3, #2
 8000ca2:	2101      	movs	r1, #1
 8000ca4:	54d1      	strb	r1, [r2, r3]
  (void)USB_ActivateEndpoint(hpcd->Instance, ep);
 8000ca6:	687b      	ldr	r3, [r7, #4]
 8000ca8:	681b      	ldr	r3, [r3, #0]
 8000caa:	68fa      	ldr	r2, [r7, #12]
 8000cac:	0011      	movs	r1, r2
 8000cae:	0018      	movs	r0, r3
 8000cb0:	f002 f958 	bl	8002f64 <USB_ActivateEndpoint>
  __HAL_UNLOCK(hpcd);
 8000cb4:	687a      	ldr	r2, [r7, #4]
 8000cb6:	23aa      	movs	r3, #170	; 0xaa
 8000cb8:	009b      	lsls	r3, r3, #2
 8000cba:	2100      	movs	r1, #0
 8000cbc:	54d1      	strb	r1, [r2, r3]

  return ret;
 8000cbe:	230b      	movs	r3, #11
 8000cc0:	18fb      	adds	r3, r7, r3
 8000cc2:	781b      	ldrb	r3, [r3, #0]
}
 8000cc4:	0018      	movs	r0, r3
 8000cc6:	46bd      	mov	sp, r7
 8000cc8:	b005      	add	sp, #20
 8000cca:	bd90      	pop	{r4, r7, pc}

08000ccc <HAL_PCD_EP_Close>:
  * @param  hpcd PCD handle
  * @param  ep_addr endpoint address
  * @retval HAL status
  */
HAL_StatusTypeDef HAL_PCD_EP_Close(PCD_HandleTypeDef *hpcd, uint8_t ep_addr)
{
 8000ccc:	b580      	push	{r7, lr}
 8000cce:	b084      	sub	sp, #16
 8000cd0:	af00      	add	r7, sp, #0
 8000cd2:	6078      	str	r0, [r7, #4]
 8000cd4:	000a      	movs	r2, r1
 8000cd6:	1cfb      	adds	r3, r7, #3
 8000cd8:	701a      	strb	r2, [r3, #0]
  PCD_EPTypeDef *ep;

  if ((ep_addr & 0x80U) == 0x80U)
 8000cda:	1cfb      	adds	r3, r7, #3
 8000cdc:	781b      	ldrb	r3, [r3, #0]
 8000cde:	b25b      	sxtb	r3, r3
 8000ce0:	2b00      	cmp	r3, #0
 8000ce2:	da0f      	bge.n	8000d04 <HAL_PCD_EP_Close+0x38>
  {
    ep = &hpcd->IN_ep[ep_addr & EP_ADDR_MSK];
 8000ce4:	1cfb      	adds	r3, r7, #3
 8000ce6:	781b      	ldrb	r3, [r3, #0]
 8000ce8:	2207      	movs	r2, #7
 8000cea:	4013      	ands	r3, r2
 8000cec:	1c5a      	adds	r2, r3, #1
 8000cee:	0013      	movs	r3, r2
 8000cf0:	009b      	lsls	r3, r3, #2
 8000cf2:	189b      	adds	r3, r3, r2
 8000cf4:	00db      	lsls	r3, r3, #3
 8000cf6:	687a      	ldr	r2, [r7, #4]
 8000cf8:	18d3      	adds	r3, r2, r3
 8000cfa:	60fb      	str	r3, [r7, #12]
    ep->is_in = 1U;
 8000cfc:	68fb      	ldr	r3, [r7, #12]
 8000cfe:	2201      	movs	r2, #1
 8000d00:	705a      	strb	r2, [r3, #1]
 8000d02:	e00f      	b.n	8000d24 <HAL_PCD_EP_Close+0x58>
  }
  else
  {
    ep = &hpcd->OUT_ep[ep_addr & EP_ADDR_MSK];
 8000d04:	1cfb      	adds	r3, r7, #3
 8000d06:	781b      	ldrb	r3, [r3, #0]
 8000d08:	2207      	movs	r2, #7
 8000d0a:	401a      	ands	r2, r3
 8000d0c:	0013      	movs	r3, r2
 8000d0e:	009b      	lsls	r3, r3, #2
 8000d10:	189b      	adds	r3, r3, r2
 8000d12:	00db      	lsls	r3, r3, #3
 8000d14:	3369      	adds	r3, #105	; 0x69
 8000d16:	33ff      	adds	r3, #255	; 0xff
 8000d18:	687a      	ldr	r2, [r7, #4]
 8000d1a:	18d3      	adds	r3, r2, r3
 8000d1c:	60fb      	str	r3, [r7, #12]
    ep->is_in = 0U;
 8000d1e:	68fb      	ldr	r3, [r7, #12]
 8000d20:	2200      	movs	r2, #0
 8000d22:	705a      	strb	r2, [r3, #1]
  }
  ep->num = ep_addr & EP_ADDR_MSK;
 8000d24:	1cfb      	adds	r3, r7, #3
 8000d26:	781b      	ldrb	r3, [r3, #0]
 8000d28:	2207      	movs	r2, #7
 8000d2a:	4013      	ands	r3, r2
 8000d2c:	b2da      	uxtb	r2, r3
 8000d2e:	68fb      	ldr	r3, [r7, #12]
 8000d30:	701a      	strb	r2, [r3, #0]

  __HAL_LOCK(hpcd);
 8000d32:	687a      	ldr	r2, [r7, #4]
 8000d34:	23aa      	movs	r3, #170	; 0xaa
 8000d36:	009b      	lsls	r3, r3, #2
 8000d38:	5cd3      	ldrb	r3, [r2, r3]
 8000d3a:	2b01      	cmp	r3, #1
 8000d3c:	d101      	bne.n	8000d42 <HAL_PCD_EP_Close+0x76>
 8000d3e:	2302      	movs	r3, #2
 8000d40:	e011      	b.n	8000d66 <HAL_PCD_EP_Close+0x9a>
 8000d42:	687a      	ldr	r2, [r7, #4]
 8000d44:	23aa      	movs	r3, #170	; 0xaa
 8000d46:	009b      	lsls	r3, r3, #2
 8000d48:	2101      	movs	r1, #1
 8000d4a:	54d1      	strb	r1, [r2, r3]
  (void)USB_DeactivateEndpoint(hpcd->Instance, ep);
 8000d4c:	687b      	ldr	r3, [r7, #4]
 8000d4e:	681b      	ldr	r3, [r3, #0]
 8000d50:	68fa      	ldr	r2, [r7, #12]
 8000d52:	0011      	movs	r1, r2
 8000d54:	0018      	movs	r0, r3
 8000d56:	f002 fca7 	bl	80036a8 <USB_DeactivateEndpoint>
  __HAL_UNLOCK(hpcd);
 8000d5a:	687a      	ldr	r2, [r7, #4]
 8000d5c:	23aa      	movs	r3, #170	; 0xaa
 8000d5e:	009b      	lsls	r3, r3, #2
 8000d60:	2100      	movs	r1, #0
 8000d62:	54d1      	strb	r1, [r2, r3]
  return HAL_OK;
 8000d64:	2300      	movs	r3, #0
}
 8000d66:	0018      	movs	r0, r3
 8000d68:	46bd      	mov	sp, r7
 8000d6a:	b004      	add	sp, #16
 8000d6c:	bd80      	pop	{r7, pc}

08000d6e <HAL_PCD_EP_Receive>:
  * @param  pBuf pointer to the reception buffer
  * @param  len amount of data to be received
  * @retval HAL status
  */
HAL_StatusTypeDef HAL_PCD_EP_Receive(PCD_HandleTypeDef *hpcd, uint8_t ep_addr, uint8_t *pBuf, uint32_t len)
{
 8000d6e:	b580      	push	{r7, lr}
 8000d70:	b086      	sub	sp, #24
 8000d72:	af00      	add	r7, sp, #0
 8000d74:	60f8      	str	r0, [r7, #12]
 8000d76:	607a      	str	r2, [r7, #4]
 8000d78:	603b      	str	r3, [r7, #0]
 8000d7a:	200b      	movs	r0, #11
 8000d7c:	183b      	adds	r3, r7, r0
 8000d7e:	1c0a      	adds	r2, r1, #0
 8000d80:	701a      	strb	r2, [r3, #0]
  PCD_EPTypeDef *ep;

  ep = &hpcd->OUT_ep[ep_addr & EP_ADDR_MSK];
 8000d82:	0001      	movs	r1, r0
 8000d84:	187b      	adds	r3, r7, r1
 8000d86:	781b      	ldrb	r3, [r3, #0]
 8000d88:	2207      	movs	r2, #7
 8000d8a:	401a      	ands	r2, r3
 8000d8c:	0013      	movs	r3, r2
 8000d8e:	009b      	lsls	r3, r3, #2
 8000d90:	189b      	adds	r3, r3, r2
 8000d92:	00db      	lsls	r3, r3, #3
 8000d94:	3369      	adds	r3, #105	; 0x69
 8000d96:	33ff      	adds	r3, #255	; 0xff
 8000d98:	68fa      	ldr	r2, [r7, #12]
 8000d9a:	18d3      	adds	r3, r2, r3
 8000d9c:	617b      	str	r3, [r7, #20]

  /*setup and start the Xfer */
  ep->xfer_buff = pBuf;
 8000d9e:	697b      	ldr	r3, [r7, #20]
 8000da0:	687a      	ldr	r2, [r7, #4]
 8000da2:	615a      	str	r2, [r3, #20]
  ep->xfer_len = len;
 8000da4:	697b      	ldr	r3, [r7, #20]
 8000da6:	683a      	ldr	r2, [r7, #0]
 8000da8:	619a      	str	r2, [r3, #24]
  ep->xfer_count = 0U;
 8000daa:	697b      	ldr	r3, [r7, #20]
 8000dac:	2200      	movs	r2, #0
 8000dae:	61da      	str	r2, [r3, #28]
  ep->is_in = 0U;
 8000db0:	697b      	ldr	r3, [r7, #20]
 8000db2:	2200      	movs	r2, #0
 8000db4:	705a      	strb	r2, [r3, #1]
  ep->num = ep_addr & EP_ADDR_MSK;
 8000db6:	187b      	adds	r3, r7, r1
 8000db8:	781b      	ldrb	r3, [r3, #0]
 8000dba:	2207      	movs	r2, #7
 8000dbc:	4013      	ands	r3, r2
 8000dbe:	b2da      	uxtb	r2, r3
 8000dc0:	697b      	ldr	r3, [r7, #20]
 8000dc2:	701a      	strb	r2, [r3, #0]

  (void)USB_EPStartXfer(hpcd->Instance, ep);
 8000dc4:	68fb      	ldr	r3, [r7, #12]
 8000dc6:	681b      	ldr	r3, [r3, #0]
 8000dc8:	697a      	ldr	r2, [r7, #20]
 8000dca:	0011      	movs	r1, r2
 8000dcc:	0018      	movs	r0, r3
 8000dce:	f002 fe2b 	bl	8003a28 <USB_EPStartXfer>

  return HAL_OK;
 8000dd2:	2300      	movs	r3, #0
}
 8000dd4:	0018      	movs	r0, r3
 8000dd6:	46bd      	mov	sp, r7
 8000dd8:	b006      	add	sp, #24
 8000dda:	bd80      	pop	{r7, pc}

08000ddc <HAL_PCD_EP_Transmit>:
  * @param  pBuf pointer to the transmission buffer
  * @param  len amount of data to be sent
  * @retval HAL status
  */
HAL_StatusTypeDef HAL_PCD_EP_Transmit(PCD_HandleTypeDef *hpcd, uint8_t ep_addr, uint8_t *pBuf, uint32_t len)
{
 8000ddc:	b580      	push	{r7, lr}
 8000dde:	b086      	sub	sp, #24
 8000de0:	af00      	add	r7, sp, #0
 8000de2:	60f8      	str	r0, [r7, #12]
 8000de4:	607a      	str	r2, [r7, #4]
 8000de6:	603b      	str	r3, [r7, #0]
 8000de8:	200b      	movs	r0, #11
 8000dea:	183b      	adds	r3, r7, r0
 8000dec:	1c0a      	adds	r2, r1, #0
 8000dee:	701a      	strb	r2, [r3, #0]
  PCD_EPTypeDef *ep;

  ep = &hpcd->IN_ep[ep_addr & EP_ADDR_MSK];
 8000df0:	183b      	adds	r3, r7, r0
 8000df2:	781b      	ldrb	r3, [r3, #0]
 8000df4:	2207      	movs	r2, #7
 8000df6:	4013      	ands	r3, r2
 8000df8:	1c5a      	adds	r2, r3, #1
 8000dfa:	0013      	movs	r3, r2
 8000dfc:	009b      	lsls	r3, r3, #2
 8000dfe:	189b      	adds	r3, r3, r2
 8000e00:	00db      	lsls	r3, r3, #3
 8000e02:	68fa      	ldr	r2, [r7, #12]
 8000e04:	18d3      	adds	r3, r2, r3
 8000e06:	617b      	str	r3, [r7, #20]

  /*setup and start the Xfer */
  ep->xfer_buff = pBuf;
 8000e08:	697b      	ldr	r3, [r7, #20]
 8000e0a:	687a      	ldr	r2, [r7, #4]
 8000e0c:	615a      	str	r2, [r3, #20]
  ep->xfer_len = len;
 8000e0e:	697b      	ldr	r3, [r7, #20]
 8000e10:	683a      	ldr	r2, [r7, #0]
 8000e12:	619a      	str	r2, [r3, #24]
  ep->xfer_fill_db = 1U;
 8000e14:	697b      	ldr	r3, [r7, #20]
 8000e16:	2224      	movs	r2, #36	; 0x24
 8000e18:	2101      	movs	r1, #1
 8000e1a:	5499      	strb	r1, [r3, r2]
  ep->xfer_len_db = len;
 8000e1c:	697b      	ldr	r3, [r7, #20]
 8000e1e:	683a      	ldr	r2, [r7, #0]
 8000e20:	621a      	str	r2, [r3, #32]
  ep->xfer_count = 0U;
 8000e22:	697b      	ldr	r3, [r7, #20]
 8000e24:	2200      	movs	r2, #0
 8000e26:	61da      	str	r2, [r3, #28]
  ep->is_in = 1U;
 8000e28:	697b      	ldr	r3, [r7, #20]
 8000e2a:	2201      	movs	r2, #1
 8000e2c:	705a      	strb	r2, [r3, #1]
  ep->num = ep_addr & EP_ADDR_MSK;
 8000e2e:	183b      	adds	r3, r7, r0
 8000e30:	781b      	ldrb	r3, [r3, #0]
 8000e32:	2207      	movs	r2, #7
 8000e34:	4013      	ands	r3, r2
 8000e36:	b2da      	uxtb	r2, r3
 8000e38:	697b      	ldr	r3, [r7, #20]
 8000e3a:	701a      	strb	r2, [r3, #0]

  (void)USB_EPStartXfer(hpcd->Instance, ep);
 8000e3c:	68fb      	ldr	r3, [r7, #12]
 8000e3e:	681b      	ldr	r3, [r3, #0]
 8000e40:	697a      	ldr	r2, [r7, #20]
 8000e42:	0011      	movs	r1, r2
 8000e44:	0018      	movs	r0, r3
 8000e46:	f002 fdef 	bl	8003a28 <USB_EPStartXfer>

  return HAL_OK;
 8000e4a:	2300      	movs	r3, #0
}
 8000e4c:	0018      	movs	r0, r3
 8000e4e:	46bd      	mov	sp, r7
 8000e50:	b006      	add	sp, #24
 8000e52:	bd80      	pop	{r7, pc}

08000e54 <HAL_PCD_EP_SetStall>:
  * @param  hpcd PCD handle
  * @param  ep_addr endpoint address
  * @retval HAL status
  */
HAL_StatusTypeDef HAL_PCD_EP_SetStall(PCD_HandleTypeDef *hpcd, uint8_t ep_addr)
{
 8000e54:	b580      	push	{r7, lr}
 8000e56:	b084      	sub	sp, #16
 8000e58:	af00      	add	r7, sp, #0
 8000e5a:	6078      	str	r0, [r7, #4]
 8000e5c:	000a      	movs	r2, r1
 8000e5e:	1cfb      	adds	r3, r7, #3
 8000e60:	701a      	strb	r2, [r3, #0]
  PCD_EPTypeDef *ep;

  if (((uint32_t)ep_addr & EP_ADDR_MSK) > hpcd->Init.dev_endpoints)
 8000e62:	1cfb      	adds	r3, r7, #3
 8000e64:	781b      	ldrb	r3, [r3, #0]
 8000e66:	2207      	movs	r2, #7
 8000e68:	401a      	ands	r2, r3
 8000e6a:	687b      	ldr	r3, [r7, #4]
 8000e6c:	685b      	ldr	r3, [r3, #4]
 8000e6e:	429a      	cmp	r2, r3
 8000e70:	d901      	bls.n	8000e76 <HAL_PCD_EP_SetStall+0x22>
  {
    return HAL_ERROR;
 8000e72:	2301      	movs	r3, #1
 8000e74:	e046      	b.n	8000f04 <HAL_PCD_EP_SetStall+0xb0>
  }

  if ((0x80U & ep_addr) == 0x80U)
 8000e76:	1cfb      	adds	r3, r7, #3
 8000e78:	781b      	ldrb	r3, [r3, #0]
 8000e7a:	b25b      	sxtb	r3, r3
 8000e7c:	2b00      	cmp	r3, #0
 8000e7e:	da0f      	bge.n	8000ea0 <HAL_PCD_EP_SetStall+0x4c>
  {
    ep = &hpcd->IN_ep[ep_addr & EP_ADDR_MSK];
 8000e80:	1cfb      	adds	r3, r7, #3
 8000e82:	781b      	ldrb	r3, [r3, #0]
 8000e84:	2207      	movs	r2, #7
 8000e86:	4013      	ands	r3, r2
 8000e88:	1c5a      	adds	r2, r3, #1
 8000e8a:	0013      	movs	r3, r2
 8000e8c:	009b      	lsls	r3, r3, #2
 8000e8e:	189b      	adds	r3, r3, r2
 8000e90:	00db      	lsls	r3, r3, #3
 8000e92:	687a      	ldr	r2, [r7, #4]
 8000e94:	18d3      	adds	r3, r2, r3
 8000e96:	60fb      	str	r3, [r7, #12]
    ep->is_in = 1U;
 8000e98:	68fb      	ldr	r3, [r7, #12]
 8000e9a:	2201      	movs	r2, #1
 8000e9c:	705a      	strb	r2, [r3, #1]
 8000e9e:	e00d      	b.n	8000ebc <HAL_PCD_EP_SetStall+0x68>
  }
  else
  {
    ep = &hpcd->OUT_ep[ep_addr];
 8000ea0:	1cfb      	adds	r3, r7, #3
 8000ea2:	781a      	ldrb	r2, [r3, #0]
 8000ea4:	0013      	movs	r3, r2
 8000ea6:	009b      	lsls	r3, r3, #2
 8000ea8:	189b      	adds	r3, r3, r2
 8000eaa:	00db      	lsls	r3, r3, #3
 8000eac:	3369      	adds	r3, #105	; 0x69
 8000eae:	33ff      	adds	r3, #255	; 0xff
 8000eb0:	687a      	ldr	r2, [r7, #4]
 8000eb2:	18d3      	adds	r3, r2, r3
 8000eb4:	60fb      	str	r3, [r7, #12]
    ep->is_in = 0U;
 8000eb6:	68fb      	ldr	r3, [r7, #12]
 8000eb8:	2200      	movs	r2, #0
 8000eba:	705a      	strb	r2, [r3, #1]
  }

  ep->is_stall = 1U;
 8000ebc:	68fb      	ldr	r3, [r7, #12]
 8000ebe:	2201      	movs	r2, #1
 8000ec0:	709a      	strb	r2, [r3, #2]
  ep->num = ep_addr & EP_ADDR_MSK;
 8000ec2:	1cfb      	adds	r3, r7, #3
 8000ec4:	781b      	ldrb	r3, [r3, #0]
 8000ec6:	2207      	movs	r2, #7
 8000ec8:	4013      	ands	r3, r2
 8000eca:	b2da      	uxtb	r2, r3
 8000ecc:	68fb      	ldr	r3, [r7, #12]
 8000ece:	701a      	strb	r2, [r3, #0]

  __HAL_LOCK(hpcd);
 8000ed0:	687a      	ldr	r2, [r7, #4]
 8000ed2:	23aa      	movs	r3, #170	; 0xaa
 8000ed4:	009b      	lsls	r3, r3, #2
 8000ed6:	5cd3      	ldrb	r3, [r2, r3]
 8000ed8:	2b01      	cmp	r3, #1
 8000eda:	d101      	bne.n	8000ee0 <HAL_PCD_EP_SetStall+0x8c>
 8000edc:	2302      	movs	r3, #2
 8000ede:	e011      	b.n	8000f04 <HAL_PCD_EP_SetStall+0xb0>
 8000ee0:	687a      	ldr	r2, [r7, #4]
 8000ee2:	23aa      	movs	r3, #170	; 0xaa
 8000ee4:	009b      	lsls	r3, r3, #2
 8000ee6:	2101      	movs	r1, #1
 8000ee8:	54d1      	strb	r1, [r2, r3]

  (void)USB_EPSetStall(hpcd->Instance, ep);
 8000eea:	687b      	ldr	r3, [r7, #4]
 8000eec:	681b      	ldr	r3, [r3, #0]
 8000eee:	68fa      	ldr	r2, [r7, #12]
 8000ef0:	0011      	movs	r1, r2
 8000ef2:	0018      	movs	r0, r3
 8000ef4:	f003 fed0 	bl	8004c98 <USB_EPSetStall>

  __HAL_UNLOCK(hpcd);
 8000ef8:	687a      	ldr	r2, [r7, #4]
 8000efa:	23aa      	movs	r3, #170	; 0xaa
 8000efc:	009b      	lsls	r3, r3, #2
 8000efe:	2100      	movs	r1, #0
 8000f00:	54d1      	strb	r1, [r2, r3]

  return HAL_OK;
 8000f02:	2300      	movs	r3, #0
}
 8000f04:	0018      	movs	r0, r3
 8000f06:	46bd      	mov	sp, r7
 8000f08:	b004      	add	sp, #16
 8000f0a:	bd80      	pop	{r7, pc}

08000f0c <HAL_PCD_EP_ClrStall>:
  * @param  hpcd PCD handle
  * @param  ep_addr endpoint address
  * @retval HAL status
  */
HAL_StatusTypeDef HAL_PCD_EP_ClrStall(PCD_HandleTypeDef *hpcd, uint8_t ep_addr)
{
 8000f0c:	b580      	push	{r7, lr}
 8000f0e:	b084      	sub	sp, #16
 8000f10:	af00      	add	r7, sp, #0
 8000f12:	6078      	str	r0, [r7, #4]
 8000f14:	000a      	movs	r2, r1
 8000f16:	1cfb      	adds	r3, r7, #3
 8000f18:	701a      	strb	r2, [r3, #0]
  PCD_EPTypeDef *ep;

  if (((uint32_t)ep_addr & 0x0FU) > hpcd->Init.dev_endpoints)
 8000f1a:	1cfb      	adds	r3, r7, #3
 8000f1c:	781b      	ldrb	r3, [r3, #0]
 8000f1e:	220f      	movs	r2, #15
 8000f20:	401a      	ands	r2, r3
 8000f22:	687b      	ldr	r3, [r7, #4]
 8000f24:	685b      	ldr	r3, [r3, #4]
 8000f26:	429a      	cmp	r2, r3
 8000f28:	d901      	bls.n	8000f2e <HAL_PCD_EP_ClrStall+0x22>
  {
    return HAL_ERROR;
 8000f2a:	2301      	movs	r3, #1
 8000f2c:	e048      	b.n	8000fc0 <HAL_PCD_EP_ClrStall+0xb4>
  }

  if ((0x80U & ep_addr) == 0x80U)
 8000f2e:	1cfb      	adds	r3, r7, #3
 8000f30:	781b      	ldrb	r3, [r3, #0]
 8000f32:	b25b      	sxtb	r3, r3
 8000f34:	2b00      	cmp	r3, #0
 8000f36:	da0f      	bge.n	8000f58 <HAL_PCD_EP_ClrStall+0x4c>
  {
    ep = &hpcd->IN_ep[ep_addr & EP_ADDR_MSK];
 8000f38:	1cfb      	adds	r3, r7, #3
 8000f3a:	781b      	ldrb	r3, [r3, #0]
 8000f3c:	2207      	movs	r2, #7
 8000f3e:	4013      	ands	r3, r2
 8000f40:	1c5a      	adds	r2, r3, #1
 8000f42:	0013      	movs	r3, r2
 8000f44:	009b      	lsls	r3, r3, #2
 8000f46:	189b      	adds	r3, r3, r2
 8000f48:	00db      	lsls	r3, r3, #3
 8000f4a:	687a      	ldr	r2, [r7, #4]
 8000f4c:	18d3      	adds	r3, r2, r3
 8000f4e:	60fb      	str	r3, [r7, #12]
    ep->is_in = 1U;
 8000f50:	68fb      	ldr	r3, [r7, #12]
 8000f52:	2201      	movs	r2, #1
 8000f54:	705a      	strb	r2, [r3, #1]
 8000f56:	e00f      	b.n	8000f78 <HAL_PCD_EP_ClrStall+0x6c>
  }
  else
  {
    ep = &hpcd->OUT_ep[ep_addr & EP_ADDR_MSK];
 8000f58:	1cfb      	adds	r3, r7, #3
 8000f5a:	781b      	ldrb	r3, [r3, #0]
 8000f5c:	2207      	movs	r2, #7
 8000f5e:	401a      	ands	r2, r3
 8000f60:	0013      	movs	r3, r2
 8000f62:	009b      	lsls	r3, r3, #2
 8000f64:	189b      	adds	r3, r3, r2
 8000f66:	00db      	lsls	r3, r3, #3
 8000f68:	3369      	adds	r3, #105	; 0x69
 8000f6a:	33ff      	adds	r3, #255	; 0xff
 8000f6c:	687a      	ldr	r2, [r7, #4]
 8000f6e:	18d3      	adds	r3, r2, r3
 8000f70:	60fb      	str	r3, [r7, #12]
    ep->is_in = 0U;
 8000f72:	68fb      	ldr	r3, [r7, #12]
 8000f74:	2200      	movs	r2, #0
 8000f76:	705a      	strb	r2, [r3, #1]
  }

  ep->is_stall = 0U;
 8000f78:	68fb      	ldr	r3, [r7, #12]
 8000f7a:	2200      	movs	r2, #0
 8000f7c:	709a      	strb	r2, [r3, #2]
  ep->num = ep_addr & EP_ADDR_MSK;
 8000f7e:	1cfb      	adds	r3, r7, #3
 8000f80:	781b      	ldrb	r3, [r3, #0]
 8000f82:	2207      	movs	r2, #7
 8000f84:	4013      	ands	r3, r2
 8000f86:	b2da      	uxtb	r2, r3
 8000f88:	68fb      	ldr	r3, [r7, #12]
 8000f8a:	701a      	strb	r2, [r3, #0]

  __HAL_LOCK(hpcd);
 8000f8c:	687a      	ldr	r2, [r7, #4]
 8000f8e:	23aa      	movs	r3, #170	; 0xaa
 8000f90:	009b      	lsls	r3, r3, #2
 8000f92:	5cd3      	ldrb	r3, [r2, r3]
 8000f94:	2b01      	cmp	r3, #1
 8000f96:	d101      	bne.n	8000f9c <HAL_PCD_EP_ClrStall+0x90>
 8000f98:	2302      	movs	r3, #2
 8000f9a:	e011      	b.n	8000fc0 <HAL_PCD_EP_ClrStall+0xb4>
 8000f9c:	687a      	ldr	r2, [r7, #4]
 8000f9e:	23aa      	movs	r3, #170	; 0xaa
 8000fa0:	009b      	lsls	r3, r3, #2
 8000fa2:	2101      	movs	r1, #1
 8000fa4:	54d1      	strb	r1, [r2, r3]
  (void)USB_EPClearStall(hpcd->Instance, ep);
 8000fa6:	687b      	ldr	r3, [r7, #4]
 8000fa8:	681b      	ldr	r3, [r3, #0]
 8000faa:	68fa      	ldr	r2, [r7, #12]
 8000fac:	0011      	movs	r1, r2
 8000fae:	0018      	movs	r0, r3
 8000fb0:	f003 fec2 	bl	8004d38 <USB_EPClearStall>
  __HAL_UNLOCK(hpcd);
 8000fb4:	687a      	ldr	r2, [r7, #4]
 8000fb6:	23aa      	movs	r3, #170	; 0xaa
 8000fb8:	009b      	lsls	r3, r3, #2
 8000fba:	2100      	movs	r1, #0
 8000fbc:	54d1      	strb	r1, [r2, r3]

  return HAL_OK;
 8000fbe:	2300      	movs	r3, #0
}
 8000fc0:	0018      	movs	r0, r3
 8000fc2:	46bd      	mov	sp, r7
 8000fc4:	b004      	add	sp, #16
 8000fc6:	bd80      	pop	{r7, pc}

08000fc8 <PCD_EP_ISR_Handler>:
  * @brief  This function handles PCD Endpoint interrupt request.
  * @param  hpcd PCD handle
  * @retval HAL status
  */
static HAL_StatusTypeDef PCD_EP_ISR_Handler(PCD_HandleTypeDef *hpcd)
{
 8000fc8:	b5b0      	push	{r4, r5, r7, lr}
 8000fca:	b096      	sub	sp, #88	; 0x58
 8000fcc:	af00      	add	r7, sp, #0
 8000fce:	6078      	str	r0, [r7, #4]
#if (USE_USB_DOUBLE_BUFFER != 1U)
  count = 0U;
#endif /* USE_USB_DOUBLE_BUFFER */

  /* stay in loop while pending interrupts */
  while ((hpcd->Instance->ISTR & USB_ISTR_CTR) != 0U)
 8000fd0:	f000 fbec 	bl	80017ac <PCD_EP_ISR_Handler+0x7e4>
  {
    wIstr = hpcd->Instance->ISTR;
 8000fd4:	687b      	ldr	r3, [r7, #4]
 8000fd6:	681a      	ldr	r2, [r3, #0]
 8000fd8:	204e      	movs	r0, #78	; 0x4e
 8000fda:	183b      	adds	r3, r7, r0
 8000fdc:	2144      	movs	r1, #68	; 0x44
 8000fde:	5a52      	ldrh	r2, [r2, r1]
 8000fe0:	801a      	strh	r2, [r3, #0]

    /* extract highest priority endpoint number */
    epindex = (uint8_t)(wIstr & USB_ISTR_EP_ID);
 8000fe2:	183b      	adds	r3, r7, r0
 8000fe4:	881b      	ldrh	r3, [r3, #0]
 8000fe6:	b2da      	uxtb	r2, r3
 8000fe8:	244d      	movs	r4, #77	; 0x4d
 8000fea:	193b      	adds	r3, r7, r4
 8000fec:	210f      	movs	r1, #15
 8000fee:	400a      	ands	r2, r1
 8000ff0:	701a      	strb	r2, [r3, #0]

    if (epindex == 0U)
 8000ff2:	193b      	adds	r3, r7, r4
 8000ff4:	781b      	ldrb	r3, [r3, #0]
 8000ff6:	2b00      	cmp	r3, #0
 8000ff8:	d000      	beq.n	8000ffc <PCD_EP_ISR_Handler+0x34>
 8000ffa:	e18f      	b.n	800131c <PCD_EP_ISR_Handler+0x354>
    {
      /* Decode and service control endpoint interrupt */

      /* DIR bit = origin of the interrupt */
      if ((wIstr & USB_ISTR_DIR) == 0U)
 8000ffc:	183b      	adds	r3, r7, r0
 8000ffe:	881b      	ldrh	r3, [r3, #0]
 8001000:	2210      	movs	r2, #16
 8001002:	4013      	ands	r3, r2
 8001004:	d155      	bne.n	80010b2 <PCD_EP_ISR_Handler+0xea>
      {
        /* DIR = 0 */

        /* DIR = 0 => IN  int */
        /* DIR = 0 implies that (EP_CTR_TX = 1) always */
        PCD_CLEAR_TX_EP_CTR(hpcd->Instance, PCD_ENDP0);
 8001006:	687b      	ldr	r3, [r7, #4]
 8001008:	681b      	ldr	r3, [r3, #0]
 800100a:	881b      	ldrh	r3, [r3, #0]
 800100c:	b29a      	uxth	r2, r3
 800100e:	200e      	movs	r0, #14
 8001010:	183b      	adds	r3, r7, r0
 8001012:	49bb      	ldr	r1, [pc, #748]	; (8001300 <PCD_EP_ISR_Handler+0x338>)
 8001014:	400a      	ands	r2, r1
 8001016:	801a      	strh	r2, [r3, #0]
 8001018:	687b      	ldr	r3, [r7, #4]
 800101a:	681b      	ldr	r3, [r3, #0]
 800101c:	183a      	adds	r2, r7, r0
 800101e:	8812      	ldrh	r2, [r2, #0]
 8001020:	49b8      	ldr	r1, [pc, #736]	; (8001304 <PCD_EP_ISR_Handler+0x33c>)
 8001022:	430a      	orrs	r2, r1
 8001024:	b292      	uxth	r2, r2
 8001026:	801a      	strh	r2, [r3, #0]
        ep = &hpcd->IN_ep[0];
 8001028:	687b      	ldr	r3, [r7, #4]
 800102a:	3328      	adds	r3, #40	; 0x28
 800102c:	657b      	str	r3, [r7, #84]	; 0x54

        ep->xfer_count = PCD_GET_EP_TX_CNT(hpcd->Instance, ep->num);
 800102e:	687b      	ldr	r3, [r7, #4]
 8001030:	681b      	ldr	r3, [r3, #0]
 8001032:	2250      	movs	r2, #80	; 0x50
 8001034:	5a9b      	ldrh	r3, [r3, r2]
 8001036:	b29b      	uxth	r3, r3
 8001038:	001a      	movs	r2, r3
 800103a:	6d7b      	ldr	r3, [r7, #84]	; 0x54
 800103c:	781b      	ldrb	r3, [r3, #0]
 800103e:	00db      	lsls	r3, r3, #3
 8001040:	18d2      	adds	r2, r2, r3
 8001042:	687b      	ldr	r3, [r7, #4]
 8001044:	681b      	ldr	r3, [r3, #0]
 8001046:	18d3      	adds	r3, r2, r3
 8001048:	4aaf      	ldr	r2, [pc, #700]	; (8001308 <PCD_EP_ISR_Handler+0x340>)
 800104a:	4694      	mov	ip, r2
 800104c:	4463      	add	r3, ip
 800104e:	881b      	ldrh	r3, [r3, #0]
 8001050:	059b      	lsls	r3, r3, #22
 8001052:	0d9a      	lsrs	r2, r3, #22
 8001054:	6d7b      	ldr	r3, [r7, #84]	; 0x54
 8001056:	61da      	str	r2, [r3, #28]
        ep->xfer_buff += ep->xfer_count;
 8001058:	6d7b      	ldr	r3, [r7, #84]	; 0x54
 800105a:	695a      	ldr	r2, [r3, #20]
 800105c:	6d7b      	ldr	r3, [r7, #84]	; 0x54
 800105e:	69db      	ldr	r3, [r3, #28]
 8001060:	18d2      	adds	r2, r2, r3
 8001062:	6d7b      	ldr	r3, [r7, #84]	; 0x54
 8001064:	615a      	str	r2, [r3, #20]

        /* TX COMPLETE */
#if (USE_HAL_PCD_REGISTER_CALLBACKS == 1U)
        hpcd->DataInStageCallback(hpcd, 0U);
#else
        HAL_PCD_DataInStageCallback(hpcd, 0U);
 8001066:	687b      	ldr	r3, [r7, #4]
 8001068:	2100      	movs	r1, #0
 800106a:	0018      	movs	r0, r3
 800106c:	f005 fe08 	bl	8006c80 <HAL_PCD_DataInStageCallback>
#endif /* USE_HAL_PCD_REGISTER_CALLBACKS */

        if ((hpcd->USB_Address > 0U) && (ep->xfer_len == 0U))
 8001070:	687b      	ldr	r3, [r7, #4]
 8001072:	2224      	movs	r2, #36	; 0x24
 8001074:	5c9b      	ldrb	r3, [r3, r2]
 8001076:	b2db      	uxtb	r3, r3
 8001078:	2b00      	cmp	r3, #0
 800107a:	d101      	bne.n	8001080 <PCD_EP_ISR_Handler+0xb8>
 800107c:	f000 fb96 	bl	80017ac <PCD_EP_ISR_Handler+0x7e4>
 8001080:	6d7b      	ldr	r3, [r7, #84]	; 0x54
 8001082:	699b      	ldr	r3, [r3, #24]
 8001084:	2b00      	cmp	r3, #0
 8001086:	d001      	beq.n	800108c <PCD_EP_ISR_Handler+0xc4>
 8001088:	f000 fb90 	bl	80017ac <PCD_EP_ISR_Handler+0x7e4>
        {
          hpcd->Instance->DADDR = ((uint16_t)hpcd->USB_Address | USB_DADDR_EF);
 800108c:	687b      	ldr	r3, [r7, #4]
 800108e:	2224      	movs	r2, #36	; 0x24
 8001090:	5c9b      	ldrb	r3, [r3, r2]
 8001092:	b2db      	uxtb	r3, r3
 8001094:	2280      	movs	r2, #128	; 0x80
 8001096:	4252      	negs	r2, r2
 8001098:	4313      	orrs	r3, r2
 800109a:	b2da      	uxtb	r2, r3
 800109c:	687b      	ldr	r3, [r7, #4]
 800109e:	681b      	ldr	r3, [r3, #0]
 80010a0:	b291      	uxth	r1, r2
 80010a2:	224c      	movs	r2, #76	; 0x4c
 80010a4:	5299      	strh	r1, [r3, r2]
          hpcd->USB_Address = 0U;
 80010a6:	687b      	ldr	r3, [r7, #4]
 80010a8:	2224      	movs	r2, #36	; 0x24
 80010aa:	2100      	movs	r1, #0
 80010ac:	5499      	strb	r1, [r3, r2]
 80010ae:	f000 fb7d 	bl	80017ac <PCD_EP_ISR_Handler+0x7e4>
      {
        /* DIR = 1 */

        /* DIR = 1 & CTR_RX => SETUP or OUT int */
        /* DIR = 1 & (CTR_TX | CTR_RX) => 2 int pending */
        ep = &hpcd->OUT_ep[0];
 80010b2:	687b      	ldr	r3, [r7, #4]
 80010b4:	3369      	adds	r3, #105	; 0x69
 80010b6:	33ff      	adds	r3, #255	; 0xff
 80010b8:	657b      	str	r3, [r7, #84]	; 0x54
        wEPVal = PCD_GET_ENDPOINT(hpcd->Instance, PCD_ENDP0);
 80010ba:	687b      	ldr	r3, [r7, #4]
 80010bc:	681a      	ldr	r2, [r3, #0]
 80010be:	214a      	movs	r1, #74	; 0x4a
 80010c0:	187b      	adds	r3, r7, r1
 80010c2:	8812      	ldrh	r2, [r2, #0]
 80010c4:	801a      	strh	r2, [r3, #0]

        if ((wEPVal & USB_EP_SETUP) != 0U)
 80010c6:	187b      	adds	r3, r7, r1
 80010c8:	881a      	ldrh	r2, [r3, #0]
 80010ca:	2380      	movs	r3, #128	; 0x80
 80010cc:	011b      	lsls	r3, r3, #4
 80010ce:	4013      	ands	r3, r2
 80010d0:	d037      	beq.n	8001142 <PCD_EP_ISR_Handler+0x17a>
        {
          /* Get SETUP Packet */
          ep->xfer_count = PCD_GET_EP_RX_CNT(hpcd->Instance, ep->num);
 80010d2:	687b      	ldr	r3, [r7, #4]
 80010d4:	681b      	ldr	r3, [r3, #0]
 80010d6:	2250      	movs	r2, #80	; 0x50
 80010d8:	5a9b      	ldrh	r3, [r3, r2]
 80010da:	b29b      	uxth	r3, r3
 80010dc:	001a      	movs	r2, r3
 80010de:	6d7b      	ldr	r3, [r7, #84]	; 0x54
 80010e0:	781b      	ldrb	r3, [r3, #0]
 80010e2:	00db      	lsls	r3, r3, #3
 80010e4:	18d2      	adds	r2, r2, r3
 80010e6:	687b      	ldr	r3, [r7, #4]
 80010e8:	681b      	ldr	r3, [r3, #0]
 80010ea:	18d3      	adds	r3, r2, r3
 80010ec:	4a87      	ldr	r2, [pc, #540]	; (800130c <PCD_EP_ISR_Handler+0x344>)
 80010ee:	4694      	mov	ip, r2
 80010f0:	4463      	add	r3, ip
 80010f2:	881b      	ldrh	r3, [r3, #0]
 80010f4:	059b      	lsls	r3, r3, #22
 80010f6:	0d9a      	lsrs	r2, r3, #22
 80010f8:	6d7b      	ldr	r3, [r7, #84]	; 0x54
 80010fa:	61da      	str	r2, [r3, #28]

          USB_ReadPMA(hpcd->Instance, (uint8_t *)hpcd->Setup,
 80010fc:	687b      	ldr	r3, [r7, #4]
 80010fe:	6818      	ldr	r0, [r3, #0]
 8001100:	687b      	ldr	r3, [r7, #4]
 8001102:	22ac      	movs	r2, #172	; 0xac
 8001104:	0092      	lsls	r2, r2, #2
 8001106:	1899      	adds	r1, r3, r2
 8001108:	6d7b      	ldr	r3, [r7, #84]	; 0x54
 800110a:	88da      	ldrh	r2, [r3, #6]
                      ep->pmaadress, (uint16_t)ep->xfer_count);
 800110c:	6d7b      	ldr	r3, [r7, #84]	; 0x54
 800110e:	69db      	ldr	r3, [r3, #28]
          USB_ReadPMA(hpcd->Instance, (uint8_t *)hpcd->Setup,
 8001110:	b29b      	uxth	r3, r3
 8001112:	f003 ff44 	bl	8004f9e <USB_ReadPMA>

          /* SETUP bit kept frozen while CTR_RX = 1 */
          PCD_CLEAR_RX_EP_CTR(hpcd->Instance, PCD_ENDP0);
 8001116:	687b      	ldr	r3, [r7, #4]
 8001118:	681b      	ldr	r3, [r3, #0]
 800111a:	881b      	ldrh	r3, [r3, #0]
 800111c:	b29a      	uxth	r2, r3
 800111e:	2010      	movs	r0, #16
 8001120:	183b      	adds	r3, r7, r0
 8001122:	497b      	ldr	r1, [pc, #492]	; (8001310 <PCD_EP_ISR_Handler+0x348>)
 8001124:	400a      	ands	r2, r1
 8001126:	801a      	strh	r2, [r3, #0]
 8001128:	687b      	ldr	r3, [r7, #4]
 800112a:	681b      	ldr	r3, [r3, #0]
 800112c:	183a      	adds	r2, r7, r0
 800112e:	8812      	ldrh	r2, [r2, #0]
 8001130:	2180      	movs	r1, #128	; 0x80
 8001132:	430a      	orrs	r2, r1
 8001134:	b292      	uxth	r2, r2
 8001136:	801a      	strh	r2, [r3, #0]

          /* Process SETUP Packet*/
#if (USE_HAL_PCD_REGISTER_CALLBACKS == 1U)
          hpcd->SetupStageCallback(hpcd);
#else
          HAL_PCD_SetupStageCallback(hpcd);
 8001138:	687b      	ldr	r3, [r7, #4]
 800113a:	0018      	movs	r0, r3
 800113c:	f005 fd6a 	bl	8006c14 <HAL_PCD_SetupStageCallback>
 8001140:	e334      	b.n	80017ac <PCD_EP_ISR_Handler+0x7e4>
#endif /* USE_HAL_PCD_REGISTER_CALLBACKS */
        }
        else if ((wEPVal & USB_EP_CTR_RX) != 0U)
 8001142:	234a      	movs	r3, #74	; 0x4a
 8001144:	18fb      	adds	r3, r7, r3
 8001146:	2200      	movs	r2, #0
 8001148:	5e9b      	ldrsh	r3, [r3, r2]
 800114a:	2b00      	cmp	r3, #0
 800114c:	db00      	blt.n	8001150 <PCD_EP_ISR_Handler+0x188>
 800114e:	e32d      	b.n	80017ac <PCD_EP_ISR_Handler+0x7e4>
        {
          PCD_CLEAR_RX_EP_CTR(hpcd->Instance, PCD_ENDP0);
 8001150:	687b      	ldr	r3, [r7, #4]
 8001152:	681b      	ldr	r3, [r3, #0]
 8001154:	881b      	ldrh	r3, [r3, #0]
 8001156:	b29a      	uxth	r2, r3
 8001158:	201e      	movs	r0, #30
 800115a:	183b      	adds	r3, r7, r0
 800115c:	496c      	ldr	r1, [pc, #432]	; (8001310 <PCD_EP_ISR_Handler+0x348>)
 800115e:	400a      	ands	r2, r1
 8001160:	801a      	strh	r2, [r3, #0]
 8001162:	687b      	ldr	r3, [r7, #4]
 8001164:	681b      	ldr	r3, [r3, #0]
 8001166:	183a      	adds	r2, r7, r0
 8001168:	8812      	ldrh	r2, [r2, #0]
 800116a:	2180      	movs	r1, #128	; 0x80
 800116c:	430a      	orrs	r2, r1
 800116e:	b292      	uxth	r2, r2
 8001170:	801a      	strh	r2, [r3, #0]

          /* Get Control Data OUT Packet */
          ep->xfer_count = PCD_GET_EP_RX_CNT(hpcd->Instance, ep->num);
 8001172:	687b      	ldr	r3, [r7, #4]
 8001174:	681b      	ldr	r3, [r3, #0]
 8001176:	2250      	movs	r2, #80	; 0x50
 8001178:	5a9b      	ldrh	r3, [r3, r2]
 800117a:	b29b      	uxth	r3, r3
 800117c:	001a      	movs	r2, r3
 800117e:	6d7b      	ldr	r3, [r7, #84]	; 0x54
 8001180:	781b      	ldrb	r3, [r3, #0]
 8001182:	00db      	lsls	r3, r3, #3
 8001184:	18d2      	adds	r2, r2, r3
 8001186:	687b      	ldr	r3, [r7, #4]
 8001188:	681b      	ldr	r3, [r3, #0]
 800118a:	18d3      	adds	r3, r2, r3
 800118c:	4a5f      	ldr	r2, [pc, #380]	; (800130c <PCD_EP_ISR_Handler+0x344>)
 800118e:	4694      	mov	ip, r2
 8001190:	4463      	add	r3, ip
 8001192:	881b      	ldrh	r3, [r3, #0]
 8001194:	059b      	lsls	r3, r3, #22
 8001196:	0d9a      	lsrs	r2, r3, #22
 8001198:	6d7b      	ldr	r3, [r7, #84]	; 0x54
 800119a:	61da      	str	r2, [r3, #28]

          if ((ep->xfer_count != 0U) && (ep->xfer_buff != 0U))
 800119c:	6d7b      	ldr	r3, [r7, #84]	; 0x54
 800119e:	69db      	ldr	r3, [r3, #28]
 80011a0:	2b00      	cmp	r3, #0
 80011a2:	d01a      	beq.n	80011da <PCD_EP_ISR_Handler+0x212>
 80011a4:	6d7b      	ldr	r3, [r7, #84]	; 0x54
 80011a6:	695b      	ldr	r3, [r3, #20]
 80011a8:	2b00      	cmp	r3, #0
 80011aa:	d016      	beq.n	80011da <PCD_EP_ISR_Handler+0x212>
          {
            USB_ReadPMA(hpcd->Instance, ep->xfer_buff,
 80011ac:	687b      	ldr	r3, [r7, #4]
 80011ae:	6818      	ldr	r0, [r3, #0]
 80011b0:	6d7b      	ldr	r3, [r7, #84]	; 0x54
 80011b2:	6959      	ldr	r1, [r3, #20]
 80011b4:	6d7b      	ldr	r3, [r7, #84]	; 0x54
 80011b6:	88da      	ldrh	r2, [r3, #6]
                        ep->pmaadress, (uint16_t)ep->xfer_count);
 80011b8:	6d7b      	ldr	r3, [r7, #84]	; 0x54
 80011ba:	69db      	ldr	r3, [r3, #28]
            USB_ReadPMA(hpcd->Instance, ep->xfer_buff,
 80011bc:	b29b      	uxth	r3, r3
 80011be:	f003 feee 	bl	8004f9e <USB_ReadPMA>

            ep->xfer_buff += ep->xfer_count;
 80011c2:	6d7b      	ldr	r3, [r7, #84]	; 0x54
 80011c4:	695a      	ldr	r2, [r3, #20]
 80011c6:	6d7b      	ldr	r3, [r7, #84]	; 0x54
 80011c8:	69db      	ldr	r3, [r3, #28]
 80011ca:	18d2      	adds	r2, r2, r3
 80011cc:	6d7b      	ldr	r3, [r7, #84]	; 0x54
 80011ce:	615a      	str	r2, [r3, #20]

            /* Process Control Data OUT Packet */
#if (USE_HAL_PCD_REGISTER_CALLBACKS == 1U)
            hpcd->DataOutStageCallback(hpcd, 0U);
#else
            HAL_PCD_DataOutStageCallback(hpcd, 0U);
 80011d0:	687b      	ldr	r3, [r7, #4]
 80011d2:	2100      	movs	r1, #0
 80011d4:	0018      	movs	r0, r3
 80011d6:	f005 fd32 	bl	8006c3e <HAL_PCD_DataOutStageCallback>
#endif /* USE_HAL_PCD_REGISTER_CALLBACKS */
          }

          wEPVal = (uint16_t)PCD_GET_ENDPOINT(hpcd->Instance, PCD_ENDP0);
 80011da:	687b      	ldr	r3, [r7, #4]
 80011dc:	681a      	ldr	r2, [r3, #0]
 80011de:	214a      	movs	r1, #74	; 0x4a
 80011e0:	187b      	adds	r3, r7, r1
 80011e2:	8812      	ldrh	r2, [r2, #0]
 80011e4:	801a      	strh	r2, [r3, #0]

          if (((wEPVal & USB_EP_SETUP) == 0U) && ((wEPVal & USB_EP_RX_STRX) != USB_EP_RX_VALID))
 80011e6:	187b      	adds	r3, r7, r1
 80011e8:	881a      	ldrh	r2, [r3, #0]
 80011ea:	2380      	movs	r3, #128	; 0x80
 80011ec:	011b      	lsls	r3, r3, #4
 80011ee:	4013      	ands	r3, r2
 80011f0:	d000      	beq.n	80011f4 <PCD_EP_ISR_Handler+0x22c>
 80011f2:	e2db      	b.n	80017ac <PCD_EP_ISR_Handler+0x7e4>
 80011f4:	187b      	adds	r3, r7, r1
 80011f6:	881a      	ldrh	r2, [r3, #0]
 80011f8:	23c0      	movs	r3, #192	; 0xc0
 80011fa:	019b      	lsls	r3, r3, #6
 80011fc:	401a      	ands	r2, r3
 80011fe:	23c0      	movs	r3, #192	; 0xc0
 8001200:	019b      	lsls	r3, r3, #6
 8001202:	429a      	cmp	r2, r3
 8001204:	d100      	bne.n	8001208 <PCD_EP_ISR_Handler+0x240>
 8001206:	e2d1      	b.n	80017ac <PCD_EP_ISR_Handler+0x7e4>
          {
            PCD_SET_EP_RX_CNT(hpcd->Instance, PCD_ENDP0, ep->maxpacket);
 8001208:	687b      	ldr	r3, [r7, #4]
 800120a:	681b      	ldr	r3, [r3, #0]
 800120c:	61bb      	str	r3, [r7, #24]
 800120e:	687b      	ldr	r3, [r7, #4]
 8001210:	681b      	ldr	r3, [r3, #0]
 8001212:	2250      	movs	r2, #80	; 0x50
 8001214:	5a9b      	ldrh	r3, [r3, r2]
 8001216:	b29b      	uxth	r3, r3
 8001218:	001a      	movs	r2, r3
 800121a:	69bb      	ldr	r3, [r7, #24]
 800121c:	189b      	adds	r3, r3, r2
 800121e:	61bb      	str	r3, [r7, #24]
 8001220:	69bb      	ldr	r3, [r7, #24]
 8001222:	4a3a      	ldr	r2, [pc, #232]	; (800130c <PCD_EP_ISR_Handler+0x344>)
 8001224:	4694      	mov	ip, r2
 8001226:	4463      	add	r3, ip
 8001228:	617b      	str	r3, [r7, #20]
 800122a:	697b      	ldr	r3, [r7, #20]
 800122c:	881b      	ldrh	r3, [r3, #0]
 800122e:	b29b      	uxth	r3, r3
 8001230:	059b      	lsls	r3, r3, #22
 8001232:	0d9b      	lsrs	r3, r3, #22
 8001234:	b29a      	uxth	r2, r3
 8001236:	697b      	ldr	r3, [r7, #20]
 8001238:	801a      	strh	r2, [r3, #0]
 800123a:	6d7b      	ldr	r3, [r7, #84]	; 0x54
 800123c:	691b      	ldr	r3, [r3, #16]
 800123e:	2b3e      	cmp	r3, #62	; 0x3e
 8001240:	d91a      	bls.n	8001278 <PCD_EP_ISR_Handler+0x2b0>
 8001242:	6d7b      	ldr	r3, [r7, #84]	; 0x54
 8001244:	691b      	ldr	r3, [r3, #16]
 8001246:	095b      	lsrs	r3, r3, #5
 8001248:	647b      	str	r3, [r7, #68]	; 0x44
 800124a:	6d7b      	ldr	r3, [r7, #84]	; 0x54
 800124c:	691b      	ldr	r3, [r3, #16]
 800124e:	221f      	movs	r2, #31
 8001250:	4013      	ands	r3, r2
 8001252:	d102      	bne.n	800125a <PCD_EP_ISR_Handler+0x292>
 8001254:	6c7b      	ldr	r3, [r7, #68]	; 0x44
 8001256:	3b01      	subs	r3, #1
 8001258:	647b      	str	r3, [r7, #68]	; 0x44
 800125a:	697b      	ldr	r3, [r7, #20]
 800125c:	881b      	ldrh	r3, [r3, #0]
 800125e:	b29a      	uxth	r2, r3
 8001260:	6c7b      	ldr	r3, [r7, #68]	; 0x44
 8001262:	b29b      	uxth	r3, r3
 8001264:	029b      	lsls	r3, r3, #10
 8001266:	b29b      	uxth	r3, r3
 8001268:	4313      	orrs	r3, r2
 800126a:	b29b      	uxth	r3, r3
 800126c:	4a25      	ldr	r2, [pc, #148]	; (8001304 <PCD_EP_ISR_Handler+0x33c>)
 800126e:	4313      	orrs	r3, r2
 8001270:	b29a      	uxth	r2, r3
 8001272:	697b      	ldr	r3, [r7, #20]
 8001274:	801a      	strh	r2, [r3, #0]
 8001276:	e023      	b.n	80012c0 <PCD_EP_ISR_Handler+0x2f8>
 8001278:	6d7b      	ldr	r3, [r7, #84]	; 0x54
 800127a:	691b      	ldr	r3, [r3, #16]
 800127c:	2b00      	cmp	r3, #0
 800127e:	d108      	bne.n	8001292 <PCD_EP_ISR_Handler+0x2ca>
 8001280:	697b      	ldr	r3, [r7, #20]
 8001282:	881b      	ldrh	r3, [r3, #0]
 8001284:	b29b      	uxth	r3, r3
 8001286:	4a1f      	ldr	r2, [pc, #124]	; (8001304 <PCD_EP_ISR_Handler+0x33c>)
 8001288:	4313      	orrs	r3, r2
 800128a:	b29a      	uxth	r2, r3
 800128c:	697b      	ldr	r3, [r7, #20]
 800128e:	801a      	strh	r2, [r3, #0]
 8001290:	e016      	b.n	80012c0 <PCD_EP_ISR_Handler+0x2f8>
 8001292:	6d7b      	ldr	r3, [r7, #84]	; 0x54
 8001294:	691b      	ldr	r3, [r3, #16]
 8001296:	085b      	lsrs	r3, r3, #1
 8001298:	647b      	str	r3, [r7, #68]	; 0x44
 800129a:	6d7b      	ldr	r3, [r7, #84]	; 0x54
 800129c:	691b      	ldr	r3, [r3, #16]
 800129e:	2201      	movs	r2, #1
 80012a0:	4013      	ands	r3, r2
 80012a2:	d002      	beq.n	80012aa <PCD_EP_ISR_Handler+0x2e2>
 80012a4:	6c7b      	ldr	r3, [r7, #68]	; 0x44
 80012a6:	3301      	adds	r3, #1
 80012a8:	647b      	str	r3, [r7, #68]	; 0x44
 80012aa:	697b      	ldr	r3, [r7, #20]
 80012ac:	881b      	ldrh	r3, [r3, #0]
 80012ae:	b29a      	uxth	r2, r3
 80012b0:	6c7b      	ldr	r3, [r7, #68]	; 0x44
 80012b2:	b29b      	uxth	r3, r3
 80012b4:	029b      	lsls	r3, r3, #10
 80012b6:	b29b      	uxth	r3, r3
 80012b8:	4313      	orrs	r3, r2
 80012ba:	b29a      	uxth	r2, r3
 80012bc:	697b      	ldr	r3, [r7, #20]
 80012be:	801a      	strh	r2, [r3, #0]
            PCD_SET_EP_RX_STATUS(hpcd->Instance, PCD_ENDP0, USB_EP_RX_VALID);
 80012c0:	687b      	ldr	r3, [r7, #4]
 80012c2:	681b      	ldr	r3, [r3, #0]
 80012c4:	881b      	ldrh	r3, [r3, #0]
 80012c6:	b29a      	uxth	r2, r3
 80012c8:	2012      	movs	r0, #18
 80012ca:	183b      	adds	r3, r7, r0
 80012cc:	4911      	ldr	r1, [pc, #68]	; (8001314 <PCD_EP_ISR_Handler+0x34c>)
 80012ce:	400a      	ands	r2, r1
 80012d0:	801a      	strh	r2, [r3, #0]
 80012d2:	183b      	adds	r3, r7, r0
 80012d4:	183a      	adds	r2, r7, r0
 80012d6:	8812      	ldrh	r2, [r2, #0]
 80012d8:	2180      	movs	r1, #128	; 0x80
 80012da:	0149      	lsls	r1, r1, #5
 80012dc:	404a      	eors	r2, r1
 80012de:	801a      	strh	r2, [r3, #0]
 80012e0:	183b      	adds	r3, r7, r0
 80012e2:	183a      	adds	r2, r7, r0
 80012e4:	8812      	ldrh	r2, [r2, #0]
 80012e6:	2180      	movs	r1, #128	; 0x80
 80012e8:	0189      	lsls	r1, r1, #6
 80012ea:	404a      	eors	r2, r1
 80012ec:	801a      	strh	r2, [r3, #0]
 80012ee:	687b      	ldr	r3, [r7, #4]
 80012f0:	681b      	ldr	r3, [r3, #0]
 80012f2:	183a      	adds	r2, r7, r0
 80012f4:	8812      	ldrh	r2, [r2, #0]
 80012f6:	4908      	ldr	r1, [pc, #32]	; (8001318 <PCD_EP_ISR_Handler+0x350>)
 80012f8:	430a      	orrs	r2, r1
 80012fa:	b292      	uxth	r2, r2
 80012fc:	801a      	strh	r2, [r3, #0]
 80012fe:	e255      	b.n	80017ac <PCD_EP_ISR_Handler+0x7e4>
 8001300:	ffff8f0f 	.word	0xffff8f0f
 8001304:	ffff8000 	.word	0xffff8000
 8001308:	00000402 	.word	0x00000402
 800130c:	00000406 	.word	0x00000406
 8001310:	00000f8f 	.word	0x00000f8f
 8001314:	ffffbf8f 	.word	0xffffbf8f
 8001318:	ffff8080 	.word	0xffff8080
    }
    else
    {
      /* Decode and service non control endpoints interrupt */
      /* process related endpoint register */
      wEPVal = PCD_GET_ENDPOINT(hpcd->Instance, epindex);
 800131c:	687b      	ldr	r3, [r7, #4]
 800131e:	681b      	ldr	r3, [r3, #0]
 8001320:	001a      	movs	r2, r3
 8001322:	204d      	movs	r0, #77	; 0x4d
 8001324:	183b      	adds	r3, r7, r0
 8001326:	781b      	ldrb	r3, [r3, #0]
 8001328:	009b      	lsls	r3, r3, #2
 800132a:	18d2      	adds	r2, r2, r3
 800132c:	214a      	movs	r1, #74	; 0x4a
 800132e:	187b      	adds	r3, r7, r1
 8001330:	8812      	ldrh	r2, [r2, #0]
 8001332:	801a      	strh	r2, [r3, #0]

      if ((wEPVal & USB_EP_CTR_RX) != 0U)
 8001334:	187b      	adds	r3, r7, r1
 8001336:	2200      	movs	r2, #0
 8001338:	5e9b      	ldrsh	r3, [r3, r2]
 800133a:	2b00      	cmp	r3, #0
 800133c:	db00      	blt.n	8001340 <PCD_EP_ISR_Handler+0x378>
 800133e:	e0fa      	b.n	8001536 <PCD_EP_ISR_Handler+0x56e>
      {
        /* clear int flag */
        PCD_CLEAR_RX_EP_CTR(hpcd->Instance, epindex);
 8001340:	687b      	ldr	r3, [r7, #4]
 8001342:	681b      	ldr	r3, [r3, #0]
 8001344:	001a      	movs	r2, r3
 8001346:	183b      	adds	r3, r7, r0
 8001348:	781b      	ldrb	r3, [r3, #0]
 800134a:	009b      	lsls	r3, r3, #2
 800134c:	18d3      	adds	r3, r2, r3
 800134e:	881b      	ldrh	r3, [r3, #0]
 8001350:	b29a      	uxth	r2, r3
 8001352:	2448      	movs	r4, #72	; 0x48
 8001354:	193b      	adds	r3, r7, r4
 8001356:	49d1      	ldr	r1, [pc, #836]	; (800169c <PCD_EP_ISR_Handler+0x6d4>)
 8001358:	400a      	ands	r2, r1
 800135a:	801a      	strh	r2, [r3, #0]
 800135c:	687b      	ldr	r3, [r7, #4]
 800135e:	681b      	ldr	r3, [r3, #0]
 8001360:	001a      	movs	r2, r3
 8001362:	183b      	adds	r3, r7, r0
 8001364:	781b      	ldrb	r3, [r3, #0]
 8001366:	009b      	lsls	r3, r3, #2
 8001368:	18d3      	adds	r3, r2, r3
 800136a:	193a      	adds	r2, r7, r4
 800136c:	8812      	ldrh	r2, [r2, #0]
 800136e:	2180      	movs	r1, #128	; 0x80
 8001370:	430a      	orrs	r2, r1
 8001372:	b292      	uxth	r2, r2
 8001374:	801a      	strh	r2, [r3, #0]
        ep = &hpcd->OUT_ep[epindex];
 8001376:	183b      	adds	r3, r7, r0
 8001378:	781a      	ldrb	r2, [r3, #0]
 800137a:	0013      	movs	r3, r2
 800137c:	009b      	lsls	r3, r3, #2
 800137e:	189b      	adds	r3, r3, r2
 8001380:	00db      	lsls	r3, r3, #3
 8001382:	3369      	adds	r3, #105	; 0x69
 8001384:	33ff      	adds	r3, #255	; 0xff
 8001386:	687a      	ldr	r2, [r7, #4]
 8001388:	18d3      	adds	r3, r2, r3
 800138a:	657b      	str	r3, [r7, #84]	; 0x54

        /* OUT Single Buffering */
        if (ep->doublebuffer == 0U)
 800138c:	6d7b      	ldr	r3, [r7, #84]	; 0x54
 800138e:	7b1b      	ldrb	r3, [r3, #12]
 8001390:	2b00      	cmp	r3, #0
 8001392:	d125      	bne.n	80013e0 <PCD_EP_ISR_Handler+0x418>
        {
          count = (uint16_t)PCD_GET_EP_RX_CNT(hpcd->Instance, ep->num);
 8001394:	687b      	ldr	r3, [r7, #4]
 8001396:	681b      	ldr	r3, [r3, #0]
 8001398:	2250      	movs	r2, #80	; 0x50
 800139a:	5a9b      	ldrh	r3, [r3, r2]
 800139c:	b29b      	uxth	r3, r3
 800139e:	001a      	movs	r2, r3
 80013a0:	6d7b      	ldr	r3, [r7, #84]	; 0x54
 80013a2:	781b      	ldrb	r3, [r3, #0]
 80013a4:	00db      	lsls	r3, r3, #3
 80013a6:	18d2      	adds	r2, r2, r3
 80013a8:	687b      	ldr	r3, [r7, #4]
 80013aa:	681b      	ldr	r3, [r3, #0]
 80013ac:	18d3      	adds	r3, r2, r3
 80013ae:	4abc      	ldr	r2, [pc, #752]	; (80016a0 <PCD_EP_ISR_Handler+0x6d8>)
 80013b0:	4694      	mov	ip, r2
 80013b2:	4463      	add	r3, ip
 80013b4:	881a      	ldrh	r2, [r3, #0]
 80013b6:	2450      	movs	r4, #80	; 0x50
 80013b8:	193b      	adds	r3, r7, r4
 80013ba:	0592      	lsls	r2, r2, #22
 80013bc:	0d92      	lsrs	r2, r2, #22
 80013be:	801a      	strh	r2, [r3, #0]

          if (count != 0U)
 80013c0:	193b      	adds	r3, r7, r4
 80013c2:	881b      	ldrh	r3, [r3, #0]
 80013c4:	2b00      	cmp	r3, #0
 80013c6:	d100      	bne.n	80013ca <PCD_EP_ISR_Handler+0x402>
 80013c8:	e08d      	b.n	80014e6 <PCD_EP_ISR_Handler+0x51e>
          {
            USB_ReadPMA(hpcd->Instance, ep->xfer_buff, ep->pmaadress, count);
 80013ca:	687b      	ldr	r3, [r7, #4]
 80013cc:	6818      	ldr	r0, [r3, #0]
 80013ce:	6d7b      	ldr	r3, [r7, #84]	; 0x54
 80013d0:	6959      	ldr	r1, [r3, #20]
 80013d2:	6d7b      	ldr	r3, [r7, #84]	; 0x54
 80013d4:	88da      	ldrh	r2, [r3, #6]
 80013d6:	193b      	adds	r3, r7, r4
 80013d8:	881b      	ldrh	r3, [r3, #0]
 80013da:	f003 fde0 	bl	8004f9e <USB_ReadPMA>
 80013de:	e082      	b.n	80014e6 <PCD_EP_ISR_Handler+0x51e>
        }
#if (USE_USB_DOUBLE_BUFFER == 1U)
        else
        {
          /* manage double buffer bulk out */
          if (ep->type == EP_TYPE_BULK)
 80013e0:	6d7b      	ldr	r3, [r7, #84]	; 0x54
 80013e2:	78db      	ldrb	r3, [r3, #3]
 80013e4:	2b02      	cmp	r3, #2
 80013e6:	d10c      	bne.n	8001402 <PCD_EP_ISR_Handler+0x43a>
          {
            count = HAL_PCD_EP_DB_Receive(hpcd, ep, wEPVal);
 80013e8:	2350      	movs	r3, #80	; 0x50
 80013ea:	18fc      	adds	r4, r7, r3
 80013ec:	234a      	movs	r3, #74	; 0x4a
 80013ee:	18fb      	adds	r3, r7, r3
 80013f0:	881a      	ldrh	r2, [r3, #0]
 80013f2:	6d79      	ldr	r1, [r7, #84]	; 0x54
 80013f4:	687b      	ldr	r3, [r7, #4]
 80013f6:	0018      	movs	r0, r3
 80013f8:	f000 f9ec 	bl	80017d4 <HAL_PCD_EP_DB_Receive>
 80013fc:	0003      	movs	r3, r0
 80013fe:	8023      	strh	r3, [r4, #0]
 8001400:	e071      	b.n	80014e6 <PCD_EP_ISR_Handler+0x51e>
          }
          else /* manage double buffer iso out */
          {
            /* free EP OUT Buffer */
            PCD_FREE_USER_BUFFER(hpcd->Instance, ep->num, 0U);
 8001402:	687b      	ldr	r3, [r7, #4]
 8001404:	681b      	ldr	r3, [r3, #0]
 8001406:	001a      	movs	r2, r3
 8001408:	6d7b      	ldr	r3, [r7, #84]	; 0x54
 800140a:	781b      	ldrb	r3, [r3, #0]
 800140c:	009b      	lsls	r3, r3, #2
 800140e:	18d3      	adds	r3, r2, r3
 8001410:	881b      	ldrh	r3, [r3, #0]
 8001412:	b29a      	uxth	r2, r3
 8001414:	2052      	movs	r0, #82	; 0x52
 8001416:	183b      	adds	r3, r7, r0
 8001418:	49a2      	ldr	r1, [pc, #648]	; (80016a4 <PCD_EP_ISR_Handler+0x6dc>)
 800141a:	400a      	ands	r2, r1
 800141c:	801a      	strh	r2, [r3, #0]
 800141e:	687b      	ldr	r3, [r7, #4]
 8001420:	681b      	ldr	r3, [r3, #0]
 8001422:	001a      	movs	r2, r3
 8001424:	6d7b      	ldr	r3, [r7, #84]	; 0x54
 8001426:	781b      	ldrb	r3, [r3, #0]
 8001428:	009b      	lsls	r3, r3, #2
 800142a:	18d3      	adds	r3, r2, r3
 800142c:	183a      	adds	r2, r7, r0
 800142e:	8812      	ldrh	r2, [r2, #0]
 8001430:	499d      	ldr	r1, [pc, #628]	; (80016a8 <PCD_EP_ISR_Handler+0x6e0>)
 8001432:	430a      	orrs	r2, r1
 8001434:	b292      	uxth	r2, r2
 8001436:	801a      	strh	r2, [r3, #0]

            if ((PCD_GET_ENDPOINT(hpcd->Instance, ep->num) & USB_EP_DTOG_RX) != 0U)
 8001438:	687b      	ldr	r3, [r7, #4]
 800143a:	681b      	ldr	r3, [r3, #0]
 800143c:	001a      	movs	r2, r3
 800143e:	6d7b      	ldr	r3, [r7, #84]	; 0x54
 8001440:	781b      	ldrb	r3, [r3, #0]
 8001442:	009b      	lsls	r3, r3, #2
 8001444:	18d3      	adds	r3, r2, r3
 8001446:	881b      	ldrh	r3, [r3, #0]
 8001448:	b29b      	uxth	r3, r3
 800144a:	001a      	movs	r2, r3
 800144c:	2380      	movs	r3, #128	; 0x80
 800144e:	01db      	lsls	r3, r3, #7
 8001450:	4013      	ands	r3, r2
 8001452:	d024      	beq.n	800149e <PCD_EP_ISR_Handler+0x4d6>
            {
              /* read from endpoint BUF0Addr buffer */
              count = (uint16_t)PCD_GET_EP_DBUF0_CNT(hpcd->Instance, ep->num);
 8001454:	687b      	ldr	r3, [r7, #4]
 8001456:	681b      	ldr	r3, [r3, #0]
 8001458:	2250      	movs	r2, #80	; 0x50
 800145a:	5a9b      	ldrh	r3, [r3, r2]
 800145c:	b29b      	uxth	r3, r3
 800145e:	001a      	movs	r2, r3
 8001460:	6d7b      	ldr	r3, [r7, #84]	; 0x54
 8001462:	781b      	ldrb	r3, [r3, #0]
 8001464:	00db      	lsls	r3, r3, #3
 8001466:	18d2      	adds	r2, r2, r3
 8001468:	687b      	ldr	r3, [r7, #4]
 800146a:	681b      	ldr	r3, [r3, #0]
 800146c:	18d3      	adds	r3, r2, r3
 800146e:	4a8f      	ldr	r2, [pc, #572]	; (80016ac <PCD_EP_ISR_Handler+0x6e4>)
 8001470:	4694      	mov	ip, r2
 8001472:	4463      	add	r3, ip
 8001474:	881a      	ldrh	r2, [r3, #0]
 8001476:	2450      	movs	r4, #80	; 0x50
 8001478:	193b      	adds	r3, r7, r4
 800147a:	0592      	lsls	r2, r2, #22
 800147c:	0d92      	lsrs	r2, r2, #22
 800147e:	801a      	strh	r2, [r3, #0]

              if (count != 0U)
 8001480:	193b      	adds	r3, r7, r4
 8001482:	881b      	ldrh	r3, [r3, #0]
 8001484:	2b00      	cmp	r3, #0
 8001486:	d02e      	beq.n	80014e6 <PCD_EP_ISR_Handler+0x51e>
              {
                USB_ReadPMA(hpcd->Instance, ep->xfer_buff, ep->pmaaddr0, count);
 8001488:	687b      	ldr	r3, [r7, #4]
 800148a:	6818      	ldr	r0, [r3, #0]
 800148c:	6d7b      	ldr	r3, [r7, #84]	; 0x54
 800148e:	6959      	ldr	r1, [r3, #20]
 8001490:	6d7b      	ldr	r3, [r7, #84]	; 0x54
 8001492:	891a      	ldrh	r2, [r3, #8]
 8001494:	193b      	adds	r3, r7, r4
 8001496:	881b      	ldrh	r3, [r3, #0]
 8001498:	f003 fd81 	bl	8004f9e <USB_ReadPMA>
 800149c:	e023      	b.n	80014e6 <PCD_EP_ISR_Handler+0x51e>
              }
            }
            else
            {
              /* read from endpoint BUF1Addr buffer */
              count = (uint16_t)PCD_GET_EP_DBUF1_CNT(hpcd->Instance, ep->num);
 800149e:	687b      	ldr	r3, [r7, #4]
 80014a0:	681b      	ldr	r3, [r3, #0]
 80014a2:	2250      	movs	r2, #80	; 0x50
 80014a4:	5a9b      	ldrh	r3, [r3, r2]
 80014a6:	b29b      	uxth	r3, r3
 80014a8:	001a      	movs	r2, r3
 80014aa:	6d7b      	ldr	r3, [r7, #84]	; 0x54
 80014ac:	781b      	ldrb	r3, [r3, #0]
 80014ae:	00db      	lsls	r3, r3, #3
 80014b0:	18d2      	adds	r2, r2, r3
 80014b2:	687b      	ldr	r3, [r7, #4]
 80014b4:	681b      	ldr	r3, [r3, #0]
 80014b6:	18d3      	adds	r3, r2, r3
 80014b8:	4a79      	ldr	r2, [pc, #484]	; (80016a0 <PCD_EP_ISR_Handler+0x6d8>)
 80014ba:	4694      	mov	ip, r2
 80014bc:	4463      	add	r3, ip
 80014be:	881a      	ldrh	r2, [r3, #0]
 80014c0:	2450      	movs	r4, #80	; 0x50
 80014c2:	193b      	adds	r3, r7, r4
 80014c4:	0592      	lsls	r2, r2, #22
 80014c6:	0d92      	lsrs	r2, r2, #22
 80014c8:	801a      	strh	r2, [r3, #0]

              if (count != 0U)
 80014ca:	193b      	adds	r3, r7, r4
 80014cc:	881b      	ldrh	r3, [r3, #0]
 80014ce:	2b00      	cmp	r3, #0
 80014d0:	d009      	beq.n	80014e6 <PCD_EP_ISR_Handler+0x51e>
              {
                USB_ReadPMA(hpcd->Instance, ep->xfer_buff, ep->pmaaddr1, count);
 80014d2:	687b      	ldr	r3, [r7, #4]
 80014d4:	6818      	ldr	r0, [r3, #0]
 80014d6:	6d7b      	ldr	r3, [r7, #84]	; 0x54
 80014d8:	6959      	ldr	r1, [r3, #20]
 80014da:	6d7b      	ldr	r3, [r7, #84]	; 0x54
 80014dc:	895a      	ldrh	r2, [r3, #10]
 80014de:	193b      	adds	r3, r7, r4
 80014e0:	881b      	ldrh	r3, [r3, #0]
 80014e2:	f003 fd5c 	bl	8004f9e <USB_ReadPMA>
          }
        }
#endif /* (USE_USB_DOUBLE_BUFFER == 1U) */

        /* multi-packet on the NON control OUT endpoint */
        ep->xfer_count += count;
 80014e6:	6d7b      	ldr	r3, [r7, #84]	; 0x54
 80014e8:	69da      	ldr	r2, [r3, #28]
 80014ea:	2150      	movs	r1, #80	; 0x50
 80014ec:	187b      	adds	r3, r7, r1
 80014ee:	881b      	ldrh	r3, [r3, #0]
 80014f0:	18d2      	adds	r2, r2, r3
 80014f2:	6d7b      	ldr	r3, [r7, #84]	; 0x54
 80014f4:	61da      	str	r2, [r3, #28]
        ep->xfer_buff += count;
 80014f6:	6d7b      	ldr	r3, [r7, #84]	; 0x54
 80014f8:	695a      	ldr	r2, [r3, #20]
 80014fa:	187b      	adds	r3, r7, r1
 80014fc:	881b      	ldrh	r3, [r3, #0]
 80014fe:	18d2      	adds	r2, r2, r3
 8001500:	6d7b      	ldr	r3, [r7, #84]	; 0x54
 8001502:	615a      	str	r2, [r3, #20]

        if ((ep->xfer_len == 0U) || (count < ep->maxpacket))
 8001504:	6d7b      	ldr	r3, [r7, #84]	; 0x54
 8001506:	699b      	ldr	r3, [r3, #24]
 8001508:	2b00      	cmp	r3, #0
 800150a:	d005      	beq.n	8001518 <PCD_EP_ISR_Handler+0x550>
 800150c:	187b      	adds	r3, r7, r1
 800150e:	881a      	ldrh	r2, [r3, #0]
 8001510:	6d7b      	ldr	r3, [r7, #84]	; 0x54
 8001512:	691b      	ldr	r3, [r3, #16]
 8001514:	429a      	cmp	r2, r3
 8001516:	d207      	bcs.n	8001528 <PCD_EP_ISR_Handler+0x560>
        {
          /* RX COMPLETE */
#if (USE_HAL_PCD_REGISTER_CALLBACKS == 1U)
          hpcd->DataOutStageCallback(hpcd, ep->num);
#else
          HAL_PCD_DataOutStageCallback(hpcd, ep->num);
 8001518:	6d7b      	ldr	r3, [r7, #84]	; 0x54
 800151a:	781a      	ldrb	r2, [r3, #0]
 800151c:	687b      	ldr	r3, [r7, #4]
 800151e:	0011      	movs	r1, r2
 8001520:	0018      	movs	r0, r3
 8001522:	f005 fb8c 	bl	8006c3e <HAL_PCD_DataOutStageCallback>
 8001526:	e006      	b.n	8001536 <PCD_EP_ISR_Handler+0x56e>
#endif /* USE_HAL_PCD_REGISTER_CALLBACKS */
        }
        else
        {
          (void)USB_EPStartXfer(hpcd->Instance, ep);
 8001528:	687b      	ldr	r3, [r7, #4]
 800152a:	681b      	ldr	r3, [r3, #0]
 800152c:	6d7a      	ldr	r2, [r7, #84]	; 0x54
 800152e:	0011      	movs	r1, r2
 8001530:	0018      	movs	r0, r3
 8001532:	f002 fa79 	bl	8003a28 <USB_EPStartXfer>
        }
      }

      if ((wEPVal & USB_EP_CTR_TX) != 0U)
 8001536:	244a      	movs	r4, #74	; 0x4a
 8001538:	193b      	adds	r3, r7, r4
 800153a:	881b      	ldrh	r3, [r3, #0]
 800153c:	2280      	movs	r2, #128	; 0x80
 800153e:	4013      	ands	r3, r2
 8001540:	d100      	bne.n	8001544 <PCD_EP_ISR_Handler+0x57c>
 8001542:	e133      	b.n	80017ac <PCD_EP_ISR_Handler+0x7e4>
      {
        ep = &hpcd->IN_ep[epindex];
 8001544:	204d      	movs	r0, #77	; 0x4d
 8001546:	183b      	adds	r3, r7, r0
 8001548:	781b      	ldrb	r3, [r3, #0]
 800154a:	1c5a      	adds	r2, r3, #1
 800154c:	0013      	movs	r3, r2
 800154e:	009b      	lsls	r3, r3, #2
 8001550:	189b      	adds	r3, r3, r2
 8001552:	00db      	lsls	r3, r3, #3
 8001554:	687a      	ldr	r2, [r7, #4]
 8001556:	18d3      	adds	r3, r2, r3
 8001558:	657b      	str	r3, [r7, #84]	; 0x54

        /* clear int flag */
        PCD_CLEAR_TX_EP_CTR(hpcd->Instance, epindex);
 800155a:	687b      	ldr	r3, [r7, #4]
 800155c:	681b      	ldr	r3, [r3, #0]
 800155e:	001a      	movs	r2, r3
 8001560:	183b      	adds	r3, r7, r0
 8001562:	781b      	ldrb	r3, [r3, #0]
 8001564:	009b      	lsls	r3, r3, #2
 8001566:	18d3      	adds	r3, r2, r3
 8001568:	881b      	ldrh	r3, [r3, #0]
 800156a:	b29a      	uxth	r2, r3
 800156c:	2542      	movs	r5, #66	; 0x42
 800156e:	197b      	adds	r3, r7, r5
 8001570:	494f      	ldr	r1, [pc, #316]	; (80016b0 <PCD_EP_ISR_Handler+0x6e8>)
 8001572:	400a      	ands	r2, r1
 8001574:	801a      	strh	r2, [r3, #0]
 8001576:	687b      	ldr	r3, [r7, #4]
 8001578:	681b      	ldr	r3, [r3, #0]
 800157a:	001a      	movs	r2, r3
 800157c:	183b      	adds	r3, r7, r0
 800157e:	781b      	ldrb	r3, [r3, #0]
 8001580:	009b      	lsls	r3, r3, #2
 8001582:	18d3      	adds	r3, r2, r3
 8001584:	197a      	adds	r2, r7, r5
 8001586:	8812      	ldrh	r2, [r2, #0]
 8001588:	494a      	ldr	r1, [pc, #296]	; (80016b4 <PCD_EP_ISR_Handler+0x6ec>)
 800158a:	430a      	orrs	r2, r1
 800158c:	b292      	uxth	r2, r2
 800158e:	801a      	strh	r2, [r3, #0]

        if (ep->type == EP_TYPE_ISOC)
 8001590:	6d7b      	ldr	r3, [r7, #84]	; 0x54
 8001592:	78db      	ldrb	r3, [r3, #3]
 8001594:	2b01      	cmp	r3, #1
 8001596:	d000      	beq.n	800159a <PCD_EP_ISR_Handler+0x5d2>
 8001598:	e0af      	b.n	80016fa <PCD_EP_ISR_Handler+0x732>
        {
          ep->xfer_len = 0U;
 800159a:	6d7b      	ldr	r3, [r7, #84]	; 0x54
 800159c:	2200      	movs	r2, #0
 800159e:	619a      	str	r2, [r3, #24]

#if (USE_USB_DOUBLE_BUFFER == 1U)
          if (ep->doublebuffer != 0U)
 80015a0:	6d7b      	ldr	r3, [r7, #84]	; 0x54
 80015a2:	7b1b      	ldrb	r3, [r3, #12]
 80015a4:	2b00      	cmp	r3, #0
 80015a6:	d100      	bne.n	80015aa <PCD_EP_ISR_Handler+0x5e2>
 80015a8:	e09f      	b.n	80016ea <PCD_EP_ISR_Handler+0x722>
          {
            if ((wEPVal & USB_EP_DTOG_TX) != 0U)
 80015aa:	193b      	adds	r3, r7, r4
 80015ac:	881b      	ldrh	r3, [r3, #0]
 80015ae:	2240      	movs	r2, #64	; 0x40
 80015b0:	4013      	ands	r3, r2
 80015b2:	d046      	beq.n	8001642 <PCD_EP_ISR_Handler+0x67a>
            {
              PCD_SET_EP_DBUF0_CNT(hpcd->Instance, ep->num, ep->is_in, 0U);
 80015b4:	6d7b      	ldr	r3, [r7, #84]	; 0x54
 80015b6:	785b      	ldrb	r3, [r3, #1]
 80015b8:	2b00      	cmp	r3, #0
 80015ba:	d125      	bne.n	8001608 <PCD_EP_ISR_Handler+0x640>
 80015bc:	687b      	ldr	r3, [r7, #4]
 80015be:	681b      	ldr	r3, [r3, #0]
 80015c0:	627b      	str	r3, [r7, #36]	; 0x24
 80015c2:	687b      	ldr	r3, [r7, #4]
 80015c4:	681b      	ldr	r3, [r3, #0]
 80015c6:	2250      	movs	r2, #80	; 0x50
 80015c8:	5a9b      	ldrh	r3, [r3, r2]
 80015ca:	b29b      	uxth	r3, r3
 80015cc:	001a      	movs	r2, r3
 80015ce:	6a7b      	ldr	r3, [r7, #36]	; 0x24
 80015d0:	189b      	adds	r3, r3, r2
 80015d2:	627b      	str	r3, [r7, #36]	; 0x24
 80015d4:	6d7b      	ldr	r3, [r7, #84]	; 0x54
 80015d6:	781b      	ldrb	r3, [r3, #0]
 80015d8:	00da      	lsls	r2, r3, #3
 80015da:	6a7b      	ldr	r3, [r7, #36]	; 0x24
 80015dc:	18d3      	adds	r3, r2, r3
 80015de:	4a33      	ldr	r2, [pc, #204]	; (80016ac <PCD_EP_ISR_Handler+0x6e4>)
 80015e0:	4694      	mov	ip, r2
 80015e2:	4463      	add	r3, ip
 80015e4:	623b      	str	r3, [r7, #32]
 80015e6:	6a3b      	ldr	r3, [r7, #32]
 80015e8:	881b      	ldrh	r3, [r3, #0]
 80015ea:	b29b      	uxth	r3, r3
 80015ec:	059b      	lsls	r3, r3, #22
 80015ee:	0d9b      	lsrs	r3, r3, #22
 80015f0:	b29a      	uxth	r2, r3
 80015f2:	6a3b      	ldr	r3, [r7, #32]
 80015f4:	801a      	strh	r2, [r3, #0]
 80015f6:	6a3b      	ldr	r3, [r7, #32]
 80015f8:	881b      	ldrh	r3, [r3, #0]
 80015fa:	b29b      	uxth	r3, r3
 80015fc:	4a2d      	ldr	r2, [pc, #180]	; (80016b4 <PCD_EP_ISR_Handler+0x6ec>)
 80015fe:	4313      	orrs	r3, r2
 8001600:	b29a      	uxth	r2, r3
 8001602:	6a3b      	ldr	r3, [r7, #32]
 8001604:	801a      	strh	r2, [r3, #0]
 8001606:	e070      	b.n	80016ea <PCD_EP_ISR_Handler+0x722>
 8001608:	6d7b      	ldr	r3, [r7, #84]	; 0x54
 800160a:	785b      	ldrb	r3, [r3, #1]
 800160c:	2b01      	cmp	r3, #1
 800160e:	d16c      	bne.n	80016ea <PCD_EP_ISR_Handler+0x722>
 8001610:	687b      	ldr	r3, [r7, #4]
 8001612:	681b      	ldr	r3, [r3, #0]
 8001614:	62fb      	str	r3, [r7, #44]	; 0x2c
 8001616:	687b      	ldr	r3, [r7, #4]
 8001618:	681b      	ldr	r3, [r3, #0]
 800161a:	2250      	movs	r2, #80	; 0x50
 800161c:	5a9b      	ldrh	r3, [r3, r2]
 800161e:	b29b      	uxth	r3, r3
 8001620:	001a      	movs	r2, r3
 8001622:	6afb      	ldr	r3, [r7, #44]	; 0x2c
 8001624:	189b      	adds	r3, r3, r2
 8001626:	62fb      	str	r3, [r7, #44]	; 0x2c
 8001628:	6d7b      	ldr	r3, [r7, #84]	; 0x54
 800162a:	781b      	ldrb	r3, [r3, #0]
 800162c:	00da      	lsls	r2, r3, #3
 800162e:	6afb      	ldr	r3, [r7, #44]	; 0x2c
 8001630:	18d3      	adds	r3, r2, r3
 8001632:	4a1e      	ldr	r2, [pc, #120]	; (80016ac <PCD_EP_ISR_Handler+0x6e4>)
 8001634:	4694      	mov	ip, r2
 8001636:	4463      	add	r3, ip
 8001638:	62bb      	str	r3, [r7, #40]	; 0x28
 800163a:	6abb      	ldr	r3, [r7, #40]	; 0x28
 800163c:	2200      	movs	r2, #0
 800163e:	801a      	strh	r2, [r3, #0]
 8001640:	e053      	b.n	80016ea <PCD_EP_ISR_Handler+0x722>
            }
            else
            {
              PCD_SET_EP_DBUF1_CNT(hpcd->Instance, ep->num, ep->is_in, 0U);
 8001642:	687b      	ldr	r3, [r7, #4]
 8001644:	681b      	ldr	r3, [r3, #0]
 8001646:	63fb      	str	r3, [r7, #60]	; 0x3c
 8001648:	6d7b      	ldr	r3, [r7, #84]	; 0x54
 800164a:	785b      	ldrb	r3, [r3, #1]
 800164c:	2b00      	cmp	r3, #0
 800164e:	d133      	bne.n	80016b8 <PCD_EP_ISR_Handler+0x6f0>
 8001650:	687b      	ldr	r3, [r7, #4]
 8001652:	681b      	ldr	r3, [r3, #0]
 8001654:	637b      	str	r3, [r7, #52]	; 0x34
 8001656:	687b      	ldr	r3, [r7, #4]
 8001658:	681b      	ldr	r3, [r3, #0]
 800165a:	2250      	movs	r2, #80	; 0x50
 800165c:	5a9b      	ldrh	r3, [r3, r2]
 800165e:	b29b      	uxth	r3, r3
 8001660:	001a      	movs	r2, r3
 8001662:	6b7b      	ldr	r3, [r7, #52]	; 0x34
 8001664:	189b      	adds	r3, r3, r2
 8001666:	637b      	str	r3, [r7, #52]	; 0x34
 8001668:	6d7b      	ldr	r3, [r7, #84]	; 0x54
 800166a:	781b      	ldrb	r3, [r3, #0]
 800166c:	00da      	lsls	r2, r3, #3
 800166e:	6b7b      	ldr	r3, [r7, #52]	; 0x34
 8001670:	18d3      	adds	r3, r2, r3
 8001672:	4a0b      	ldr	r2, [pc, #44]	; (80016a0 <PCD_EP_ISR_Handler+0x6d8>)
 8001674:	4694      	mov	ip, r2
 8001676:	4463      	add	r3, ip
 8001678:	633b      	str	r3, [r7, #48]	; 0x30
 800167a:	6b3b      	ldr	r3, [r7, #48]	; 0x30
 800167c:	881b      	ldrh	r3, [r3, #0]
 800167e:	b29b      	uxth	r3, r3
 8001680:	059b      	lsls	r3, r3, #22
 8001682:	0d9b      	lsrs	r3, r3, #22
 8001684:	b29a      	uxth	r2, r3
 8001686:	6b3b      	ldr	r3, [r7, #48]	; 0x30
 8001688:	801a      	strh	r2, [r3, #0]
 800168a:	6b3b      	ldr	r3, [r7, #48]	; 0x30
 800168c:	881b      	ldrh	r3, [r3, #0]
 800168e:	b29b      	uxth	r3, r3
 8001690:	4a08      	ldr	r2, [pc, #32]	; (80016b4 <PCD_EP_ISR_Handler+0x6ec>)
 8001692:	4313      	orrs	r3, r2
 8001694:	b29a      	uxth	r2, r3
 8001696:	6b3b      	ldr	r3, [r7, #48]	; 0x30
 8001698:	801a      	strh	r2, [r3, #0]
 800169a:	e026      	b.n	80016ea <PCD_EP_ISR_Handler+0x722>
 800169c:	00000f8f 	.word	0x00000f8f
 80016a0:	00000406 	.word	0x00000406
 80016a4:	ffff8f8f 	.word	0xffff8f8f
 80016a8:	ffff80c0 	.word	0xffff80c0
 80016ac:	00000402 	.word	0x00000402
 80016b0:	ffff8f0f 	.word	0xffff8f0f
 80016b4:	ffff8000 	.word	0xffff8000
 80016b8:	6d7b      	ldr	r3, [r7, #84]	; 0x54
 80016ba:	785b      	ldrb	r3, [r3, #1]
 80016bc:	2b01      	cmp	r3, #1
 80016be:	d114      	bne.n	80016ea <PCD_EP_ISR_Handler+0x722>
 80016c0:	687b      	ldr	r3, [r7, #4]
 80016c2:	681b      	ldr	r3, [r3, #0]
 80016c4:	2250      	movs	r2, #80	; 0x50
 80016c6:	5a9b      	ldrh	r3, [r3, r2]
 80016c8:	b29b      	uxth	r3, r3
 80016ca:	001a      	movs	r2, r3
 80016cc:	6bfb      	ldr	r3, [r7, #60]	; 0x3c
 80016ce:	189b      	adds	r3, r3, r2
 80016d0:	63fb      	str	r3, [r7, #60]	; 0x3c
 80016d2:	6d7b      	ldr	r3, [r7, #84]	; 0x54
 80016d4:	781b      	ldrb	r3, [r3, #0]
 80016d6:	00da      	lsls	r2, r3, #3
 80016d8:	6bfb      	ldr	r3, [r7, #60]	; 0x3c
 80016da:	18d3      	adds	r3, r2, r3
 80016dc:	4a3b      	ldr	r2, [pc, #236]	; (80017cc <PCD_EP_ISR_Handler+0x804>)
 80016de:	4694      	mov	ip, r2
 80016e0:	4463      	add	r3, ip
 80016e2:	63bb      	str	r3, [r7, #56]	; 0x38
 80016e4:	6bbb      	ldr	r3, [r7, #56]	; 0x38
 80016e6:	2200      	movs	r2, #0
 80016e8:	801a      	strh	r2, [r3, #0]

          /* TX COMPLETE */
#if (USE_HAL_PCD_REGISTER_CALLBACKS == 1U)
          hpcd->DataInStageCallback(hpcd, ep->num);
#else
          HAL_PCD_DataInStageCallback(hpcd, ep->num);
 80016ea:	6d7b      	ldr	r3, [r7, #84]	; 0x54
 80016ec:	781a      	ldrb	r2, [r3, #0]
 80016ee:	687b      	ldr	r3, [r7, #4]
 80016f0:	0011      	movs	r1, r2
 80016f2:	0018      	movs	r0, r3
 80016f4:	f005 fac4 	bl	8006c80 <HAL_PCD_DataInStageCallback>
 80016f8:	e058      	b.n	80017ac <PCD_EP_ISR_Handler+0x7e4>
#endif /* USE_HAL_PCD_REGISTER_CALLBACKS */
        }
        else
        {
          /* Manage Single Buffer Transaction */
          if ((wEPVal & USB_EP_KIND) == 0U)
 80016fa:	234a      	movs	r3, #74	; 0x4a
 80016fc:	18fb      	adds	r3, r7, r3
 80016fe:	881a      	ldrh	r2, [r3, #0]
 8001700:	2380      	movs	r3, #128	; 0x80
 8001702:	005b      	lsls	r3, r3, #1
 8001704:	4013      	ands	r3, r2
 8001706:	d149      	bne.n	800179c <PCD_EP_ISR_Handler+0x7d4>
          {
            /* multi-packet on the NON control IN endpoint */
            TxPctSize = (uint16_t)PCD_GET_EP_TX_CNT(hpcd->Instance, ep->num);
 8001708:	687b      	ldr	r3, [r7, #4]
 800170a:	681b      	ldr	r3, [r3, #0]
 800170c:	2250      	movs	r2, #80	; 0x50
 800170e:	5a9b      	ldrh	r3, [r3, r2]
 8001710:	b29b      	uxth	r3, r3
 8001712:	001a      	movs	r2, r3
 8001714:	6d7b      	ldr	r3, [r7, #84]	; 0x54
 8001716:	781b      	ldrb	r3, [r3, #0]
 8001718:	00db      	lsls	r3, r3, #3
 800171a:	18d2      	adds	r2, r2, r3
 800171c:	687b      	ldr	r3, [r7, #4]
 800171e:	681b      	ldr	r3, [r3, #0]
 8001720:	18d3      	adds	r3, r2, r3
 8001722:	4a2b      	ldr	r2, [pc, #172]	; (80017d0 <PCD_EP_ISR_Handler+0x808>)
 8001724:	4694      	mov	ip, r2
 8001726:	4463      	add	r3, ip
 8001728:	881a      	ldrh	r2, [r3, #0]
 800172a:	2140      	movs	r1, #64	; 0x40
 800172c:	187b      	adds	r3, r7, r1
 800172e:	0592      	lsls	r2, r2, #22
 8001730:	0d92      	lsrs	r2, r2, #22
 8001732:	801a      	strh	r2, [r3, #0]

            if (ep->xfer_len > TxPctSize)
 8001734:	6d7b      	ldr	r3, [r7, #84]	; 0x54
 8001736:	699a      	ldr	r2, [r3, #24]
 8001738:	187b      	adds	r3, r7, r1
 800173a:	881b      	ldrh	r3, [r3, #0]
 800173c:	429a      	cmp	r2, r3
 800173e:	d907      	bls.n	8001750 <PCD_EP_ISR_Handler+0x788>
            {
              ep->xfer_len -= TxPctSize;
 8001740:	6d7b      	ldr	r3, [r7, #84]	; 0x54
 8001742:	699a      	ldr	r2, [r3, #24]
 8001744:	187b      	adds	r3, r7, r1
 8001746:	881b      	ldrh	r3, [r3, #0]
 8001748:	1ad2      	subs	r2, r2, r3
 800174a:	6d7b      	ldr	r3, [r7, #84]	; 0x54
 800174c:	619a      	str	r2, [r3, #24]
 800174e:	e002      	b.n	8001756 <PCD_EP_ISR_Handler+0x78e>
            }
            else
            {
              ep->xfer_len = 0U;
 8001750:	6d7b      	ldr	r3, [r7, #84]	; 0x54
 8001752:	2200      	movs	r2, #0
 8001754:	619a      	str	r2, [r3, #24]
            }

            /* Zero Length Packet? */
            if (ep->xfer_len == 0U)
 8001756:	6d7b      	ldr	r3, [r7, #84]	; 0x54
 8001758:	699b      	ldr	r3, [r3, #24]
 800175a:	2b00      	cmp	r3, #0
 800175c:	d107      	bne.n	800176e <PCD_EP_ISR_Handler+0x7a6>
            {
              /* TX COMPLETE */
#if (USE_HAL_PCD_REGISTER_CALLBACKS == 1U)
              hpcd->DataInStageCallback(hpcd, ep->num);
#else
              HAL_PCD_DataInStageCallback(hpcd, ep->num);
 800175e:	6d7b      	ldr	r3, [r7, #84]	; 0x54
 8001760:	781a      	ldrb	r2, [r3, #0]
 8001762:	687b      	ldr	r3, [r7, #4]
 8001764:	0011      	movs	r1, r2
 8001766:	0018      	movs	r0, r3
 8001768:	f005 fa8a 	bl	8006c80 <HAL_PCD_DataInStageCallback>
 800176c:	e01e      	b.n	80017ac <PCD_EP_ISR_Handler+0x7e4>
#endif /* USE_HAL_PCD_REGISTER_CALLBACKS */
            }
            else
            {
              /* Transfer is not yet Done */
              ep->xfer_buff += TxPctSize;
 800176e:	6d7b      	ldr	r3, [r7, #84]	; 0x54
 8001770:	695a      	ldr	r2, [r3, #20]
 8001772:	2140      	movs	r1, #64	; 0x40
 8001774:	187b      	adds	r3, r7, r1
 8001776:	881b      	ldrh	r3, [r3, #0]
 8001778:	18d2      	adds	r2, r2, r3
 800177a:	6d7b      	ldr	r3, [r7, #84]	; 0x54
 800177c:	615a      	str	r2, [r3, #20]
              ep->xfer_count += TxPctSize;
 800177e:	6d7b      	ldr	r3, [r7, #84]	; 0x54
 8001780:	69da      	ldr	r2, [r3, #28]
 8001782:	187b      	adds	r3, r7, r1
 8001784:	881b      	ldrh	r3, [r3, #0]
 8001786:	18d2      	adds	r2, r2, r3
 8001788:	6d7b      	ldr	r3, [r7, #84]	; 0x54
 800178a:	61da      	str	r2, [r3, #28]
              (void)USB_EPStartXfer(hpcd->Instance, ep);
 800178c:	687b      	ldr	r3, [r7, #4]
 800178e:	681b      	ldr	r3, [r3, #0]
 8001790:	6d7a      	ldr	r2, [r7, #84]	; 0x54
 8001792:	0011      	movs	r1, r2
 8001794:	0018      	movs	r0, r3
 8001796:	f002 f947 	bl	8003a28 <USB_EPStartXfer>
 800179a:	e007      	b.n	80017ac <PCD_EP_ISR_Handler+0x7e4>
          }
#if (USE_USB_DOUBLE_BUFFER == 1U)
          /* Double Buffer bulk IN (bulk transfer Len > Ep_Mps) */
          else
          {
            (void)HAL_PCD_EP_DB_Transmit(hpcd, ep, wEPVal);
 800179c:	234a      	movs	r3, #74	; 0x4a
 800179e:	18fb      	adds	r3, r7, r3
 80017a0:	881a      	ldrh	r2, [r3, #0]
 80017a2:	6d79      	ldr	r1, [r7, #84]	; 0x54
 80017a4:	687b      	ldr	r3, [r7, #4]
 80017a6:	0018      	movs	r0, r3
 80017a8:	f000 f930 	bl	8001a0c <HAL_PCD_EP_DB_Transmit>
  while ((hpcd->Instance->ISTR & USB_ISTR_CTR) != 0U)
 80017ac:	687b      	ldr	r3, [r7, #4]
 80017ae:	681b      	ldr	r3, [r3, #0]
 80017b0:	2244      	movs	r2, #68	; 0x44
 80017b2:	5a9b      	ldrh	r3, [r3, r2]
 80017b4:	b29b      	uxth	r3, r3
 80017b6:	b21b      	sxth	r3, r3
 80017b8:	2b00      	cmp	r3, #0
 80017ba:	da01      	bge.n	80017c0 <PCD_EP_ISR_Handler+0x7f8>
 80017bc:	f7ff fc0a 	bl	8000fd4 <PCD_EP_ISR_Handler+0xc>
        }
      }
    }
  }

  return HAL_OK;
 80017c0:	2300      	movs	r3, #0
}
 80017c2:	0018      	movs	r0, r3
 80017c4:	46bd      	mov	sp, r7
 80017c6:	b016      	add	sp, #88	; 0x58
 80017c8:	bdb0      	pop	{r4, r5, r7, pc}
 80017ca:	46c0      	nop			; (mov r8, r8)
 80017cc:	00000406 	.word	0x00000406
 80017d0:	00000402 	.word	0x00000402

080017d4 <HAL_PCD_EP_DB_Receive>:
  * @param  wEPVal Last snapshot of EPRx register value taken in ISR
  * @retval HAL status
  */
static uint16_t HAL_PCD_EP_DB_Receive(PCD_HandleTypeDef *hpcd,
                                      PCD_EPTypeDef *ep, uint16_t wEPVal)
{
 80017d4:	b590      	push	{r4, r7, lr}
 80017d6:	b089      	sub	sp, #36	; 0x24
 80017d8:	af00      	add	r7, sp, #0
 80017da:	60f8      	str	r0, [r7, #12]
 80017dc:	60b9      	str	r1, [r7, #8]
 80017de:	1dbb      	adds	r3, r7, #6
 80017e0:	801a      	strh	r2, [r3, #0]
  uint16_t count;

  /* Manage Buffer0 OUT */
  if ((wEPVal & USB_EP_DTOG_RX) != 0U)
 80017e2:	1dbb      	adds	r3, r7, #6
 80017e4:	881a      	ldrh	r2, [r3, #0]
 80017e6:	2380      	movs	r3, #128	; 0x80
 80017e8:	01db      	lsls	r3, r3, #7
 80017ea:	4013      	ands	r3, r2
 80017ec:	d100      	bne.n	80017f0 <HAL_PCD_EP_DB_Receive+0x1c>
 80017ee:	e07d      	b.n	80018ec <HAL_PCD_EP_DB_Receive+0x118>
  {
    /* Get count of received Data on buffer0 */
    count = (uint16_t)PCD_GET_EP_DBUF0_CNT(hpcd->Instance, ep->num);
 80017f0:	68fb      	ldr	r3, [r7, #12]
 80017f2:	681b      	ldr	r3, [r3, #0]
 80017f4:	2250      	movs	r2, #80	; 0x50
 80017f6:	5a9b      	ldrh	r3, [r3, r2]
 80017f8:	b29b      	uxth	r3, r3
 80017fa:	001a      	movs	r2, r3
 80017fc:	68bb      	ldr	r3, [r7, #8]
 80017fe:	781b      	ldrb	r3, [r3, #0]
 8001800:	00db      	lsls	r3, r3, #3
 8001802:	18d2      	adds	r2, r2, r3
 8001804:	68fb      	ldr	r3, [r7, #12]
 8001806:	681b      	ldr	r3, [r3, #0]
 8001808:	18d3      	adds	r3, r2, r3
 800180a:	4a7a      	ldr	r2, [pc, #488]	; (80019f4 <HAL_PCD_EP_DB_Receive+0x220>)
 800180c:	4694      	mov	ip, r2
 800180e:	4463      	add	r3, ip
 8001810:	881a      	ldrh	r2, [r3, #0]
 8001812:	211a      	movs	r1, #26
 8001814:	187b      	adds	r3, r7, r1
 8001816:	0592      	lsls	r2, r2, #22
 8001818:	0d92      	lsrs	r2, r2, #22
 800181a:	801a      	strh	r2, [r3, #0]

    if (ep->xfer_len >= count)
 800181c:	68bb      	ldr	r3, [r7, #8]
 800181e:	699a      	ldr	r2, [r3, #24]
 8001820:	187b      	adds	r3, r7, r1
 8001822:	881b      	ldrh	r3, [r3, #0]
 8001824:	429a      	cmp	r2, r3
 8001826:	d307      	bcc.n	8001838 <HAL_PCD_EP_DB_Receive+0x64>
    {
      ep->xfer_len -= count;
 8001828:	68bb      	ldr	r3, [r7, #8]
 800182a:	699a      	ldr	r2, [r3, #24]
 800182c:	187b      	adds	r3, r7, r1
 800182e:	881b      	ldrh	r3, [r3, #0]
 8001830:	1ad2      	subs	r2, r2, r3
 8001832:	68bb      	ldr	r3, [r7, #8]
 8001834:	619a      	str	r2, [r3, #24]
 8001836:	e002      	b.n	800183e <HAL_PCD_EP_DB_Receive+0x6a>
    }
    else
    {
      ep->xfer_len = 0U;
 8001838:	68bb      	ldr	r3, [r7, #8]
 800183a:	2200      	movs	r2, #0
 800183c:	619a      	str	r2, [r3, #24]
    }

    if (ep->xfer_len == 0U)
 800183e:	68bb      	ldr	r3, [r7, #8]
 8001840:	699b      	ldr	r3, [r3, #24]
 8001842:	2b00      	cmp	r3, #0
 8001844:	d121      	bne.n	800188a <HAL_PCD_EP_DB_Receive+0xb6>
    {
      /* set NAK to OUT endpoint since double buffer is enabled */
      PCD_SET_EP_RX_STATUS(hpcd->Instance, ep->num, USB_EP_RX_NAK);
 8001846:	68fb      	ldr	r3, [r7, #12]
 8001848:	681b      	ldr	r3, [r3, #0]
 800184a:	001a      	movs	r2, r3
 800184c:	68bb      	ldr	r3, [r7, #8]
 800184e:	781b      	ldrb	r3, [r3, #0]
 8001850:	009b      	lsls	r3, r3, #2
 8001852:	18d3      	adds	r3, r2, r3
 8001854:	881b      	ldrh	r3, [r3, #0]
 8001856:	b29a      	uxth	r2, r3
 8001858:	2018      	movs	r0, #24
 800185a:	183b      	adds	r3, r7, r0
 800185c:	4966      	ldr	r1, [pc, #408]	; (80019f8 <HAL_PCD_EP_DB_Receive+0x224>)
 800185e:	400a      	ands	r2, r1
 8001860:	801a      	strh	r2, [r3, #0]
 8001862:	183b      	adds	r3, r7, r0
 8001864:	183a      	adds	r2, r7, r0
 8001866:	8812      	ldrh	r2, [r2, #0]
 8001868:	2180      	movs	r1, #128	; 0x80
 800186a:	0189      	lsls	r1, r1, #6
 800186c:	404a      	eors	r2, r1
 800186e:	801a      	strh	r2, [r3, #0]
 8001870:	68fb      	ldr	r3, [r7, #12]
 8001872:	681b      	ldr	r3, [r3, #0]
 8001874:	001a      	movs	r2, r3
 8001876:	68bb      	ldr	r3, [r7, #8]
 8001878:	781b      	ldrb	r3, [r3, #0]
 800187a:	009b      	lsls	r3, r3, #2
 800187c:	18d3      	adds	r3, r2, r3
 800187e:	183a      	adds	r2, r7, r0
 8001880:	8812      	ldrh	r2, [r2, #0]
 8001882:	495e      	ldr	r1, [pc, #376]	; (80019fc <HAL_PCD_EP_DB_Receive+0x228>)
 8001884:	430a      	orrs	r2, r1
 8001886:	b292      	uxth	r2, r2
 8001888:	801a      	strh	r2, [r3, #0]
    }

    /* Check if Buffer1 is in blocked state which requires to toggle */
    if ((wEPVal & USB_EP_DTOG_TX) != 0U)
 800188a:	1dbb      	adds	r3, r7, #6
 800188c:	881b      	ldrh	r3, [r3, #0]
 800188e:	2240      	movs	r2, #64	; 0x40
 8001890:	4013      	ands	r3, r2
 8001892:	d01a      	beq.n	80018ca <HAL_PCD_EP_DB_Receive+0xf6>
    {
      PCD_FREE_USER_BUFFER(hpcd->Instance, ep->num, 0U);
 8001894:	68fb      	ldr	r3, [r7, #12]
 8001896:	681b      	ldr	r3, [r3, #0]
 8001898:	001a      	movs	r2, r3
 800189a:	68bb      	ldr	r3, [r7, #8]
 800189c:	781b      	ldrb	r3, [r3, #0]
 800189e:	009b      	lsls	r3, r3, #2
 80018a0:	18d3      	adds	r3, r2, r3
 80018a2:	881b      	ldrh	r3, [r3, #0]
 80018a4:	b29a      	uxth	r2, r3
 80018a6:	2016      	movs	r0, #22
 80018a8:	183b      	adds	r3, r7, r0
 80018aa:	4955      	ldr	r1, [pc, #340]	; (8001a00 <HAL_PCD_EP_DB_Receive+0x22c>)
 80018ac:	400a      	ands	r2, r1
 80018ae:	801a      	strh	r2, [r3, #0]
 80018b0:	68fb      	ldr	r3, [r7, #12]
 80018b2:	681b      	ldr	r3, [r3, #0]
 80018b4:	001a      	movs	r2, r3
 80018b6:	68bb      	ldr	r3, [r7, #8]
 80018b8:	781b      	ldrb	r3, [r3, #0]
 80018ba:	009b      	lsls	r3, r3, #2
 80018bc:	18d3      	adds	r3, r2, r3
 80018be:	183a      	adds	r2, r7, r0
 80018c0:	8812      	ldrh	r2, [r2, #0]
 80018c2:	4950      	ldr	r1, [pc, #320]	; (8001a04 <HAL_PCD_EP_DB_Receive+0x230>)
 80018c4:	430a      	orrs	r2, r1
 80018c6:	b292      	uxth	r2, r2
 80018c8:	801a      	strh	r2, [r3, #0]
    }

    if (count != 0U)
 80018ca:	241a      	movs	r4, #26
 80018cc:	193b      	adds	r3, r7, r4
 80018ce:	881b      	ldrh	r3, [r3, #0]
 80018d0:	2b00      	cmp	r3, #0
 80018d2:	d100      	bne.n	80018d6 <HAL_PCD_EP_DB_Receive+0x102>
 80018d4:	e086      	b.n	80019e4 <HAL_PCD_EP_DB_Receive+0x210>
    {
      USB_ReadPMA(hpcd->Instance, ep->xfer_buff, ep->pmaaddr0, count);
 80018d6:	68fb      	ldr	r3, [r7, #12]
 80018d8:	6818      	ldr	r0, [r3, #0]
 80018da:	68bb      	ldr	r3, [r7, #8]
 80018dc:	6959      	ldr	r1, [r3, #20]
 80018de:	68bb      	ldr	r3, [r7, #8]
 80018e0:	891a      	ldrh	r2, [r3, #8]
 80018e2:	193b      	adds	r3, r7, r4
 80018e4:	881b      	ldrh	r3, [r3, #0]
 80018e6:	f003 fb5a 	bl	8004f9e <USB_ReadPMA>
 80018ea:	e07b      	b.n	80019e4 <HAL_PCD_EP_DB_Receive+0x210>
  }
  /* Manage Buffer 1 DTOG_RX=0 */
  else
  {
    /* Get count of received data */
    count = (uint16_t)PCD_GET_EP_DBUF1_CNT(hpcd->Instance, ep->num);
 80018ec:	68fb      	ldr	r3, [r7, #12]
 80018ee:	681b      	ldr	r3, [r3, #0]
 80018f0:	2250      	movs	r2, #80	; 0x50
 80018f2:	5a9b      	ldrh	r3, [r3, r2]
 80018f4:	b29b      	uxth	r3, r3
 80018f6:	001a      	movs	r2, r3
 80018f8:	68bb      	ldr	r3, [r7, #8]
 80018fa:	781b      	ldrb	r3, [r3, #0]
 80018fc:	00db      	lsls	r3, r3, #3
 80018fe:	18d2      	adds	r2, r2, r3
 8001900:	68fb      	ldr	r3, [r7, #12]
 8001902:	681b      	ldr	r3, [r3, #0]
 8001904:	18d3      	adds	r3, r2, r3
 8001906:	4a40      	ldr	r2, [pc, #256]	; (8001a08 <HAL_PCD_EP_DB_Receive+0x234>)
 8001908:	4694      	mov	ip, r2
 800190a:	4463      	add	r3, ip
 800190c:	881a      	ldrh	r2, [r3, #0]
 800190e:	211a      	movs	r1, #26
 8001910:	187b      	adds	r3, r7, r1
 8001912:	0592      	lsls	r2, r2, #22
 8001914:	0d92      	lsrs	r2, r2, #22
 8001916:	801a      	strh	r2, [r3, #0]

    if (ep->xfer_len >= count)
 8001918:	68bb      	ldr	r3, [r7, #8]
 800191a:	699a      	ldr	r2, [r3, #24]
 800191c:	187b      	adds	r3, r7, r1
 800191e:	881b      	ldrh	r3, [r3, #0]
 8001920:	429a      	cmp	r2, r3
 8001922:	d307      	bcc.n	8001934 <HAL_PCD_EP_DB_Receive+0x160>
    {
      ep->xfer_len -= count;
 8001924:	68bb      	ldr	r3, [r7, #8]
 8001926:	699a      	ldr	r2, [r3, #24]
 8001928:	187b      	adds	r3, r7, r1
 800192a:	881b      	ldrh	r3, [r3, #0]
 800192c:	1ad2      	subs	r2, r2, r3
 800192e:	68bb      	ldr	r3, [r7, #8]
 8001930:	619a      	str	r2, [r3, #24]
 8001932:	e002      	b.n	800193a <HAL_PCD_EP_DB_Receive+0x166>
    }
    else
    {
      ep->xfer_len = 0U;
 8001934:	68bb      	ldr	r3, [r7, #8]
 8001936:	2200      	movs	r2, #0
 8001938:	619a      	str	r2, [r3, #24]
    }

    if (ep->xfer_len == 0U)
 800193a:	68bb      	ldr	r3, [r7, #8]
 800193c:	699b      	ldr	r3, [r3, #24]
 800193e:	2b00      	cmp	r3, #0
 8001940:	d121      	bne.n	8001986 <HAL_PCD_EP_DB_Receive+0x1b2>
    {
      /* set NAK on the current endpoint */
      PCD_SET_EP_RX_STATUS(hpcd->Instance, ep->num, USB_EP_RX_NAK);
 8001942:	68fb      	ldr	r3, [r7, #12]
 8001944:	681b      	ldr	r3, [r3, #0]
 8001946:	001a      	movs	r2, r3
 8001948:	68bb      	ldr	r3, [r7, #8]
 800194a:	781b      	ldrb	r3, [r3, #0]
 800194c:	009b      	lsls	r3, r3, #2
 800194e:	18d3      	adds	r3, r2, r3
 8001950:	881b      	ldrh	r3, [r3, #0]
 8001952:	b29a      	uxth	r2, r3
 8001954:	201e      	movs	r0, #30
 8001956:	183b      	adds	r3, r7, r0
 8001958:	4927      	ldr	r1, [pc, #156]	; (80019f8 <HAL_PCD_EP_DB_Receive+0x224>)
 800195a:	400a      	ands	r2, r1
 800195c:	801a      	strh	r2, [r3, #0]
 800195e:	183b      	adds	r3, r7, r0
 8001960:	183a      	adds	r2, r7, r0
 8001962:	8812      	ldrh	r2, [r2, #0]
 8001964:	2180      	movs	r1, #128	; 0x80
 8001966:	0189      	lsls	r1, r1, #6
 8001968:	404a      	eors	r2, r1
 800196a:	801a      	strh	r2, [r3, #0]
 800196c:	68fb      	ldr	r3, [r7, #12]
 800196e:	681b      	ldr	r3, [r3, #0]
 8001970:	001a      	movs	r2, r3
 8001972:	68bb      	ldr	r3, [r7, #8]
 8001974:	781b      	ldrb	r3, [r3, #0]
 8001976:	009b      	lsls	r3, r3, #2
 8001978:	18d3      	adds	r3, r2, r3
 800197a:	183a      	adds	r2, r7, r0
 800197c:	8812      	ldrh	r2, [r2, #0]
 800197e:	491f      	ldr	r1, [pc, #124]	; (80019fc <HAL_PCD_EP_DB_Receive+0x228>)
 8001980:	430a      	orrs	r2, r1
 8001982:	b292      	uxth	r2, r2
 8001984:	801a      	strh	r2, [r3, #0]
    }

    /*Need to FreeUser Buffer*/
    if ((wEPVal & USB_EP_DTOG_TX) == 0U)
 8001986:	1dbb      	adds	r3, r7, #6
 8001988:	881b      	ldrh	r3, [r3, #0]
 800198a:	2240      	movs	r2, #64	; 0x40
 800198c:	4013      	ands	r3, r2
 800198e:	d11a      	bne.n	80019c6 <HAL_PCD_EP_DB_Receive+0x1f2>
    {
      PCD_FREE_USER_BUFFER(hpcd->Instance, ep->num, 0U);
 8001990:	68fb      	ldr	r3, [r7, #12]
 8001992:	681b      	ldr	r3, [r3, #0]
 8001994:	001a      	movs	r2, r3
 8001996:	68bb      	ldr	r3, [r7, #8]
 8001998:	781b      	ldrb	r3, [r3, #0]
 800199a:	009b      	lsls	r3, r3, #2
 800199c:	18d3      	adds	r3, r2, r3
 800199e:	881b      	ldrh	r3, [r3, #0]
 80019a0:	b29a      	uxth	r2, r3
 80019a2:	201c      	movs	r0, #28
 80019a4:	183b      	adds	r3, r7, r0
 80019a6:	4916      	ldr	r1, [pc, #88]	; (8001a00 <HAL_PCD_EP_DB_Receive+0x22c>)
 80019a8:	400a      	ands	r2, r1
 80019aa:	801a      	strh	r2, [r3, #0]
 80019ac:	68fb      	ldr	r3, [r7, #12]
 80019ae:	681b      	ldr	r3, [r3, #0]
 80019b0:	001a      	movs	r2, r3
 80019b2:	68bb      	ldr	r3, [r7, #8]
 80019b4:	781b      	ldrb	r3, [r3, #0]
 80019b6:	009b      	lsls	r3, r3, #2
 80019b8:	18d3      	adds	r3, r2, r3
 80019ba:	183a      	adds	r2, r7, r0
 80019bc:	8812      	ldrh	r2, [r2, #0]
 80019be:	4911      	ldr	r1, [pc, #68]	; (8001a04 <HAL_PCD_EP_DB_Receive+0x230>)
 80019c0:	430a      	orrs	r2, r1
 80019c2:	b292      	uxth	r2, r2
 80019c4:	801a      	strh	r2, [r3, #0]
    }

    if (count != 0U)
 80019c6:	241a      	movs	r4, #26
 80019c8:	193b      	adds	r3, r7, r4
 80019ca:	881b      	ldrh	r3, [r3, #0]
 80019cc:	2b00      	cmp	r3, #0
 80019ce:	d009      	beq.n	80019e4 <HAL_PCD_EP_DB_Receive+0x210>
    {
      USB_ReadPMA(hpcd->Instance, ep->xfer_buff, ep->pmaaddr1, count);
 80019d0:	68fb      	ldr	r3, [r7, #12]
 80019d2:	6818      	ldr	r0, [r3, #0]
 80019d4:	68bb      	ldr	r3, [r7, #8]
 80019d6:	6959      	ldr	r1, [r3, #20]
 80019d8:	68bb      	ldr	r3, [r7, #8]
 80019da:	895a      	ldrh	r2, [r3, #10]
 80019dc:	193b      	adds	r3, r7, r4
 80019de:	881b      	ldrh	r3, [r3, #0]
 80019e0:	f003 fadd 	bl	8004f9e <USB_ReadPMA>
    }
  }

  return count;
 80019e4:	231a      	movs	r3, #26
 80019e6:	18fb      	adds	r3, r7, r3
 80019e8:	881b      	ldrh	r3, [r3, #0]
}
 80019ea:	0018      	movs	r0, r3
 80019ec:	46bd      	mov	sp, r7
 80019ee:	b009      	add	sp, #36	; 0x24
 80019f0:	bd90      	pop	{r4, r7, pc}
 80019f2:	46c0      	nop			; (mov r8, r8)
 80019f4:	00000402 	.word	0x00000402
 80019f8:	ffffbf8f 	.word	0xffffbf8f
 80019fc:	ffff8080 	.word	0xffff8080
 8001a00:	ffff8f8f 	.word	0xffff8f8f
 8001a04:	ffff80c0 	.word	0xffff80c0
 8001a08:	00000406 	.word	0x00000406

08001a0c <HAL_PCD_EP_DB_Transmit>:
  * @param  wEPVal Last snapshot of EPRx register value taken in ISR
  * @retval HAL status
  */
static HAL_StatusTypeDef HAL_PCD_EP_DB_Transmit(PCD_HandleTypeDef *hpcd,
                                                PCD_EPTypeDef *ep, uint16_t wEPVal)
{
 8001a0c:	b580      	push	{r7, lr}
 8001a0e:	b0a4      	sub	sp, #144	; 0x90
 8001a10:	af00      	add	r7, sp, #0
 8001a12:	60f8      	str	r0, [r7, #12]
 8001a14:	60b9      	str	r1, [r7, #8]
 8001a16:	1dbb      	adds	r3, r7, #6
 8001a18:	801a      	strh	r2, [r3, #0]
  uint32_t len;
  uint16_t TxPctSize;

  /* Data Buffer0 ACK received */
  if ((wEPVal & USB_EP_DTOG_TX) != 0U)
 8001a1a:	1dbb      	adds	r3, r7, #6
 8001a1c:	881b      	ldrh	r3, [r3, #0]
 8001a1e:	2240      	movs	r2, #64	; 0x40
 8001a20:	4013      	ands	r3, r2
 8001a22:	d100      	bne.n	8001a26 <HAL_PCD_EP_DB_Transmit+0x1a>
 8001a24:	e1e4      	b.n	8001df0 <HAL_PCD_EP_DB_Transmit+0x3e4>
  {
    /* multi-packet on the NON control IN endpoint */
    TxPctSize = (uint16_t)PCD_GET_EP_DBUF0_CNT(hpcd->Instance, ep->num);
 8001a26:	68fb      	ldr	r3, [r7, #12]
 8001a28:	681b      	ldr	r3, [r3, #0]
 8001a2a:	2250      	movs	r2, #80	; 0x50
 8001a2c:	5a9b      	ldrh	r3, [r3, r2]
 8001a2e:	b29b      	uxth	r3, r3
 8001a30:	001a      	movs	r2, r3
 8001a32:	68bb      	ldr	r3, [r7, #8]
 8001a34:	781b      	ldrb	r3, [r3, #0]
 8001a36:	00db      	lsls	r3, r3, #3
 8001a38:	18d2      	adds	r2, r2, r3
 8001a3a:	68fb      	ldr	r3, [r7, #12]
 8001a3c:	681b      	ldr	r3, [r3, #0]
 8001a3e:	18d3      	adds	r3, r2, r3
 8001a40:	4ad0      	ldr	r2, [pc, #832]	; (8001d84 <HAL_PCD_EP_DB_Transmit+0x378>)
 8001a42:	4694      	mov	ip, r2
 8001a44:	4463      	add	r3, ip
 8001a46:	881a      	ldrh	r2, [r3, #0]
 8001a48:	2186      	movs	r1, #134	; 0x86
 8001a4a:	187b      	adds	r3, r7, r1
 8001a4c:	0592      	lsls	r2, r2, #22
 8001a4e:	0d92      	lsrs	r2, r2, #22
 8001a50:	801a      	strh	r2, [r3, #0]

    if (ep->xfer_len > TxPctSize)
 8001a52:	68bb      	ldr	r3, [r7, #8]
 8001a54:	699a      	ldr	r2, [r3, #24]
 8001a56:	187b      	adds	r3, r7, r1
 8001a58:	881b      	ldrh	r3, [r3, #0]
 8001a5a:	429a      	cmp	r2, r3
 8001a5c:	d907      	bls.n	8001a6e <HAL_PCD_EP_DB_Transmit+0x62>
    {
      ep->xfer_len -= TxPctSize;
 8001a5e:	68bb      	ldr	r3, [r7, #8]
 8001a60:	699a      	ldr	r2, [r3, #24]
 8001a62:	187b      	adds	r3, r7, r1
 8001a64:	881b      	ldrh	r3, [r3, #0]
 8001a66:	1ad2      	subs	r2, r2, r3
 8001a68:	68bb      	ldr	r3, [r7, #8]
 8001a6a:	619a      	str	r2, [r3, #24]
 8001a6c:	e002      	b.n	8001a74 <HAL_PCD_EP_DB_Transmit+0x68>
    }
    else
    {
      ep->xfer_len = 0U;
 8001a6e:	68bb      	ldr	r3, [r7, #8]
 8001a70:	2200      	movs	r2, #0
 8001a72:	619a      	str	r2, [r3, #24]
    }

    /* Transfer is completed */
    if (ep->xfer_len == 0U)
 8001a74:	68bb      	ldr	r3, [r7, #8]
 8001a76:	699b      	ldr	r3, [r3, #24]
 8001a78:	2b00      	cmp	r3, #0
 8001a7a:	d000      	beq.n	8001a7e <HAL_PCD_EP_DB_Transmit+0x72>
 8001a7c:	e0b5      	b.n	8001bea <HAL_PCD_EP_DB_Transmit+0x1de>
    {
      PCD_SET_EP_DBUF0_CNT(hpcd->Instance, ep->num, ep->is_in, 0U);
 8001a7e:	68bb      	ldr	r3, [r7, #8]
 8001a80:	785b      	ldrb	r3, [r3, #1]
 8001a82:	2b00      	cmp	r3, #0
 8001a84:	d125      	bne.n	8001ad2 <HAL_PCD_EP_DB_Transmit+0xc6>
 8001a86:	68fb      	ldr	r3, [r7, #12]
 8001a88:	681b      	ldr	r3, [r3, #0]
 8001a8a:	62fb      	str	r3, [r7, #44]	; 0x2c
 8001a8c:	68fb      	ldr	r3, [r7, #12]
 8001a8e:	681b      	ldr	r3, [r3, #0]
 8001a90:	2250      	movs	r2, #80	; 0x50
 8001a92:	5a9b      	ldrh	r3, [r3, r2]
 8001a94:	b29b      	uxth	r3, r3
 8001a96:	001a      	movs	r2, r3
 8001a98:	6afb      	ldr	r3, [r7, #44]	; 0x2c
 8001a9a:	189b      	adds	r3, r3, r2
 8001a9c:	62fb      	str	r3, [r7, #44]	; 0x2c
 8001a9e:	68bb      	ldr	r3, [r7, #8]
 8001aa0:	781b      	ldrb	r3, [r3, #0]
 8001aa2:	00da      	lsls	r2, r3, #3
 8001aa4:	6afb      	ldr	r3, [r7, #44]	; 0x2c
 8001aa6:	18d3      	adds	r3, r2, r3
 8001aa8:	4ab6      	ldr	r2, [pc, #728]	; (8001d84 <HAL_PCD_EP_DB_Transmit+0x378>)
 8001aaa:	4694      	mov	ip, r2
 8001aac:	4463      	add	r3, ip
 8001aae:	62bb      	str	r3, [r7, #40]	; 0x28
 8001ab0:	6abb      	ldr	r3, [r7, #40]	; 0x28
 8001ab2:	881b      	ldrh	r3, [r3, #0]
 8001ab4:	b29b      	uxth	r3, r3
 8001ab6:	059b      	lsls	r3, r3, #22
 8001ab8:	0d9b      	lsrs	r3, r3, #22
 8001aba:	b29a      	uxth	r2, r3
 8001abc:	6abb      	ldr	r3, [r7, #40]	; 0x28
 8001abe:	801a      	strh	r2, [r3, #0]
 8001ac0:	6abb      	ldr	r3, [r7, #40]	; 0x28
 8001ac2:	881b      	ldrh	r3, [r3, #0]
 8001ac4:	b29b      	uxth	r3, r3
 8001ac6:	4ab0      	ldr	r2, [pc, #704]	; (8001d88 <HAL_PCD_EP_DB_Transmit+0x37c>)
 8001ac8:	4313      	orrs	r3, r2
 8001aca:	b29a      	uxth	r2, r3
 8001acc:	6abb      	ldr	r3, [r7, #40]	; 0x28
 8001ace:	801a      	strh	r2, [r3, #0]
 8001ad0:	e01b      	b.n	8001b0a <HAL_PCD_EP_DB_Transmit+0xfe>
 8001ad2:	68bb      	ldr	r3, [r7, #8]
 8001ad4:	785b      	ldrb	r3, [r3, #1]
 8001ad6:	2b01      	cmp	r3, #1
 8001ad8:	d117      	bne.n	8001b0a <HAL_PCD_EP_DB_Transmit+0xfe>
 8001ada:	68fb      	ldr	r3, [r7, #12]
 8001adc:	681b      	ldr	r3, [r3, #0]
 8001ade:	637b      	str	r3, [r7, #52]	; 0x34
 8001ae0:	68fb      	ldr	r3, [r7, #12]
 8001ae2:	681b      	ldr	r3, [r3, #0]
 8001ae4:	2250      	movs	r2, #80	; 0x50
 8001ae6:	5a9b      	ldrh	r3, [r3, r2]
 8001ae8:	b29b      	uxth	r3, r3
 8001aea:	001a      	movs	r2, r3
 8001aec:	6b7b      	ldr	r3, [r7, #52]	; 0x34
 8001aee:	189b      	adds	r3, r3, r2
 8001af0:	637b      	str	r3, [r7, #52]	; 0x34
 8001af2:	68bb      	ldr	r3, [r7, #8]
 8001af4:	781b      	ldrb	r3, [r3, #0]
 8001af6:	00da      	lsls	r2, r3, #3
 8001af8:	6b7b      	ldr	r3, [r7, #52]	; 0x34
 8001afa:	18d3      	adds	r3, r2, r3
 8001afc:	4aa1      	ldr	r2, [pc, #644]	; (8001d84 <HAL_PCD_EP_DB_Transmit+0x378>)
 8001afe:	4694      	mov	ip, r2
 8001b00:	4463      	add	r3, ip
 8001b02:	633b      	str	r3, [r7, #48]	; 0x30
 8001b04:	6b3b      	ldr	r3, [r7, #48]	; 0x30
 8001b06:	2200      	movs	r2, #0
 8001b08:	801a      	strh	r2, [r3, #0]
      PCD_SET_EP_DBUF1_CNT(hpcd->Instance, ep->num, ep->is_in, 0U);
 8001b0a:	68fb      	ldr	r3, [r7, #12]
 8001b0c:	681b      	ldr	r3, [r3, #0]
 8001b0e:	627b      	str	r3, [r7, #36]	; 0x24
 8001b10:	68bb      	ldr	r3, [r7, #8]
 8001b12:	785b      	ldrb	r3, [r3, #1]
 8001b14:	2b00      	cmp	r3, #0
 8001b16:	d125      	bne.n	8001b64 <HAL_PCD_EP_DB_Transmit+0x158>
 8001b18:	68fb      	ldr	r3, [r7, #12]
 8001b1a:	681b      	ldr	r3, [r3, #0]
 8001b1c:	61fb      	str	r3, [r7, #28]
 8001b1e:	68fb      	ldr	r3, [r7, #12]
 8001b20:	681b      	ldr	r3, [r3, #0]
 8001b22:	2250      	movs	r2, #80	; 0x50
 8001b24:	5a9b      	ldrh	r3, [r3, r2]
 8001b26:	b29b      	uxth	r3, r3
 8001b28:	001a      	movs	r2, r3
 8001b2a:	69fb      	ldr	r3, [r7, #28]
 8001b2c:	189b      	adds	r3, r3, r2
 8001b2e:	61fb      	str	r3, [r7, #28]
 8001b30:	68bb      	ldr	r3, [r7, #8]
 8001b32:	781b      	ldrb	r3, [r3, #0]
 8001b34:	00da      	lsls	r2, r3, #3
 8001b36:	69fb      	ldr	r3, [r7, #28]
 8001b38:	18d3      	adds	r3, r2, r3
 8001b3a:	4a94      	ldr	r2, [pc, #592]	; (8001d8c <HAL_PCD_EP_DB_Transmit+0x380>)
 8001b3c:	4694      	mov	ip, r2
 8001b3e:	4463      	add	r3, ip
 8001b40:	61bb      	str	r3, [r7, #24]
 8001b42:	69bb      	ldr	r3, [r7, #24]
 8001b44:	881b      	ldrh	r3, [r3, #0]
 8001b46:	b29b      	uxth	r3, r3
 8001b48:	059b      	lsls	r3, r3, #22
 8001b4a:	0d9b      	lsrs	r3, r3, #22
 8001b4c:	b29a      	uxth	r2, r3
 8001b4e:	69bb      	ldr	r3, [r7, #24]
 8001b50:	801a      	strh	r2, [r3, #0]
 8001b52:	69bb      	ldr	r3, [r7, #24]
 8001b54:	881b      	ldrh	r3, [r3, #0]
 8001b56:	b29b      	uxth	r3, r3
 8001b58:	4a8b      	ldr	r2, [pc, #556]	; (8001d88 <HAL_PCD_EP_DB_Transmit+0x37c>)
 8001b5a:	4313      	orrs	r3, r2
 8001b5c:	b29a      	uxth	r2, r3
 8001b5e:	69bb      	ldr	r3, [r7, #24]
 8001b60:	801a      	strh	r2, [r3, #0]
 8001b62:	e018      	b.n	8001b96 <HAL_PCD_EP_DB_Transmit+0x18a>
 8001b64:	68bb      	ldr	r3, [r7, #8]
 8001b66:	785b      	ldrb	r3, [r3, #1]
 8001b68:	2b01      	cmp	r3, #1
 8001b6a:	d114      	bne.n	8001b96 <HAL_PCD_EP_DB_Transmit+0x18a>
 8001b6c:	68fb      	ldr	r3, [r7, #12]
 8001b6e:	681b      	ldr	r3, [r3, #0]
 8001b70:	2250      	movs	r2, #80	; 0x50
 8001b72:	5a9b      	ldrh	r3, [r3, r2]
 8001b74:	b29b      	uxth	r3, r3
 8001b76:	001a      	movs	r2, r3
 8001b78:	6a7b      	ldr	r3, [r7, #36]	; 0x24
 8001b7a:	189b      	adds	r3, r3, r2
 8001b7c:	627b      	str	r3, [r7, #36]	; 0x24
 8001b7e:	68bb      	ldr	r3, [r7, #8]
 8001b80:	781b      	ldrb	r3, [r3, #0]
 8001b82:	00da      	lsls	r2, r3, #3
 8001b84:	6a7b      	ldr	r3, [r7, #36]	; 0x24
 8001b86:	18d3      	adds	r3, r2, r3
 8001b88:	4a80      	ldr	r2, [pc, #512]	; (8001d8c <HAL_PCD_EP_DB_Transmit+0x380>)
 8001b8a:	4694      	mov	ip, r2
 8001b8c:	4463      	add	r3, ip
 8001b8e:	623b      	str	r3, [r7, #32]
 8001b90:	6a3b      	ldr	r3, [r7, #32]
 8001b92:	2200      	movs	r2, #0
 8001b94:	801a      	strh	r2, [r3, #0]

      /* TX COMPLETE */
#if (USE_HAL_PCD_REGISTER_CALLBACKS == 1U)
      hpcd->DataInStageCallback(hpcd, ep->num);
#else
      HAL_PCD_DataInStageCallback(hpcd, ep->num);
 8001b96:	68bb      	ldr	r3, [r7, #8]
 8001b98:	781a      	ldrb	r2, [r3, #0]
 8001b9a:	68fb      	ldr	r3, [r7, #12]
 8001b9c:	0011      	movs	r1, r2
 8001b9e:	0018      	movs	r0, r3
 8001ba0:	f005 f86e 	bl	8006c80 <HAL_PCD_DataInStageCallback>
#endif /* USE_HAL_PCD_REGISTER_CALLBACKS */

      if ((wEPVal & USB_EP_DTOG_RX) != 0U)
 8001ba4:	1dbb      	adds	r3, r7, #6
 8001ba6:	881a      	ldrh	r2, [r3, #0]
 8001ba8:	2380      	movs	r3, #128	; 0x80
 8001baa:	01db      	lsls	r3, r3, #7
 8001bac:	4013      	ands	r3, r2
 8001bae:	d100      	bne.n	8001bb2 <HAL_PCD_EP_DB_Transmit+0x1a6>
 8001bb0:	e309      	b.n	80021c6 <HAL_PCD_EP_DB_Transmit+0x7ba>
      {
        PCD_FREE_USER_BUFFER(hpcd->Instance, ep->num, 1U);
 8001bb2:	68fb      	ldr	r3, [r7, #12]
 8001bb4:	681b      	ldr	r3, [r3, #0]
 8001bb6:	001a      	movs	r2, r3
 8001bb8:	68bb      	ldr	r3, [r7, #8]
 8001bba:	781b      	ldrb	r3, [r3, #0]
 8001bbc:	009b      	lsls	r3, r3, #2
 8001bbe:	18d3      	adds	r3, r2, r3
 8001bc0:	881b      	ldrh	r3, [r3, #0]
 8001bc2:	b29a      	uxth	r2, r3
 8001bc4:	2016      	movs	r0, #22
 8001bc6:	183b      	adds	r3, r7, r0
 8001bc8:	4971      	ldr	r1, [pc, #452]	; (8001d90 <HAL_PCD_EP_DB_Transmit+0x384>)
 8001bca:	400a      	ands	r2, r1
 8001bcc:	801a      	strh	r2, [r3, #0]
 8001bce:	68fb      	ldr	r3, [r7, #12]
 8001bd0:	681b      	ldr	r3, [r3, #0]
 8001bd2:	001a      	movs	r2, r3
 8001bd4:	68bb      	ldr	r3, [r7, #8]
 8001bd6:	781b      	ldrb	r3, [r3, #0]
 8001bd8:	009b      	lsls	r3, r3, #2
 8001bda:	18d3      	adds	r3, r2, r3
 8001bdc:	183a      	adds	r2, r7, r0
 8001bde:	8812      	ldrh	r2, [r2, #0]
 8001be0:	496c      	ldr	r1, [pc, #432]	; (8001d94 <HAL_PCD_EP_DB_Transmit+0x388>)
 8001be2:	430a      	orrs	r2, r1
 8001be4:	b292      	uxth	r2, r2
 8001be6:	801a      	strh	r2, [r3, #0]
 8001be8:	e2ed      	b.n	80021c6 <HAL_PCD_EP_DB_Transmit+0x7ba>
      }
    }
    else /* Transfer is not yet Done */
    {
      /* need to Free USB Buff */
      if ((wEPVal & USB_EP_DTOG_RX) != 0U)
 8001bea:	1dbb      	adds	r3, r7, #6
 8001bec:	881a      	ldrh	r2, [r3, #0]
 8001bee:	2380      	movs	r3, #128	; 0x80
 8001bf0:	01db      	lsls	r3, r3, #7
 8001bf2:	4013      	ands	r3, r2
 8001bf4:	d01a      	beq.n	8001c2c <HAL_PCD_EP_DB_Transmit+0x220>
      {
        PCD_FREE_USER_BUFFER(hpcd->Instance, ep->num, 1U);
 8001bf6:	68fb      	ldr	r3, [r7, #12]
 8001bf8:	681b      	ldr	r3, [r3, #0]
 8001bfa:	001a      	movs	r2, r3
 8001bfc:	68bb      	ldr	r3, [r7, #8]
 8001bfe:	781b      	ldrb	r3, [r3, #0]
 8001c00:	009b      	lsls	r3, r3, #2
 8001c02:	18d3      	adds	r3, r2, r3
 8001c04:	881b      	ldrh	r3, [r3, #0]
 8001c06:	b29a      	uxth	r2, r3
 8001c08:	208a      	movs	r0, #138	; 0x8a
 8001c0a:	183b      	adds	r3, r7, r0
 8001c0c:	4960      	ldr	r1, [pc, #384]	; (8001d90 <HAL_PCD_EP_DB_Transmit+0x384>)
 8001c0e:	400a      	ands	r2, r1
 8001c10:	801a      	strh	r2, [r3, #0]
 8001c12:	68fb      	ldr	r3, [r7, #12]
 8001c14:	681b      	ldr	r3, [r3, #0]
 8001c16:	001a      	movs	r2, r3
 8001c18:	68bb      	ldr	r3, [r7, #8]
 8001c1a:	781b      	ldrb	r3, [r3, #0]
 8001c1c:	009b      	lsls	r3, r3, #2
 8001c1e:	18d3      	adds	r3, r2, r3
 8001c20:	183a      	adds	r2, r7, r0
 8001c22:	8812      	ldrh	r2, [r2, #0]
 8001c24:	495b      	ldr	r1, [pc, #364]	; (8001d94 <HAL_PCD_EP_DB_Transmit+0x388>)
 8001c26:	430a      	orrs	r2, r1
 8001c28:	b292      	uxth	r2, r2
 8001c2a:	801a      	strh	r2, [r3, #0]
      }

      /* Still there is data to Fill in the next Buffer */
      if (ep->xfer_fill_db == 1U)
 8001c2c:	68bb      	ldr	r3, [r7, #8]
 8001c2e:	2224      	movs	r2, #36	; 0x24
 8001c30:	5c9b      	ldrb	r3, [r3, r2]
 8001c32:	2b01      	cmp	r3, #1
 8001c34:	d000      	beq.n	8001c38 <HAL_PCD_EP_DB_Transmit+0x22c>
 8001c36:	e2c6      	b.n	80021c6 <HAL_PCD_EP_DB_Transmit+0x7ba>
      {
        ep->xfer_buff += TxPctSize;
 8001c38:	68bb      	ldr	r3, [r7, #8]
 8001c3a:	695a      	ldr	r2, [r3, #20]
 8001c3c:	2186      	movs	r1, #134	; 0x86
 8001c3e:	187b      	adds	r3, r7, r1
 8001c40:	881b      	ldrh	r3, [r3, #0]
 8001c42:	18d2      	adds	r2, r2, r3
 8001c44:	68bb      	ldr	r3, [r7, #8]
 8001c46:	615a      	str	r2, [r3, #20]
        ep->xfer_count += TxPctSize;
 8001c48:	68bb      	ldr	r3, [r7, #8]
 8001c4a:	69da      	ldr	r2, [r3, #28]
 8001c4c:	187b      	adds	r3, r7, r1
 8001c4e:	881b      	ldrh	r3, [r3, #0]
 8001c50:	18d2      	adds	r2, r2, r3
 8001c52:	68bb      	ldr	r3, [r7, #8]
 8001c54:	61da      	str	r2, [r3, #28]

        /* Calculate the len of the new buffer to fill */
        if (ep->xfer_len_db >= ep->maxpacket)
 8001c56:	68bb      	ldr	r3, [r7, #8]
 8001c58:	6a1a      	ldr	r2, [r3, #32]
 8001c5a:	68bb      	ldr	r3, [r7, #8]
 8001c5c:	691b      	ldr	r3, [r3, #16]
 8001c5e:	429a      	cmp	r2, r3
 8001c60:	d30c      	bcc.n	8001c7c <HAL_PCD_EP_DB_Transmit+0x270>
        {
          len = ep->maxpacket;
 8001c62:	68bb      	ldr	r3, [r7, #8]
 8001c64:	691b      	ldr	r3, [r3, #16]
 8001c66:	218c      	movs	r1, #140	; 0x8c
 8001c68:	187a      	adds	r2, r7, r1
 8001c6a:	6013      	str	r3, [r2, #0]
          ep->xfer_len_db -= len;
 8001c6c:	68bb      	ldr	r3, [r7, #8]
 8001c6e:	6a1a      	ldr	r2, [r3, #32]
 8001c70:	187b      	adds	r3, r7, r1
 8001c72:	681b      	ldr	r3, [r3, #0]
 8001c74:	1ad2      	subs	r2, r2, r3
 8001c76:	68bb      	ldr	r3, [r7, #8]
 8001c78:	621a      	str	r2, [r3, #32]
 8001c7a:	e01a      	b.n	8001cb2 <HAL_PCD_EP_DB_Transmit+0x2a6>
        }
        else if (ep->xfer_len_db == 0U)
 8001c7c:	68bb      	ldr	r3, [r7, #8]
 8001c7e:	6a1b      	ldr	r3, [r3, #32]
 8001c80:	2b00      	cmp	r3, #0
 8001c82:	d10a      	bne.n	8001c9a <HAL_PCD_EP_DB_Transmit+0x28e>
        {
          len = TxPctSize;
 8001c84:	2386      	movs	r3, #134	; 0x86
 8001c86:	18fb      	adds	r3, r7, r3
 8001c88:	881b      	ldrh	r3, [r3, #0]
 8001c8a:	228c      	movs	r2, #140	; 0x8c
 8001c8c:	18ba      	adds	r2, r7, r2
 8001c8e:	6013      	str	r3, [r2, #0]
          ep->xfer_fill_db = 0U;
 8001c90:	68bb      	ldr	r3, [r7, #8]
 8001c92:	2224      	movs	r2, #36	; 0x24
 8001c94:	2100      	movs	r1, #0
 8001c96:	5499      	strb	r1, [r3, r2]
 8001c98:	e00b      	b.n	8001cb2 <HAL_PCD_EP_DB_Transmit+0x2a6>
        }
        else
        {
          ep->xfer_fill_db = 0U;
 8001c9a:	68bb      	ldr	r3, [r7, #8]
 8001c9c:	2224      	movs	r2, #36	; 0x24
 8001c9e:	2100      	movs	r1, #0
 8001ca0:	5499      	strb	r1, [r3, r2]
          len = ep->xfer_len_db;
 8001ca2:	68bb      	ldr	r3, [r7, #8]
 8001ca4:	6a1b      	ldr	r3, [r3, #32]
 8001ca6:	228c      	movs	r2, #140	; 0x8c
 8001ca8:	18ba      	adds	r2, r7, r2
 8001caa:	6013      	str	r3, [r2, #0]
          ep->xfer_len_db = 0U;
 8001cac:	68bb      	ldr	r3, [r7, #8]
 8001cae:	2200      	movs	r2, #0
 8001cb0:	621a      	str	r2, [r3, #32]
        }

        /* Write remaining Data to Buffer */
        /* Set the Double buffer counter for pma buffer1 */
        PCD_SET_EP_DBUF0_CNT(hpcd->Instance, ep->num, ep->is_in, len);
 8001cb2:	68bb      	ldr	r3, [r7, #8]
 8001cb4:	785b      	ldrb	r3, [r3, #1]
 8001cb6:	2b00      	cmp	r3, #0
 8001cb8:	d000      	beq.n	8001cbc <HAL_PCD_EP_DB_Transmit+0x2b0>
 8001cba:	e06d      	b.n	8001d98 <HAL_PCD_EP_DB_Transmit+0x38c>
 8001cbc:	68fb      	ldr	r3, [r7, #12]
 8001cbe:	681b      	ldr	r3, [r3, #0]
 8001cc0:	63fb      	str	r3, [r7, #60]	; 0x3c
 8001cc2:	68fb      	ldr	r3, [r7, #12]
 8001cc4:	681b      	ldr	r3, [r3, #0]
 8001cc6:	2250      	movs	r2, #80	; 0x50
 8001cc8:	5a9b      	ldrh	r3, [r3, r2]
 8001cca:	b29b      	uxth	r3, r3
 8001ccc:	001a      	movs	r2, r3
 8001cce:	6bfb      	ldr	r3, [r7, #60]	; 0x3c
 8001cd0:	189b      	adds	r3, r3, r2
 8001cd2:	63fb      	str	r3, [r7, #60]	; 0x3c
 8001cd4:	68bb      	ldr	r3, [r7, #8]
 8001cd6:	781b      	ldrb	r3, [r3, #0]
 8001cd8:	00da      	lsls	r2, r3, #3
 8001cda:	6bfb      	ldr	r3, [r7, #60]	; 0x3c
 8001cdc:	18d3      	adds	r3, r2, r3
 8001cde:	4a29      	ldr	r2, [pc, #164]	; (8001d84 <HAL_PCD_EP_DB_Transmit+0x378>)
 8001ce0:	4694      	mov	ip, r2
 8001ce2:	4463      	add	r3, ip
 8001ce4:	63bb      	str	r3, [r7, #56]	; 0x38
 8001ce6:	6bbb      	ldr	r3, [r7, #56]	; 0x38
 8001ce8:	881b      	ldrh	r3, [r3, #0]
 8001cea:	b29b      	uxth	r3, r3
 8001cec:	059b      	lsls	r3, r3, #22
 8001cee:	0d9b      	lsrs	r3, r3, #22
 8001cf0:	b29a      	uxth	r2, r3
 8001cf2:	6bbb      	ldr	r3, [r7, #56]	; 0x38
 8001cf4:	801a      	strh	r2, [r3, #0]
 8001cf6:	228c      	movs	r2, #140	; 0x8c
 8001cf8:	18bb      	adds	r3, r7, r2
 8001cfa:	681b      	ldr	r3, [r3, #0]
 8001cfc:	2b3e      	cmp	r3, #62	; 0x3e
 8001cfe:	d91a      	bls.n	8001d36 <HAL_PCD_EP_DB_Transmit+0x32a>
 8001d00:	18bb      	adds	r3, r7, r2
 8001d02:	681b      	ldr	r3, [r3, #0]
 8001d04:	095b      	lsrs	r3, r3, #5
 8001d06:	64bb      	str	r3, [r7, #72]	; 0x48
 8001d08:	18bb      	adds	r3, r7, r2
 8001d0a:	681b      	ldr	r3, [r3, #0]
 8001d0c:	221f      	movs	r2, #31
 8001d0e:	4013      	ands	r3, r2
 8001d10:	d102      	bne.n	8001d18 <HAL_PCD_EP_DB_Transmit+0x30c>
 8001d12:	6cbb      	ldr	r3, [r7, #72]	; 0x48
 8001d14:	3b01      	subs	r3, #1
 8001d16:	64bb      	str	r3, [r7, #72]	; 0x48
 8001d18:	6bbb      	ldr	r3, [r7, #56]	; 0x38
 8001d1a:	881b      	ldrh	r3, [r3, #0]
 8001d1c:	b29a      	uxth	r2, r3
 8001d1e:	6cbb      	ldr	r3, [r7, #72]	; 0x48
 8001d20:	b29b      	uxth	r3, r3
 8001d22:	029b      	lsls	r3, r3, #10
 8001d24:	b29b      	uxth	r3, r3
 8001d26:	4313      	orrs	r3, r2
 8001d28:	b29b      	uxth	r3, r3
 8001d2a:	4a17      	ldr	r2, [pc, #92]	; (8001d88 <HAL_PCD_EP_DB_Transmit+0x37c>)
 8001d2c:	4313      	orrs	r3, r2
 8001d2e:	b29a      	uxth	r2, r3
 8001d30:	6bbb      	ldr	r3, [r7, #56]	; 0x38
 8001d32:	801a      	strh	r2, [r3, #0]
 8001d34:	e04f      	b.n	8001dd6 <HAL_PCD_EP_DB_Transmit+0x3ca>
 8001d36:	238c      	movs	r3, #140	; 0x8c
 8001d38:	18fb      	adds	r3, r7, r3
 8001d3a:	681b      	ldr	r3, [r3, #0]
 8001d3c:	2b00      	cmp	r3, #0
 8001d3e:	d108      	bne.n	8001d52 <HAL_PCD_EP_DB_Transmit+0x346>
 8001d40:	6bbb      	ldr	r3, [r7, #56]	; 0x38
 8001d42:	881b      	ldrh	r3, [r3, #0]
 8001d44:	b29b      	uxth	r3, r3
 8001d46:	4a10      	ldr	r2, [pc, #64]	; (8001d88 <HAL_PCD_EP_DB_Transmit+0x37c>)
 8001d48:	4313      	orrs	r3, r2
 8001d4a:	b29a      	uxth	r2, r3
 8001d4c:	6bbb      	ldr	r3, [r7, #56]	; 0x38
 8001d4e:	801a      	strh	r2, [r3, #0]
 8001d50:	e041      	b.n	8001dd6 <HAL_PCD_EP_DB_Transmit+0x3ca>
 8001d52:	228c      	movs	r2, #140	; 0x8c
 8001d54:	18bb      	adds	r3, r7, r2
 8001d56:	681b      	ldr	r3, [r3, #0]
 8001d58:	085b      	lsrs	r3, r3, #1
 8001d5a:	64bb      	str	r3, [r7, #72]	; 0x48
 8001d5c:	18bb      	adds	r3, r7, r2
 8001d5e:	681b      	ldr	r3, [r3, #0]
 8001d60:	2201      	movs	r2, #1
 8001d62:	4013      	ands	r3, r2
 8001d64:	d002      	beq.n	8001d6c <HAL_PCD_EP_DB_Transmit+0x360>
 8001d66:	6cbb      	ldr	r3, [r7, #72]	; 0x48
 8001d68:	3301      	adds	r3, #1
 8001d6a:	64bb      	str	r3, [r7, #72]	; 0x48
 8001d6c:	6bbb      	ldr	r3, [r7, #56]	; 0x38
 8001d6e:	881b      	ldrh	r3, [r3, #0]
 8001d70:	b29a      	uxth	r2, r3
 8001d72:	6cbb      	ldr	r3, [r7, #72]	; 0x48
 8001d74:	b29b      	uxth	r3, r3
 8001d76:	029b      	lsls	r3, r3, #10
 8001d78:	b29b      	uxth	r3, r3
 8001d7a:	4313      	orrs	r3, r2
 8001d7c:	b29a      	uxth	r2, r3
 8001d7e:	6bbb      	ldr	r3, [r7, #56]	; 0x38
 8001d80:	801a      	strh	r2, [r3, #0]
 8001d82:	e028      	b.n	8001dd6 <HAL_PCD_EP_DB_Transmit+0x3ca>
 8001d84:	00000402 	.word	0x00000402
 8001d88:	ffff8000 	.word	0xffff8000
 8001d8c:	00000406 	.word	0x00000406
 8001d90:	ffff8f8f 	.word	0xffff8f8f
 8001d94:	ffffc080 	.word	0xffffc080
 8001d98:	68bb      	ldr	r3, [r7, #8]
 8001d9a:	785b      	ldrb	r3, [r3, #1]
 8001d9c:	2b01      	cmp	r3, #1
 8001d9e:	d11a      	bne.n	8001dd6 <HAL_PCD_EP_DB_Transmit+0x3ca>
 8001da0:	68fb      	ldr	r3, [r7, #12]
 8001da2:	681b      	ldr	r3, [r3, #0]
 8001da4:	647b      	str	r3, [r7, #68]	; 0x44
 8001da6:	68fb      	ldr	r3, [r7, #12]
 8001da8:	681b      	ldr	r3, [r3, #0]
 8001daa:	2250      	movs	r2, #80	; 0x50
 8001dac:	5a9b      	ldrh	r3, [r3, r2]
 8001dae:	b29b      	uxth	r3, r3
 8001db0:	001a      	movs	r2, r3
 8001db2:	6c7b      	ldr	r3, [r7, #68]	; 0x44
 8001db4:	189b      	adds	r3, r3, r2
 8001db6:	647b      	str	r3, [r7, #68]	; 0x44
 8001db8:	68bb      	ldr	r3, [r7, #8]
 8001dba:	781b      	ldrb	r3, [r3, #0]
 8001dbc:	00da      	lsls	r2, r3, #3
 8001dbe:	6c7b      	ldr	r3, [r7, #68]	; 0x44
 8001dc0:	18d3      	adds	r3, r2, r3
 8001dc2:	4adb      	ldr	r2, [pc, #876]	; (8002130 <HAL_PCD_EP_DB_Transmit+0x724>)
 8001dc4:	4694      	mov	ip, r2
 8001dc6:	4463      	add	r3, ip
 8001dc8:	643b      	str	r3, [r7, #64]	; 0x40
 8001dca:	238c      	movs	r3, #140	; 0x8c
 8001dcc:	18fb      	adds	r3, r7, r3
 8001dce:	681b      	ldr	r3, [r3, #0]
 8001dd0:	b29a      	uxth	r2, r3
 8001dd2:	6c3b      	ldr	r3, [r7, #64]	; 0x40
 8001dd4:	801a      	strh	r2, [r3, #0]

        /* Copy user buffer to USB PMA */
        USB_WritePMA(hpcd->Instance, ep->xfer_buff,  ep->pmaaddr0, (uint16_t)len);
 8001dd6:	68fb      	ldr	r3, [r7, #12]
 8001dd8:	6818      	ldr	r0, [r3, #0]
 8001dda:	68bb      	ldr	r3, [r7, #8]
 8001ddc:	6959      	ldr	r1, [r3, #20]
 8001dde:	68bb      	ldr	r3, [r7, #8]
 8001de0:	891a      	ldrh	r2, [r3, #8]
 8001de2:	238c      	movs	r3, #140	; 0x8c
 8001de4:	18fb      	adds	r3, r7, r3
 8001de6:	681b      	ldr	r3, [r3, #0]
 8001de8:	b29b      	uxth	r3, r3
 8001dea:	f003 f88f 	bl	8004f0c <USB_WritePMA>
 8001dee:	e1ea      	b.n	80021c6 <HAL_PCD_EP_DB_Transmit+0x7ba>
    }
  }
  else /* Data Buffer1 ACK received */
  {
    /* multi-packet on the NON control IN endpoint */
    TxPctSize = (uint16_t)PCD_GET_EP_DBUF1_CNT(hpcd->Instance, ep->num);
 8001df0:	68fb      	ldr	r3, [r7, #12]
 8001df2:	681b      	ldr	r3, [r3, #0]
 8001df4:	2250      	movs	r2, #80	; 0x50
 8001df6:	5a9b      	ldrh	r3, [r3, r2]
 8001df8:	b29b      	uxth	r3, r3
 8001dfa:	001a      	movs	r2, r3
 8001dfc:	68bb      	ldr	r3, [r7, #8]
 8001dfe:	781b      	ldrb	r3, [r3, #0]
 8001e00:	00db      	lsls	r3, r3, #3
 8001e02:	18d2      	adds	r2, r2, r3
 8001e04:	68fb      	ldr	r3, [r7, #12]
 8001e06:	681b      	ldr	r3, [r3, #0]
 8001e08:	18d3      	adds	r3, r2, r3
 8001e0a:	4aca      	ldr	r2, [pc, #808]	; (8002134 <HAL_PCD_EP_DB_Transmit+0x728>)
 8001e0c:	4694      	mov	ip, r2
 8001e0e:	4463      	add	r3, ip
 8001e10:	881a      	ldrh	r2, [r3, #0]
 8001e12:	2186      	movs	r1, #134	; 0x86
 8001e14:	187b      	adds	r3, r7, r1
 8001e16:	0592      	lsls	r2, r2, #22
 8001e18:	0d92      	lsrs	r2, r2, #22
 8001e1a:	801a      	strh	r2, [r3, #0]

    if (ep->xfer_len >= TxPctSize)
 8001e1c:	68bb      	ldr	r3, [r7, #8]
 8001e1e:	699a      	ldr	r2, [r3, #24]
 8001e20:	187b      	adds	r3, r7, r1
 8001e22:	881b      	ldrh	r3, [r3, #0]
 8001e24:	429a      	cmp	r2, r3
 8001e26:	d307      	bcc.n	8001e38 <HAL_PCD_EP_DB_Transmit+0x42c>
    {
      ep->xfer_len -= TxPctSize;
 8001e28:	68bb      	ldr	r3, [r7, #8]
 8001e2a:	699a      	ldr	r2, [r3, #24]
 8001e2c:	187b      	adds	r3, r7, r1
 8001e2e:	881b      	ldrh	r3, [r3, #0]
 8001e30:	1ad2      	subs	r2, r2, r3
 8001e32:	68bb      	ldr	r3, [r7, #8]
 8001e34:	619a      	str	r2, [r3, #24]
 8001e36:	e002      	b.n	8001e3e <HAL_PCD_EP_DB_Transmit+0x432>
    }
    else
    {
      ep->xfer_len = 0U;
 8001e38:	68bb      	ldr	r3, [r7, #8]
 8001e3a:	2200      	movs	r2, #0
 8001e3c:	619a      	str	r2, [r3, #24]
    }

    /* Transfer is completed */
    if (ep->xfer_len == 0U)
 8001e3e:	68bb      	ldr	r3, [r7, #8]
 8001e40:	699b      	ldr	r3, [r3, #24]
 8001e42:	2b00      	cmp	r3, #0
 8001e44:	d000      	beq.n	8001e48 <HAL_PCD_EP_DB_Transmit+0x43c>
 8001e46:	e0bb      	b.n	8001fc0 <HAL_PCD_EP_DB_Transmit+0x5b4>
    {
      PCD_SET_EP_DBUF0_CNT(hpcd->Instance, ep->num, ep->is_in, 0U);
 8001e48:	68bb      	ldr	r3, [r7, #8]
 8001e4a:	785b      	ldrb	r3, [r3, #1]
 8001e4c:	2b00      	cmp	r3, #0
 8001e4e:	d125      	bne.n	8001e9c <HAL_PCD_EP_DB_Transmit+0x490>
 8001e50:	68fb      	ldr	r3, [r7, #12]
 8001e52:	681b      	ldr	r3, [r3, #0]
 8001e54:	67fb      	str	r3, [r7, #124]	; 0x7c
 8001e56:	68fb      	ldr	r3, [r7, #12]
 8001e58:	681b      	ldr	r3, [r3, #0]
 8001e5a:	2250      	movs	r2, #80	; 0x50
 8001e5c:	5a9b      	ldrh	r3, [r3, r2]
 8001e5e:	b29b      	uxth	r3, r3
 8001e60:	001a      	movs	r2, r3
 8001e62:	6ffb      	ldr	r3, [r7, #124]	; 0x7c
 8001e64:	189b      	adds	r3, r3, r2
 8001e66:	67fb      	str	r3, [r7, #124]	; 0x7c
 8001e68:	68bb      	ldr	r3, [r7, #8]
 8001e6a:	781b      	ldrb	r3, [r3, #0]
 8001e6c:	00da      	lsls	r2, r3, #3
 8001e6e:	6ffb      	ldr	r3, [r7, #124]	; 0x7c
 8001e70:	18d3      	adds	r3, r2, r3
 8001e72:	4aaf      	ldr	r2, [pc, #700]	; (8002130 <HAL_PCD_EP_DB_Transmit+0x724>)
 8001e74:	4694      	mov	ip, r2
 8001e76:	4463      	add	r3, ip
 8001e78:	67bb      	str	r3, [r7, #120]	; 0x78
 8001e7a:	6fbb      	ldr	r3, [r7, #120]	; 0x78
 8001e7c:	881b      	ldrh	r3, [r3, #0]
 8001e7e:	b29b      	uxth	r3, r3
 8001e80:	059b      	lsls	r3, r3, #22
 8001e82:	0d9b      	lsrs	r3, r3, #22
 8001e84:	b29a      	uxth	r2, r3
 8001e86:	6fbb      	ldr	r3, [r7, #120]	; 0x78
 8001e88:	801a      	strh	r2, [r3, #0]
 8001e8a:	6fbb      	ldr	r3, [r7, #120]	; 0x78
 8001e8c:	881b      	ldrh	r3, [r3, #0]
 8001e8e:	b29b      	uxth	r3, r3
 8001e90:	4aa9      	ldr	r2, [pc, #676]	; (8002138 <HAL_PCD_EP_DB_Transmit+0x72c>)
 8001e92:	4313      	orrs	r3, r2
 8001e94:	b29a      	uxth	r2, r3
 8001e96:	6fbb      	ldr	r3, [r7, #120]	; 0x78
 8001e98:	801a      	strh	r2, [r3, #0]
 8001e9a:	e01b      	b.n	8001ed4 <HAL_PCD_EP_DB_Transmit+0x4c8>
 8001e9c:	68bb      	ldr	r3, [r7, #8]
 8001e9e:	785b      	ldrb	r3, [r3, #1]
 8001ea0:	2b01      	cmp	r3, #1
 8001ea2:	d117      	bne.n	8001ed4 <HAL_PCD_EP_DB_Transmit+0x4c8>
 8001ea4:	68fb      	ldr	r3, [r7, #12]
 8001ea6:	681b      	ldr	r3, [r3, #0]
 8001ea8:	667b      	str	r3, [r7, #100]	; 0x64
 8001eaa:	68fb      	ldr	r3, [r7, #12]
 8001eac:	681b      	ldr	r3, [r3, #0]
 8001eae:	2250      	movs	r2, #80	; 0x50
 8001eb0:	5a9b      	ldrh	r3, [r3, r2]
 8001eb2:	b29b      	uxth	r3, r3
 8001eb4:	001a      	movs	r2, r3
 8001eb6:	6e7b      	ldr	r3, [r7, #100]	; 0x64
 8001eb8:	189b      	adds	r3, r3, r2
 8001eba:	667b      	str	r3, [r7, #100]	; 0x64
 8001ebc:	68bb      	ldr	r3, [r7, #8]
 8001ebe:	781b      	ldrb	r3, [r3, #0]
 8001ec0:	00da      	lsls	r2, r3, #3
 8001ec2:	6e7b      	ldr	r3, [r7, #100]	; 0x64
 8001ec4:	18d3      	adds	r3, r2, r3
 8001ec6:	4a9a      	ldr	r2, [pc, #616]	; (8002130 <HAL_PCD_EP_DB_Transmit+0x724>)
 8001ec8:	4694      	mov	ip, r2
 8001eca:	4463      	add	r3, ip
 8001ecc:	663b      	str	r3, [r7, #96]	; 0x60
 8001ece:	6e3b      	ldr	r3, [r7, #96]	; 0x60
 8001ed0:	2200      	movs	r2, #0
 8001ed2:	801a      	strh	r2, [r3, #0]
      PCD_SET_EP_DBUF1_CNT(hpcd->Instance, ep->num, ep->is_in, 0U);
 8001ed4:	68fb      	ldr	r3, [r7, #12]
 8001ed6:	681b      	ldr	r3, [r3, #0]
 8001ed8:	677b      	str	r3, [r7, #116]	; 0x74
 8001eda:	68bb      	ldr	r3, [r7, #8]
 8001edc:	785b      	ldrb	r3, [r3, #1]
 8001ede:	2b00      	cmp	r3, #0
 8001ee0:	d12b      	bne.n	8001f3a <HAL_PCD_EP_DB_Transmit+0x52e>
 8001ee2:	68fb      	ldr	r3, [r7, #12]
 8001ee4:	681b      	ldr	r3, [r3, #0]
 8001ee6:	66fb      	str	r3, [r7, #108]	; 0x6c
 8001ee8:	68fb      	ldr	r3, [r7, #12]
 8001eea:	681b      	ldr	r3, [r3, #0]
 8001eec:	2250      	movs	r2, #80	; 0x50
 8001eee:	5a9b      	ldrh	r3, [r3, r2]
 8001ef0:	b29b      	uxth	r3, r3
 8001ef2:	001a      	movs	r2, r3
 8001ef4:	6efb      	ldr	r3, [r7, #108]	; 0x6c
 8001ef6:	189b      	adds	r3, r3, r2
 8001ef8:	66fb      	str	r3, [r7, #108]	; 0x6c
 8001efa:	68bb      	ldr	r3, [r7, #8]
 8001efc:	781b      	ldrb	r3, [r3, #0]
 8001efe:	00da      	lsls	r2, r3, #3
 8001f00:	6efb      	ldr	r3, [r7, #108]	; 0x6c
 8001f02:	18d3      	adds	r3, r2, r3
 8001f04:	4a8b      	ldr	r2, [pc, #556]	; (8002134 <HAL_PCD_EP_DB_Transmit+0x728>)
 8001f06:	4694      	mov	ip, r2
 8001f08:	4463      	add	r3, ip
 8001f0a:	2180      	movs	r1, #128	; 0x80
 8001f0c:	187a      	adds	r2, r7, r1
 8001f0e:	6013      	str	r3, [r2, #0]
 8001f10:	187b      	adds	r3, r7, r1
 8001f12:	681b      	ldr	r3, [r3, #0]
 8001f14:	881b      	ldrh	r3, [r3, #0]
 8001f16:	b29b      	uxth	r3, r3
 8001f18:	059b      	lsls	r3, r3, #22
 8001f1a:	0d9b      	lsrs	r3, r3, #22
 8001f1c:	b29a      	uxth	r2, r3
 8001f1e:	187b      	adds	r3, r7, r1
 8001f20:	681b      	ldr	r3, [r3, #0]
 8001f22:	801a      	strh	r2, [r3, #0]
 8001f24:	187b      	adds	r3, r7, r1
 8001f26:	681b      	ldr	r3, [r3, #0]
 8001f28:	881b      	ldrh	r3, [r3, #0]
 8001f2a:	b29b      	uxth	r3, r3
 8001f2c:	4a82      	ldr	r2, [pc, #520]	; (8002138 <HAL_PCD_EP_DB_Transmit+0x72c>)
 8001f2e:	4313      	orrs	r3, r2
 8001f30:	b29a      	uxth	r2, r3
 8001f32:	187b      	adds	r3, r7, r1
 8001f34:	681b      	ldr	r3, [r3, #0]
 8001f36:	801a      	strh	r2, [r3, #0]
 8001f38:	e018      	b.n	8001f6c <HAL_PCD_EP_DB_Transmit+0x560>
 8001f3a:	68bb      	ldr	r3, [r7, #8]
 8001f3c:	785b      	ldrb	r3, [r3, #1]
 8001f3e:	2b01      	cmp	r3, #1
 8001f40:	d114      	bne.n	8001f6c <HAL_PCD_EP_DB_Transmit+0x560>
 8001f42:	68fb      	ldr	r3, [r7, #12]
 8001f44:	681b      	ldr	r3, [r3, #0]
 8001f46:	2250      	movs	r2, #80	; 0x50
 8001f48:	5a9b      	ldrh	r3, [r3, r2]
 8001f4a:	b29b      	uxth	r3, r3
 8001f4c:	001a      	movs	r2, r3
 8001f4e:	6f7b      	ldr	r3, [r7, #116]	; 0x74
 8001f50:	189b      	adds	r3, r3, r2
 8001f52:	677b      	str	r3, [r7, #116]	; 0x74
 8001f54:	68bb      	ldr	r3, [r7, #8]
 8001f56:	781b      	ldrb	r3, [r3, #0]
 8001f58:	00da      	lsls	r2, r3, #3
 8001f5a:	6f7b      	ldr	r3, [r7, #116]	; 0x74
 8001f5c:	18d3      	adds	r3, r2, r3
 8001f5e:	4a75      	ldr	r2, [pc, #468]	; (8002134 <HAL_PCD_EP_DB_Transmit+0x728>)
 8001f60:	4694      	mov	ip, r2
 8001f62:	4463      	add	r3, ip
 8001f64:	673b      	str	r3, [r7, #112]	; 0x70
 8001f66:	6f3b      	ldr	r3, [r7, #112]	; 0x70
 8001f68:	2200      	movs	r2, #0
 8001f6a:	801a      	strh	r2, [r3, #0]

      /* TX COMPLETE */
#if (USE_HAL_PCD_REGISTER_CALLBACKS == 1U)
      hpcd->DataInStageCallback(hpcd, ep->num);
#else
      HAL_PCD_DataInStageCallback(hpcd, ep->num);
 8001f6c:	68bb      	ldr	r3, [r7, #8]
 8001f6e:	781a      	ldrb	r2, [r3, #0]
 8001f70:	68fb      	ldr	r3, [r7, #12]
 8001f72:	0011      	movs	r1, r2
 8001f74:	0018      	movs	r0, r3
 8001f76:	f004 fe83 	bl	8006c80 <HAL_PCD_DataInStageCallback>
#endif /* USE_HAL_PCD_REGISTER_CALLBACKS */

      /* need to Free USB Buff */
      if ((wEPVal & USB_EP_DTOG_RX) == 0U)
 8001f7a:	1dbb      	adds	r3, r7, #6
 8001f7c:	881a      	ldrh	r2, [r3, #0]
 8001f7e:	2380      	movs	r3, #128	; 0x80
 8001f80:	01db      	lsls	r3, r3, #7
 8001f82:	4013      	ands	r3, r2
 8001f84:	d000      	beq.n	8001f88 <HAL_PCD_EP_DB_Transmit+0x57c>
 8001f86:	e11e      	b.n	80021c6 <HAL_PCD_EP_DB_Transmit+0x7ba>
      {
        PCD_FREE_USER_BUFFER(hpcd->Instance, ep->num, 1U);
 8001f88:	68fb      	ldr	r3, [r7, #12]
 8001f8a:	681b      	ldr	r3, [r3, #0]
 8001f8c:	001a      	movs	r2, r3
 8001f8e:	68bb      	ldr	r3, [r7, #8]
 8001f90:	781b      	ldrb	r3, [r3, #0]
 8001f92:	009b      	lsls	r3, r3, #2
 8001f94:	18d3      	adds	r3, r2, r3
 8001f96:	881b      	ldrh	r3, [r3, #0]
 8001f98:	b29a      	uxth	r2, r3
 8001f9a:	2088      	movs	r0, #136	; 0x88
 8001f9c:	183b      	adds	r3, r7, r0
 8001f9e:	4967      	ldr	r1, [pc, #412]	; (800213c <HAL_PCD_EP_DB_Transmit+0x730>)
 8001fa0:	400a      	ands	r2, r1
 8001fa2:	801a      	strh	r2, [r3, #0]
 8001fa4:	68fb      	ldr	r3, [r7, #12]
 8001fa6:	681b      	ldr	r3, [r3, #0]
 8001fa8:	001a      	movs	r2, r3
 8001faa:	68bb      	ldr	r3, [r7, #8]
 8001fac:	781b      	ldrb	r3, [r3, #0]
 8001fae:	009b      	lsls	r3, r3, #2
 8001fb0:	18d3      	adds	r3, r2, r3
 8001fb2:	183a      	adds	r2, r7, r0
 8001fb4:	8812      	ldrh	r2, [r2, #0]
 8001fb6:	4962      	ldr	r1, [pc, #392]	; (8002140 <HAL_PCD_EP_DB_Transmit+0x734>)
 8001fb8:	430a      	orrs	r2, r1
 8001fba:	b292      	uxth	r2, r2
 8001fbc:	801a      	strh	r2, [r3, #0]
 8001fbe:	e102      	b.n	80021c6 <HAL_PCD_EP_DB_Transmit+0x7ba>
      }
    }
    else /* Transfer is not yet Done */
    {
      /* need to Free USB Buff */
      if ((wEPVal & USB_EP_DTOG_RX) == 0U)
 8001fc0:	1dbb      	adds	r3, r7, #6
 8001fc2:	881a      	ldrh	r2, [r3, #0]
 8001fc4:	2380      	movs	r3, #128	; 0x80
 8001fc6:	01db      	lsls	r3, r3, #7
 8001fc8:	4013      	ands	r3, r2
 8001fca:	d11a      	bne.n	8002002 <HAL_PCD_EP_DB_Transmit+0x5f6>
      {
        PCD_FREE_USER_BUFFER(hpcd->Instance, ep->num, 1U);
 8001fcc:	68fb      	ldr	r3, [r7, #12]
 8001fce:	681b      	ldr	r3, [r3, #0]
 8001fd0:	001a      	movs	r2, r3
 8001fd2:	68bb      	ldr	r3, [r7, #8]
 8001fd4:	781b      	ldrb	r3, [r3, #0]
 8001fd6:	009b      	lsls	r3, r3, #2
 8001fd8:	18d3      	adds	r3, r2, r3
 8001fda:	881b      	ldrh	r3, [r3, #0]
 8001fdc:	b29a      	uxth	r2, r3
 8001fde:	204e      	movs	r0, #78	; 0x4e
 8001fe0:	183b      	adds	r3, r7, r0
 8001fe2:	4956      	ldr	r1, [pc, #344]	; (800213c <HAL_PCD_EP_DB_Transmit+0x730>)
 8001fe4:	400a      	ands	r2, r1
 8001fe6:	801a      	strh	r2, [r3, #0]
 8001fe8:	68fb      	ldr	r3, [r7, #12]
 8001fea:	681b      	ldr	r3, [r3, #0]
 8001fec:	001a      	movs	r2, r3
 8001fee:	68bb      	ldr	r3, [r7, #8]
 8001ff0:	781b      	ldrb	r3, [r3, #0]
 8001ff2:	009b      	lsls	r3, r3, #2
 8001ff4:	18d3      	adds	r3, r2, r3
 8001ff6:	183a      	adds	r2, r7, r0
 8001ff8:	8812      	ldrh	r2, [r2, #0]
 8001ffa:	4951      	ldr	r1, [pc, #324]	; (8002140 <HAL_PCD_EP_DB_Transmit+0x734>)
 8001ffc:	430a      	orrs	r2, r1
 8001ffe:	b292      	uxth	r2, r2
 8002000:	801a      	strh	r2, [r3, #0]
      }

      /* Still there is data to Fill in the next Buffer */
      if (ep->xfer_fill_db == 1U)
 8002002:	68bb      	ldr	r3, [r7, #8]
 8002004:	2224      	movs	r2, #36	; 0x24
 8002006:	5c9b      	ldrb	r3, [r3, r2]
 8002008:	2b01      	cmp	r3, #1
 800200a:	d000      	beq.n	800200e <HAL_PCD_EP_DB_Transmit+0x602>
 800200c:	e0db      	b.n	80021c6 <HAL_PCD_EP_DB_Transmit+0x7ba>
      {
        ep->xfer_buff += TxPctSize;
 800200e:	68bb      	ldr	r3, [r7, #8]
 8002010:	695a      	ldr	r2, [r3, #20]
 8002012:	2186      	movs	r1, #134	; 0x86
 8002014:	187b      	adds	r3, r7, r1
 8002016:	881b      	ldrh	r3, [r3, #0]
 8002018:	18d2      	adds	r2, r2, r3
 800201a:	68bb      	ldr	r3, [r7, #8]
 800201c:	615a      	str	r2, [r3, #20]
        ep->xfer_count += TxPctSize;
 800201e:	68bb      	ldr	r3, [r7, #8]
 8002020:	69da      	ldr	r2, [r3, #28]
 8002022:	187b      	adds	r3, r7, r1
 8002024:	881b      	ldrh	r3, [r3, #0]
 8002026:	18d2      	adds	r2, r2, r3
 8002028:	68bb      	ldr	r3, [r7, #8]
 800202a:	61da      	str	r2, [r3, #28]

        /* Calculate the len of the new buffer to fill */
        if (ep->xfer_len_db >= ep->maxpacket)
 800202c:	68bb      	ldr	r3, [r7, #8]
 800202e:	6a1a      	ldr	r2, [r3, #32]
 8002030:	68bb      	ldr	r3, [r7, #8]
 8002032:	691b      	ldr	r3, [r3, #16]
 8002034:	429a      	cmp	r2, r3
 8002036:	d30c      	bcc.n	8002052 <HAL_PCD_EP_DB_Transmit+0x646>
        {
          len = ep->maxpacket;
 8002038:	68bb      	ldr	r3, [r7, #8]
 800203a:	691b      	ldr	r3, [r3, #16]
 800203c:	218c      	movs	r1, #140	; 0x8c
 800203e:	187a      	adds	r2, r7, r1
 8002040:	6013      	str	r3, [r2, #0]
          ep->xfer_len_db -= len;
 8002042:	68bb      	ldr	r3, [r7, #8]
 8002044:	6a1a      	ldr	r2, [r3, #32]
 8002046:	187b      	adds	r3, r7, r1
 8002048:	681b      	ldr	r3, [r3, #0]
 800204a:	1ad2      	subs	r2, r2, r3
 800204c:	68bb      	ldr	r3, [r7, #8]
 800204e:	621a      	str	r2, [r3, #32]
 8002050:	e01a      	b.n	8002088 <HAL_PCD_EP_DB_Transmit+0x67c>
        }
        else if (ep->xfer_len_db == 0U)
 8002052:	68bb      	ldr	r3, [r7, #8]
 8002054:	6a1b      	ldr	r3, [r3, #32]
 8002056:	2b00      	cmp	r3, #0
 8002058:	d10a      	bne.n	8002070 <HAL_PCD_EP_DB_Transmit+0x664>
        {
          len = TxPctSize;
 800205a:	2386      	movs	r3, #134	; 0x86
 800205c:	18fb      	adds	r3, r7, r3
 800205e:	881b      	ldrh	r3, [r3, #0]
 8002060:	228c      	movs	r2, #140	; 0x8c
 8002062:	18ba      	adds	r2, r7, r2
 8002064:	6013      	str	r3, [r2, #0]
          ep->xfer_fill_db = 0U;
 8002066:	68bb      	ldr	r3, [r7, #8]
 8002068:	2224      	movs	r2, #36	; 0x24
 800206a:	2100      	movs	r1, #0
 800206c:	5499      	strb	r1, [r3, r2]
 800206e:	e00b      	b.n	8002088 <HAL_PCD_EP_DB_Transmit+0x67c>
        }
        else
        {
          len = ep->xfer_len_db;
 8002070:	68bb      	ldr	r3, [r7, #8]
 8002072:	6a1b      	ldr	r3, [r3, #32]
 8002074:	228c      	movs	r2, #140	; 0x8c
 8002076:	18ba      	adds	r2, r7, r2
 8002078:	6013      	str	r3, [r2, #0]
          ep->xfer_len_db = 0U;
 800207a:	68bb      	ldr	r3, [r7, #8]
 800207c:	2200      	movs	r2, #0
 800207e:	621a      	str	r2, [r3, #32]
          ep->xfer_fill_db = 0;
 8002080:	68bb      	ldr	r3, [r7, #8]
 8002082:	2224      	movs	r2, #36	; 0x24
 8002084:	2100      	movs	r1, #0
 8002086:	5499      	strb	r1, [r3, r2]
        }

        /* Set the Double buffer counter for pmabuffer1 */
        PCD_SET_EP_DBUF1_CNT(hpcd->Instance, ep->num, ep->is_in, len);
 8002088:	68fb      	ldr	r3, [r7, #12]
 800208a:	681b      	ldr	r3, [r3, #0]
 800208c:	657b      	str	r3, [r7, #84]	; 0x54
 800208e:	68bb      	ldr	r3, [r7, #8]
 8002090:	785b      	ldrb	r3, [r3, #1]
 8002092:	2b00      	cmp	r3, #0
 8002094:	d000      	beq.n	8002098 <HAL_PCD_EP_DB_Transmit+0x68c>
 8002096:	e06e      	b.n	8002176 <HAL_PCD_EP_DB_Transmit+0x76a>
 8002098:	68fb      	ldr	r3, [r7, #12]
 800209a:	681b      	ldr	r3, [r3, #0]
 800209c:	65fb      	str	r3, [r7, #92]	; 0x5c
 800209e:	68fb      	ldr	r3, [r7, #12]
 80020a0:	681b      	ldr	r3, [r3, #0]
 80020a2:	2250      	movs	r2, #80	; 0x50
 80020a4:	5a9b      	ldrh	r3, [r3, r2]
 80020a6:	b29b      	uxth	r3, r3
 80020a8:	001a      	movs	r2, r3
 80020aa:	6dfb      	ldr	r3, [r7, #92]	; 0x5c
 80020ac:	189b      	adds	r3, r3, r2
 80020ae:	65fb      	str	r3, [r7, #92]	; 0x5c
 80020b0:	68bb      	ldr	r3, [r7, #8]
 80020b2:	781b      	ldrb	r3, [r3, #0]
 80020b4:	00da      	lsls	r2, r3, #3
 80020b6:	6dfb      	ldr	r3, [r7, #92]	; 0x5c
 80020b8:	18d3      	adds	r3, r2, r3
 80020ba:	4a1e      	ldr	r2, [pc, #120]	; (8002134 <HAL_PCD_EP_DB_Transmit+0x728>)
 80020bc:	4694      	mov	ip, r2
 80020be:	4463      	add	r3, ip
 80020c0:	65bb      	str	r3, [r7, #88]	; 0x58
 80020c2:	6dbb      	ldr	r3, [r7, #88]	; 0x58
 80020c4:	881b      	ldrh	r3, [r3, #0]
 80020c6:	b29b      	uxth	r3, r3
 80020c8:	059b      	lsls	r3, r3, #22
 80020ca:	0d9b      	lsrs	r3, r3, #22
 80020cc:	b29a      	uxth	r2, r3
 80020ce:	6dbb      	ldr	r3, [r7, #88]	; 0x58
 80020d0:	801a      	strh	r2, [r3, #0]
 80020d2:	228c      	movs	r2, #140	; 0x8c
 80020d4:	18bb      	adds	r3, r7, r2
 80020d6:	681b      	ldr	r3, [r3, #0]
 80020d8:	2b3e      	cmp	r3, #62	; 0x3e
 80020da:	d91a      	bls.n	8002112 <HAL_PCD_EP_DB_Transmit+0x706>
 80020dc:	18bb      	adds	r3, r7, r2
 80020de:	681b      	ldr	r3, [r3, #0]
 80020e0:	095b      	lsrs	r3, r3, #5
 80020e2:	66bb      	str	r3, [r7, #104]	; 0x68
 80020e4:	18bb      	adds	r3, r7, r2
 80020e6:	681b      	ldr	r3, [r3, #0]
 80020e8:	221f      	movs	r2, #31
 80020ea:	4013      	ands	r3, r2
 80020ec:	d102      	bne.n	80020f4 <HAL_PCD_EP_DB_Transmit+0x6e8>
 80020ee:	6ebb      	ldr	r3, [r7, #104]	; 0x68
 80020f0:	3b01      	subs	r3, #1
 80020f2:	66bb      	str	r3, [r7, #104]	; 0x68
 80020f4:	6dbb      	ldr	r3, [r7, #88]	; 0x58
 80020f6:	881b      	ldrh	r3, [r3, #0]
 80020f8:	b29a      	uxth	r2, r3
 80020fa:	6ebb      	ldr	r3, [r7, #104]	; 0x68
 80020fc:	b29b      	uxth	r3, r3
 80020fe:	029b      	lsls	r3, r3, #10
 8002100:	b29b      	uxth	r3, r3
 8002102:	4313      	orrs	r3, r2
 8002104:	b29b      	uxth	r3, r3
 8002106:	4a0c      	ldr	r2, [pc, #48]	; (8002138 <HAL_PCD_EP_DB_Transmit+0x72c>)
 8002108:	4313      	orrs	r3, r2
 800210a:	b29a      	uxth	r2, r3
 800210c:	6dbb      	ldr	r3, [r7, #88]	; 0x58
 800210e:	801a      	strh	r2, [r3, #0]
 8002110:	e04d      	b.n	80021ae <HAL_PCD_EP_DB_Transmit+0x7a2>
 8002112:	238c      	movs	r3, #140	; 0x8c
 8002114:	18fb      	adds	r3, r7, r3
 8002116:	681b      	ldr	r3, [r3, #0]
 8002118:	2b00      	cmp	r3, #0
 800211a:	d113      	bne.n	8002144 <HAL_PCD_EP_DB_Transmit+0x738>
 800211c:	6dbb      	ldr	r3, [r7, #88]	; 0x58
 800211e:	881b      	ldrh	r3, [r3, #0]
 8002120:	b29b      	uxth	r3, r3
 8002122:	4a05      	ldr	r2, [pc, #20]	; (8002138 <HAL_PCD_EP_DB_Transmit+0x72c>)
 8002124:	4313      	orrs	r3, r2
 8002126:	b29a      	uxth	r2, r3
 8002128:	6dbb      	ldr	r3, [r7, #88]	; 0x58
 800212a:	801a      	strh	r2, [r3, #0]
 800212c:	e03f      	b.n	80021ae <HAL_PCD_EP_DB_Transmit+0x7a2>
 800212e:	46c0      	nop			; (mov r8, r8)
 8002130:	00000402 	.word	0x00000402
 8002134:	00000406 	.word	0x00000406
 8002138:	ffff8000 	.word	0xffff8000
 800213c:	ffff8f8f 	.word	0xffff8f8f
 8002140:	ffffc080 	.word	0xffffc080
 8002144:	228c      	movs	r2, #140	; 0x8c
 8002146:	18bb      	adds	r3, r7, r2
 8002148:	681b      	ldr	r3, [r3, #0]
 800214a:	085b      	lsrs	r3, r3, #1
 800214c:	66bb      	str	r3, [r7, #104]	; 0x68
 800214e:	18bb      	adds	r3, r7, r2
 8002150:	681b      	ldr	r3, [r3, #0]
 8002152:	2201      	movs	r2, #1
 8002154:	4013      	ands	r3, r2
 8002156:	d002      	beq.n	800215e <HAL_PCD_EP_DB_Transmit+0x752>
 8002158:	6ebb      	ldr	r3, [r7, #104]	; 0x68
 800215a:	3301      	adds	r3, #1
 800215c:	66bb      	str	r3, [r7, #104]	; 0x68
 800215e:	6dbb      	ldr	r3, [r7, #88]	; 0x58
 8002160:	881b      	ldrh	r3, [r3, #0]
 8002162:	b29a      	uxth	r2, r3
 8002164:	6ebb      	ldr	r3, [r7, #104]	; 0x68
 8002166:	b29b      	uxth	r3, r3
 8002168:	029b      	lsls	r3, r3, #10
 800216a:	b29b      	uxth	r3, r3
 800216c:	4313      	orrs	r3, r2
 800216e:	b29a      	uxth	r2, r3
 8002170:	6dbb      	ldr	r3, [r7, #88]	; 0x58
 8002172:	801a      	strh	r2, [r3, #0]
 8002174:	e01b      	b.n	80021ae <HAL_PCD_EP_DB_Transmit+0x7a2>
 8002176:	68bb      	ldr	r3, [r7, #8]
 8002178:	785b      	ldrb	r3, [r3, #1]
 800217a:	2b01      	cmp	r3, #1
 800217c:	d117      	bne.n	80021ae <HAL_PCD_EP_DB_Transmit+0x7a2>
 800217e:	68fb      	ldr	r3, [r7, #12]
 8002180:	681b      	ldr	r3, [r3, #0]
 8002182:	2250      	movs	r2, #80	; 0x50
 8002184:	5a9b      	ldrh	r3, [r3, r2]
 8002186:	b29b      	uxth	r3, r3
 8002188:	001a      	movs	r2, r3
 800218a:	6d7b      	ldr	r3, [r7, #84]	; 0x54
 800218c:	189b      	adds	r3, r3, r2
 800218e:	657b      	str	r3, [r7, #84]	; 0x54
 8002190:	68bb      	ldr	r3, [r7, #8]
 8002192:	781b      	ldrb	r3, [r3, #0]
 8002194:	00da      	lsls	r2, r3, #3
 8002196:	6d7b      	ldr	r3, [r7, #84]	; 0x54
 8002198:	18d3      	adds	r3, r2, r3
 800219a:	4a21      	ldr	r2, [pc, #132]	; (8002220 <HAL_PCD_EP_DB_Transmit+0x814>)
 800219c:	4694      	mov	ip, r2
 800219e:	4463      	add	r3, ip
 80021a0:	653b      	str	r3, [r7, #80]	; 0x50
 80021a2:	238c      	movs	r3, #140	; 0x8c
 80021a4:	18fb      	adds	r3, r7, r3
 80021a6:	681b      	ldr	r3, [r3, #0]
 80021a8:	b29a      	uxth	r2, r3
 80021aa:	6d3b      	ldr	r3, [r7, #80]	; 0x50
 80021ac:	801a      	strh	r2, [r3, #0]

        /* Copy the user buffer to USB PMA */
        USB_WritePMA(hpcd->Instance, ep->xfer_buff,  ep->pmaaddr1, (uint16_t)len);
 80021ae:	68fb      	ldr	r3, [r7, #12]
 80021b0:	6818      	ldr	r0, [r3, #0]
 80021b2:	68bb      	ldr	r3, [r7, #8]
 80021b4:	6959      	ldr	r1, [r3, #20]
 80021b6:	68bb      	ldr	r3, [r7, #8]
 80021b8:	895a      	ldrh	r2, [r3, #10]
 80021ba:	238c      	movs	r3, #140	; 0x8c
 80021bc:	18fb      	adds	r3, r7, r3
 80021be:	681b      	ldr	r3, [r3, #0]
 80021c0:	b29b      	uxth	r3, r3
 80021c2:	f002 fea3 	bl	8004f0c <USB_WritePMA>
      }
    }
  }

  /*enable endpoint IN*/
  PCD_SET_EP_TX_STATUS(hpcd->Instance, ep->num, USB_EP_TX_VALID);
 80021c6:	68fb      	ldr	r3, [r7, #12]
 80021c8:	681b      	ldr	r3, [r3, #0]
 80021ca:	001a      	movs	r2, r3
 80021cc:	68bb      	ldr	r3, [r7, #8]
 80021ce:	781b      	ldrb	r3, [r3, #0]
 80021d0:	009b      	lsls	r3, r3, #2
 80021d2:	18d3      	adds	r3, r2, r3
 80021d4:	881b      	ldrh	r3, [r3, #0]
 80021d6:	b29a      	uxth	r2, r3
 80021d8:	2014      	movs	r0, #20
 80021da:	183b      	adds	r3, r7, r0
 80021dc:	4911      	ldr	r1, [pc, #68]	; (8002224 <HAL_PCD_EP_DB_Transmit+0x818>)
 80021de:	400a      	ands	r2, r1
 80021e0:	801a      	strh	r2, [r3, #0]
 80021e2:	183b      	adds	r3, r7, r0
 80021e4:	183a      	adds	r2, r7, r0
 80021e6:	8812      	ldrh	r2, [r2, #0]
 80021e8:	2110      	movs	r1, #16
 80021ea:	404a      	eors	r2, r1
 80021ec:	801a      	strh	r2, [r3, #0]
 80021ee:	183b      	adds	r3, r7, r0
 80021f0:	183a      	adds	r2, r7, r0
 80021f2:	8812      	ldrh	r2, [r2, #0]
 80021f4:	2120      	movs	r1, #32
 80021f6:	404a      	eors	r2, r1
 80021f8:	801a      	strh	r2, [r3, #0]
 80021fa:	68fb      	ldr	r3, [r7, #12]
 80021fc:	681b      	ldr	r3, [r3, #0]
 80021fe:	001a      	movs	r2, r3
 8002200:	68bb      	ldr	r3, [r7, #8]
 8002202:	781b      	ldrb	r3, [r3, #0]
 8002204:	009b      	lsls	r3, r3, #2
 8002206:	18d3      	adds	r3, r2, r3
 8002208:	183a      	adds	r2, r7, r0
 800220a:	8812      	ldrh	r2, [r2, #0]
 800220c:	4906      	ldr	r1, [pc, #24]	; (8002228 <HAL_PCD_EP_DB_Transmit+0x81c>)
 800220e:	430a      	orrs	r2, r1
 8002210:	b292      	uxth	r2, r2
 8002212:	801a      	strh	r2, [r3, #0]

  return HAL_OK;
 8002214:	2300      	movs	r3, #0
}
 8002216:	0018      	movs	r0, r3
 8002218:	46bd      	mov	sp, r7
 800221a:	b024      	add	sp, #144	; 0x90
 800221c:	bd80      	pop	{r7, pc}
 800221e:	46c0      	nop			; (mov r8, r8)
 8002220:	00000406 	.word	0x00000406
 8002224:	ffff8fbf 	.word	0xffff8fbf
 8002228:	ffff8080 	.word	0xffff8080

0800222c <HAL_PCDEx_PMAConfig>:
  * @retval HAL status
  */

HAL_StatusTypeDef  HAL_PCDEx_PMAConfig(PCD_HandleTypeDef *hpcd, uint16_t ep_addr,
                                       uint16_t ep_kind, uint32_t pmaadress)
{
 800222c:	b590      	push	{r4, r7, lr}
 800222e:	b087      	sub	sp, #28
 8002230:	af00      	add	r7, sp, #0
 8002232:	60f8      	str	r0, [r7, #12]
 8002234:	0008      	movs	r0, r1
 8002236:	0011      	movs	r1, r2
 8002238:	607b      	str	r3, [r7, #4]
 800223a:	240a      	movs	r4, #10
 800223c:	193b      	adds	r3, r7, r4
 800223e:	1c02      	adds	r2, r0, #0
 8002240:	801a      	strh	r2, [r3, #0]
 8002242:	2308      	movs	r3, #8
 8002244:	18fb      	adds	r3, r7, r3
 8002246:	1c0a      	adds	r2, r1, #0
 8002248:	801a      	strh	r2, [r3, #0]
  PCD_EPTypeDef *ep;

  /* initialize ep structure*/
  if ((0x80U & ep_addr) == 0x80U)
 800224a:	0021      	movs	r1, r4
 800224c:	187b      	adds	r3, r7, r1
 800224e:	881b      	ldrh	r3, [r3, #0]
 8002250:	2280      	movs	r2, #128	; 0x80
 8002252:	4013      	ands	r3, r2
 8002254:	b29b      	uxth	r3, r3
 8002256:	2b00      	cmp	r3, #0
 8002258:	d00c      	beq.n	8002274 <HAL_PCDEx_PMAConfig+0x48>
  {
    ep = &hpcd->IN_ep[ep_addr & EP_ADDR_MSK];
 800225a:	187b      	adds	r3, r7, r1
 800225c:	881b      	ldrh	r3, [r3, #0]
 800225e:	2207      	movs	r2, #7
 8002260:	4013      	ands	r3, r2
 8002262:	1c5a      	adds	r2, r3, #1
 8002264:	0013      	movs	r3, r2
 8002266:	009b      	lsls	r3, r3, #2
 8002268:	189b      	adds	r3, r3, r2
 800226a:	00db      	lsls	r3, r3, #3
 800226c:	68fa      	ldr	r2, [r7, #12]
 800226e:	18d3      	adds	r3, r2, r3
 8002270:	617b      	str	r3, [r7, #20]
 8002272:	e00b      	b.n	800228c <HAL_PCDEx_PMAConfig+0x60>
  }
  else
  {
    ep = &hpcd->OUT_ep[ep_addr];
 8002274:	230a      	movs	r3, #10
 8002276:	18fb      	adds	r3, r7, r3
 8002278:	881a      	ldrh	r2, [r3, #0]
 800227a:	0013      	movs	r3, r2
 800227c:	009b      	lsls	r3, r3, #2
 800227e:	189b      	adds	r3, r3, r2
 8002280:	00db      	lsls	r3, r3, #3
 8002282:	3369      	adds	r3, #105	; 0x69
 8002284:	33ff      	adds	r3, #255	; 0xff
 8002286:	68fa      	ldr	r2, [r7, #12]
 8002288:	18d3      	adds	r3, r2, r3
 800228a:	617b      	str	r3, [r7, #20]
  }

  /* Here we check if the endpoint is single or double Buffer*/
  if (ep_kind == PCD_SNG_BUF)
 800228c:	2308      	movs	r3, #8
 800228e:	18fb      	adds	r3, r7, r3
 8002290:	881b      	ldrh	r3, [r3, #0]
 8002292:	2b00      	cmp	r3, #0
 8002294:	d107      	bne.n	80022a6 <HAL_PCDEx_PMAConfig+0x7a>
  {
    /* Single Buffer */
    ep->doublebuffer = 0U;
 8002296:	697b      	ldr	r3, [r7, #20]
 8002298:	2200      	movs	r2, #0
 800229a:	731a      	strb	r2, [r3, #12]
    /* Configure the PMA */
    ep->pmaadress = (uint16_t)pmaadress;
 800229c:	687b      	ldr	r3, [r7, #4]
 800229e:	b29a      	uxth	r2, r3
 80022a0:	697b      	ldr	r3, [r7, #20]
 80022a2:	80da      	strh	r2, [r3, #6]
 80022a4:	e00b      	b.n	80022be <HAL_PCDEx_PMAConfig+0x92>
  }
#if (USE_USB_DOUBLE_BUFFER == 1U)
  else /* USB_DBL_BUF */
  {
    /* Double Buffer Endpoint */
    ep->doublebuffer = 1U;
 80022a6:	697b      	ldr	r3, [r7, #20]
 80022a8:	2201      	movs	r2, #1
 80022aa:	731a      	strb	r2, [r3, #12]
    /* Configure the PMA */
    ep->pmaaddr0 = (uint16_t)(pmaadress & 0xFFFFU);
 80022ac:	687b      	ldr	r3, [r7, #4]
 80022ae:	b29a      	uxth	r2, r3
 80022b0:	697b      	ldr	r3, [r7, #20]
 80022b2:	811a      	strh	r2, [r3, #8]
    ep->pmaaddr1 = (uint16_t)((pmaadress & 0xFFFF0000U) >> 16);
 80022b4:	687b      	ldr	r3, [r7, #4]
 80022b6:	0c1b      	lsrs	r3, r3, #16
 80022b8:	b29a      	uxth	r2, r3
 80022ba:	697b      	ldr	r3, [r7, #20]
 80022bc:	815a      	strh	r2, [r3, #10]
  }
#endif /* (USE_USB_DOUBLE_BUFFER == 1U) */

  return HAL_OK;
 80022be:	2300      	movs	r3, #0
}
 80022c0:	0018      	movs	r0, r3
 80022c2:	46bd      	mov	sp, r7
 80022c4:	b007      	add	sp, #28
 80022c6:	bd90      	pop	{r4, r7, pc}

080022c8 <HAL_PCDEx_ActivateLPM>:
  * @brief  Activate LPM feature.
  * @param  hpcd PCD handle
  * @retval HAL status
  */
HAL_StatusTypeDef HAL_PCDEx_ActivateLPM(PCD_HandleTypeDef *hpcd)
{
 80022c8:	b580      	push	{r7, lr}
 80022ca:	b084      	sub	sp, #16
 80022cc:	af00      	add	r7, sp, #0
 80022ce:	6078      	str	r0, [r7, #4]

  USB_TypeDef *USBx = hpcd->Instance;
 80022d0:	687b      	ldr	r3, [r7, #4]
 80022d2:	681b      	ldr	r3, [r3, #0]
 80022d4:	60fb      	str	r3, [r7, #12]
  hpcd->lpm_active = 1U;
 80022d6:	687a      	ldr	r2, [r7, #4]
 80022d8:	23ba      	movs	r3, #186	; 0xba
 80022da:	009b      	lsls	r3, r3, #2
 80022dc:	2101      	movs	r1, #1
 80022de:	50d1      	str	r1, [r2, r3]
  hpcd->LPM_State = LPM_L0;
 80022e0:	687a      	ldr	r2, [r7, #4]
 80022e2:	23b8      	movs	r3, #184	; 0xb8
 80022e4:	009b      	lsls	r3, r3, #2
 80022e6:	2100      	movs	r1, #0
 80022e8:	54d1      	strb	r1, [r2, r3]

  USBx->LPMCSR |= USB_LPMCSR_LMPEN;
 80022ea:	68fb      	ldr	r3, [r7, #12]
 80022ec:	2254      	movs	r2, #84	; 0x54
 80022ee:	5a9b      	ldrh	r3, [r3, r2]
 80022f0:	b29b      	uxth	r3, r3
 80022f2:	2201      	movs	r2, #1
 80022f4:	4313      	orrs	r3, r2
 80022f6:	b299      	uxth	r1, r3
 80022f8:	68fb      	ldr	r3, [r7, #12]
 80022fa:	2254      	movs	r2, #84	; 0x54
 80022fc:	5299      	strh	r1, [r3, r2]
  USBx->LPMCSR |= USB_LPMCSR_LPMACK;
 80022fe:	68fb      	ldr	r3, [r7, #12]
 8002300:	2254      	movs	r2, #84	; 0x54
 8002302:	5a9b      	ldrh	r3, [r3, r2]
 8002304:	b29b      	uxth	r3, r3
 8002306:	2202      	movs	r2, #2
 8002308:	4313      	orrs	r3, r2
 800230a:	b299      	uxth	r1, r3
 800230c:	68fb      	ldr	r3, [r7, #12]
 800230e:	2254      	movs	r2, #84	; 0x54
 8002310:	5299      	strh	r1, [r3, r2]

  return HAL_OK;
 8002312:	2300      	movs	r3, #0
}
 8002314:	0018      	movs	r0, r3
 8002316:	46bd      	mov	sp, r7
 8002318:	b004      	add	sp, #16
 800231a:	bd80      	pop	{r7, pc}

0800231c <HAL_PCDEx_LPM_Callback>:
  * @param  hpcd PCD handle
  * @param  msg LPM message
  * @retval HAL status
  */
__weak void HAL_PCDEx_LPM_Callback(PCD_HandleTypeDef *hpcd, PCD_LPM_MsgTypeDef msg)
{
 800231c:	b580      	push	{r7, lr}
 800231e:	b082      	sub	sp, #8
 8002320:	af00      	add	r7, sp, #0
 8002322:	6078      	str	r0, [r7, #4]
 8002324:	000a      	movs	r2, r1
 8002326:	1cfb      	adds	r3, r7, #3
 8002328:	701a      	strb	r2, [r3, #0]
  UNUSED(msg);

  /* NOTE : This function should not be modified, when the callback is needed,
            the HAL_PCDEx_LPM_Callback could be implemented in the user file
   */
}
 800232a:	46c0      	nop			; (mov r8, r8)
 800232c:	46bd      	mov	sp, r7
 800232e:	b002      	add	sp, #8
 8002330:	bd80      	pop	{r7, pc}
	...

08002334 <HAL_RCC_OscConfig>:
  *         supported by this macro. User should request a transition to HSE Off
  *         first and then HSE On or HSE Bypass.
  * @retval HAL status
  */
HAL_StatusTypeDef HAL_RCC_OscConfig(RCC_OscInitTypeDef  *RCC_OscInitStruct)
{
 8002334:	b580      	push	{r7, lr}
 8002336:	b088      	sub	sp, #32
 8002338:	af00      	add	r7, sp, #0
 800233a:	6078      	str	r0, [r7, #4]
  uint32_t tickstart;
  uint32_t pll_config;
  uint32_t pll_config2;

  /* Check Null pointer */
  if(RCC_OscInitStruct == NULL)
 800233c:	687b      	ldr	r3, [r7, #4]
 800233e:	2b00      	cmp	r3, #0
 8002340:	d102      	bne.n	8002348 <HAL_RCC_OscConfig+0x14>
  {
    return HAL_ERROR;
 8002342:	2301      	movs	r3, #1
 8002344:	f000 fb76 	bl	8002a34 <HAL_RCC_OscConfig+0x700>

  /* Check the parameters */
  assert_param(IS_RCC_OSCILLATORTYPE(RCC_OscInitStruct->OscillatorType));

  /*------------------------------- HSE Configuration ------------------------*/ 
  if(((RCC_OscInitStruct->OscillatorType) & RCC_OSCILLATORTYPE_HSE) == RCC_OSCILLATORTYPE_HSE)
 8002348:	687b      	ldr	r3, [r7, #4]
 800234a:	681b      	ldr	r3, [r3, #0]
 800234c:	2201      	movs	r2, #1
 800234e:	4013      	ands	r3, r2
 8002350:	d100      	bne.n	8002354 <HAL_RCC_OscConfig+0x20>
 8002352:	e08e      	b.n	8002472 <HAL_RCC_OscConfig+0x13e>
  {
    /* Check the parameters */
    assert_param(IS_RCC_HSE(RCC_OscInitStruct->HSEState));

    /* When the HSE is used as system clock or clock source for PLL in these cases it is not allowed to be disabled */
    if((__HAL_RCC_GET_SYSCLK_SOURCE() == RCC_SYSCLKSOURCE_STATUS_HSE) 
 8002354:	4bc5      	ldr	r3, [pc, #788]	; (800266c <HAL_RCC_OscConfig+0x338>)
 8002356:	685b      	ldr	r3, [r3, #4]
 8002358:	220c      	movs	r2, #12
 800235a:	4013      	ands	r3, r2
 800235c:	2b04      	cmp	r3, #4
 800235e:	d00e      	beq.n	800237e <HAL_RCC_OscConfig+0x4a>
       || ((__HAL_RCC_GET_SYSCLK_SOURCE() == RCC_SYSCLKSOURCE_STATUS_PLLCLK) && (__HAL_RCC_GET_PLL_OSCSOURCE() == RCC_PLLSOURCE_HSE)))
 8002360:	4bc2      	ldr	r3, [pc, #776]	; (800266c <HAL_RCC_OscConfig+0x338>)
 8002362:	685b      	ldr	r3, [r3, #4]
 8002364:	220c      	movs	r2, #12
 8002366:	4013      	ands	r3, r2
 8002368:	2b08      	cmp	r3, #8
 800236a:	d117      	bne.n	800239c <HAL_RCC_OscConfig+0x68>
 800236c:	4bbf      	ldr	r3, [pc, #764]	; (800266c <HAL_RCC_OscConfig+0x338>)
 800236e:	685a      	ldr	r2, [r3, #4]
 8002370:	23c0      	movs	r3, #192	; 0xc0
 8002372:	025b      	lsls	r3, r3, #9
 8002374:	401a      	ands	r2, r3
 8002376:	2380      	movs	r3, #128	; 0x80
 8002378:	025b      	lsls	r3, r3, #9
 800237a:	429a      	cmp	r2, r3
 800237c:	d10e      	bne.n	800239c <HAL_RCC_OscConfig+0x68>
    {
      if((__HAL_RCC_GET_FLAG(RCC_FLAG_HSERDY) != RESET) && (RCC_OscInitStruct->HSEState == RCC_HSE_OFF))
 800237e:	4bbb      	ldr	r3, [pc, #748]	; (800266c <HAL_RCC_OscConfig+0x338>)
 8002380:	681a      	ldr	r2, [r3, #0]
 8002382:	2380      	movs	r3, #128	; 0x80
 8002384:	029b      	lsls	r3, r3, #10
 8002386:	4013      	ands	r3, r2
 8002388:	d100      	bne.n	800238c <HAL_RCC_OscConfig+0x58>
 800238a:	e071      	b.n	8002470 <HAL_RCC_OscConfig+0x13c>
 800238c:	687b      	ldr	r3, [r7, #4]
 800238e:	685b      	ldr	r3, [r3, #4]
 8002390:	2b00      	cmp	r3, #0
 8002392:	d000      	beq.n	8002396 <HAL_RCC_OscConfig+0x62>
 8002394:	e06c      	b.n	8002470 <HAL_RCC_OscConfig+0x13c>
      {
        return HAL_ERROR;
 8002396:	2301      	movs	r3, #1
 8002398:	f000 fb4c 	bl	8002a34 <HAL_RCC_OscConfig+0x700>
      }
    }
    else
    {
      /* Set the new HSE configuration ---------------------------------------*/
      __HAL_RCC_HSE_CONFIG(RCC_OscInitStruct->HSEState);
 800239c:	687b      	ldr	r3, [r7, #4]
 800239e:	685b      	ldr	r3, [r3, #4]
 80023a0:	2b01      	cmp	r3, #1
 80023a2:	d107      	bne.n	80023b4 <HAL_RCC_OscConfig+0x80>
 80023a4:	4bb1      	ldr	r3, [pc, #708]	; (800266c <HAL_RCC_OscConfig+0x338>)
 80023a6:	681a      	ldr	r2, [r3, #0]
 80023a8:	4bb0      	ldr	r3, [pc, #704]	; (800266c <HAL_RCC_OscConfig+0x338>)
 80023aa:	2180      	movs	r1, #128	; 0x80
 80023ac:	0249      	lsls	r1, r1, #9
 80023ae:	430a      	orrs	r2, r1
 80023b0:	601a      	str	r2, [r3, #0]
 80023b2:	e02f      	b.n	8002414 <HAL_RCC_OscConfig+0xe0>
 80023b4:	687b      	ldr	r3, [r7, #4]
 80023b6:	685b      	ldr	r3, [r3, #4]
 80023b8:	2b00      	cmp	r3, #0
 80023ba:	d10c      	bne.n	80023d6 <HAL_RCC_OscConfig+0xa2>
 80023bc:	4bab      	ldr	r3, [pc, #684]	; (800266c <HAL_RCC_OscConfig+0x338>)
 80023be:	681a      	ldr	r2, [r3, #0]
 80023c0:	4baa      	ldr	r3, [pc, #680]	; (800266c <HAL_RCC_OscConfig+0x338>)
 80023c2:	49ab      	ldr	r1, [pc, #684]	; (8002670 <HAL_RCC_OscConfig+0x33c>)
 80023c4:	400a      	ands	r2, r1
 80023c6:	601a      	str	r2, [r3, #0]
 80023c8:	4ba8      	ldr	r3, [pc, #672]	; (800266c <HAL_RCC_OscConfig+0x338>)
 80023ca:	681a      	ldr	r2, [r3, #0]
 80023cc:	4ba7      	ldr	r3, [pc, #668]	; (800266c <HAL_RCC_OscConfig+0x338>)
 80023ce:	49a9      	ldr	r1, [pc, #676]	; (8002674 <HAL_RCC_OscConfig+0x340>)
 80023d0:	400a      	ands	r2, r1
 80023d2:	601a      	str	r2, [r3, #0]
 80023d4:	e01e      	b.n	8002414 <HAL_RCC_OscConfig+0xe0>
 80023d6:	687b      	ldr	r3, [r7, #4]
 80023d8:	685b      	ldr	r3, [r3, #4]
 80023da:	2b05      	cmp	r3, #5
 80023dc:	d10e      	bne.n	80023fc <HAL_RCC_OscConfig+0xc8>
 80023de:	4ba3      	ldr	r3, [pc, #652]	; (800266c <HAL_RCC_OscConfig+0x338>)
 80023e0:	681a      	ldr	r2, [r3, #0]
 80023e2:	4ba2      	ldr	r3, [pc, #648]	; (800266c <HAL_RCC_OscConfig+0x338>)
 80023e4:	2180      	movs	r1, #128	; 0x80
 80023e6:	02c9      	lsls	r1, r1, #11
 80023e8:	430a      	orrs	r2, r1
 80023ea:	601a      	str	r2, [r3, #0]
 80023ec:	4b9f      	ldr	r3, [pc, #636]	; (800266c <HAL_RCC_OscConfig+0x338>)
 80023ee:	681a      	ldr	r2, [r3, #0]
 80023f0:	4b9e      	ldr	r3, [pc, #632]	; (800266c <HAL_RCC_OscConfig+0x338>)
 80023f2:	2180      	movs	r1, #128	; 0x80
 80023f4:	0249      	lsls	r1, r1, #9
 80023f6:	430a      	orrs	r2, r1
 80023f8:	601a      	str	r2, [r3, #0]
 80023fa:	e00b      	b.n	8002414 <HAL_RCC_OscConfig+0xe0>
 80023fc:	4b9b      	ldr	r3, [pc, #620]	; (800266c <HAL_RCC_OscConfig+0x338>)
 80023fe:	681a      	ldr	r2, [r3, #0]
 8002400:	4b9a      	ldr	r3, [pc, #616]	; (800266c <HAL_RCC_OscConfig+0x338>)
 8002402:	499b      	ldr	r1, [pc, #620]	; (8002670 <HAL_RCC_OscConfig+0x33c>)
 8002404:	400a      	ands	r2, r1
 8002406:	601a      	str	r2, [r3, #0]
 8002408:	4b98      	ldr	r3, [pc, #608]	; (800266c <HAL_RCC_OscConfig+0x338>)
 800240a:	681a      	ldr	r2, [r3, #0]
 800240c:	4b97      	ldr	r3, [pc, #604]	; (800266c <HAL_RCC_OscConfig+0x338>)
 800240e:	4999      	ldr	r1, [pc, #612]	; (8002674 <HAL_RCC_OscConfig+0x340>)
 8002410:	400a      	ands	r2, r1
 8002412:	601a      	str	r2, [r3, #0]
      

       /* Check the HSE State */
      if(RCC_OscInitStruct->HSEState != RCC_HSE_OFF)
 8002414:	687b      	ldr	r3, [r7, #4]
 8002416:	685b      	ldr	r3, [r3, #4]
 8002418:	2b00      	cmp	r3, #0
 800241a:	d014      	beq.n	8002446 <HAL_RCC_OscConfig+0x112>
      {
        /* Get Start Tick */
        tickstart = HAL_GetTick();
 800241c:	f7fe f86a 	bl	80004f4 <HAL_GetTick>
 8002420:	0003      	movs	r3, r0
 8002422:	61bb      	str	r3, [r7, #24]
        
        /* Wait till HSE is ready */
        while(__HAL_RCC_GET_FLAG(RCC_FLAG_HSERDY) == RESET)
 8002424:	e008      	b.n	8002438 <HAL_RCC_OscConfig+0x104>
        {
          if((HAL_GetTick() - tickstart ) > HSE_TIMEOUT_VALUE)
 8002426:	f7fe f865 	bl	80004f4 <HAL_GetTick>
 800242a:	0002      	movs	r2, r0
 800242c:	69bb      	ldr	r3, [r7, #24]
 800242e:	1ad3      	subs	r3, r2, r3
 8002430:	2b64      	cmp	r3, #100	; 0x64
 8002432:	d901      	bls.n	8002438 <HAL_RCC_OscConfig+0x104>
          {
            return HAL_TIMEOUT;
 8002434:	2303      	movs	r3, #3
 8002436:	e2fd      	b.n	8002a34 <HAL_RCC_OscConfig+0x700>
        while(__HAL_RCC_GET_FLAG(RCC_FLAG_HSERDY) == RESET)
 8002438:	4b8c      	ldr	r3, [pc, #560]	; (800266c <HAL_RCC_OscConfig+0x338>)
 800243a:	681a      	ldr	r2, [r3, #0]
 800243c:	2380      	movs	r3, #128	; 0x80
 800243e:	029b      	lsls	r3, r3, #10
 8002440:	4013      	ands	r3, r2
 8002442:	d0f0      	beq.n	8002426 <HAL_RCC_OscConfig+0xf2>
 8002444:	e015      	b.n	8002472 <HAL_RCC_OscConfig+0x13e>
        }
      }
      else
      {
        /* Get Start Tick */
        tickstart = HAL_GetTick();
 8002446:	f7fe f855 	bl	80004f4 <HAL_GetTick>
 800244a:	0003      	movs	r3, r0
 800244c:	61bb      	str	r3, [r7, #24]
        
        /* Wait till HSE is disabled */
        while(__HAL_RCC_GET_FLAG(RCC_FLAG_HSERDY) != RESET)
 800244e:	e008      	b.n	8002462 <HAL_RCC_OscConfig+0x12e>
        {
           if((HAL_GetTick() - tickstart ) > HSE_TIMEOUT_VALUE)
 8002450:	f7fe f850 	bl	80004f4 <HAL_GetTick>
 8002454:	0002      	movs	r2, r0
 8002456:	69bb      	ldr	r3, [r7, #24]
 8002458:	1ad3      	subs	r3, r2, r3
 800245a:	2b64      	cmp	r3, #100	; 0x64
 800245c:	d901      	bls.n	8002462 <HAL_RCC_OscConfig+0x12e>
          {
            return HAL_TIMEOUT;
 800245e:	2303      	movs	r3, #3
 8002460:	e2e8      	b.n	8002a34 <HAL_RCC_OscConfig+0x700>
        while(__HAL_RCC_GET_FLAG(RCC_FLAG_HSERDY) != RESET)
 8002462:	4b82      	ldr	r3, [pc, #520]	; (800266c <HAL_RCC_OscConfig+0x338>)
 8002464:	681a      	ldr	r2, [r3, #0]
 8002466:	2380      	movs	r3, #128	; 0x80
 8002468:	029b      	lsls	r3, r3, #10
 800246a:	4013      	ands	r3, r2
 800246c:	d1f0      	bne.n	8002450 <HAL_RCC_OscConfig+0x11c>
 800246e:	e000      	b.n	8002472 <HAL_RCC_OscConfig+0x13e>
      if((__HAL_RCC_GET_FLAG(RCC_FLAG_HSERDY) != RESET) && (RCC_OscInitStruct->HSEState == RCC_HSE_OFF))
 8002470:	46c0      	nop			; (mov r8, r8)
        }
      }
    }
  }
  /*----------------------------- HSI Configuration --------------------------*/ 
  if(((RCC_OscInitStruct->OscillatorType) & RCC_OSCILLATORTYPE_HSI) == RCC_OSCILLATORTYPE_HSI)
 8002472:	687b      	ldr	r3, [r7, #4]
 8002474:	681b      	ldr	r3, [r3, #0]
 8002476:	2202      	movs	r2, #2
 8002478:	4013      	ands	r3, r2
 800247a:	d100      	bne.n	800247e <HAL_RCC_OscConfig+0x14a>
 800247c:	e06c      	b.n	8002558 <HAL_RCC_OscConfig+0x224>
    /* Check the parameters */
    assert_param(IS_RCC_HSI(RCC_OscInitStruct->HSIState));
    assert_param(IS_RCC_CALIBRATION_VALUE(RCC_OscInitStruct->HSICalibrationValue));
    
    /* Check if HSI is used as system clock or as PLL source when PLL is selected as system clock */ 
    if((__HAL_RCC_GET_SYSCLK_SOURCE() == RCC_SYSCLKSOURCE_STATUS_HSI) 
 800247e:	4b7b      	ldr	r3, [pc, #492]	; (800266c <HAL_RCC_OscConfig+0x338>)
 8002480:	685b      	ldr	r3, [r3, #4]
 8002482:	220c      	movs	r2, #12
 8002484:	4013      	ands	r3, r2
 8002486:	d00e      	beq.n	80024a6 <HAL_RCC_OscConfig+0x172>
       || ((__HAL_RCC_GET_SYSCLK_SOURCE() == RCC_SYSCLKSOURCE_STATUS_PLLCLK) && (__HAL_RCC_GET_PLL_OSCSOURCE() == RCC_PLLSOURCE_HSI)))
 8002488:	4b78      	ldr	r3, [pc, #480]	; (800266c <HAL_RCC_OscConfig+0x338>)
 800248a:	685b      	ldr	r3, [r3, #4]
 800248c:	220c      	movs	r2, #12
 800248e:	4013      	ands	r3, r2
 8002490:	2b08      	cmp	r3, #8
 8002492:	d11f      	bne.n	80024d4 <HAL_RCC_OscConfig+0x1a0>
 8002494:	4b75      	ldr	r3, [pc, #468]	; (800266c <HAL_RCC_OscConfig+0x338>)
 8002496:	685a      	ldr	r2, [r3, #4]
 8002498:	23c0      	movs	r3, #192	; 0xc0
 800249a:	025b      	lsls	r3, r3, #9
 800249c:	401a      	ands	r2, r3
 800249e:	2380      	movs	r3, #128	; 0x80
 80024a0:	021b      	lsls	r3, r3, #8
 80024a2:	429a      	cmp	r2, r3
 80024a4:	d116      	bne.n	80024d4 <HAL_RCC_OscConfig+0x1a0>
    {
      /* When HSI is used as system clock it will not disabled */
      if((__HAL_RCC_GET_FLAG(RCC_FLAG_HSIRDY) != RESET) && (RCC_OscInitStruct->HSIState != RCC_HSI_ON))
 80024a6:	4b71      	ldr	r3, [pc, #452]	; (800266c <HAL_RCC_OscConfig+0x338>)
 80024a8:	681b      	ldr	r3, [r3, #0]
 80024aa:	2202      	movs	r2, #2
 80024ac:	4013      	ands	r3, r2
 80024ae:	d005      	beq.n	80024bc <HAL_RCC_OscConfig+0x188>
 80024b0:	687b      	ldr	r3, [r7, #4]
 80024b2:	68db      	ldr	r3, [r3, #12]
 80024b4:	2b01      	cmp	r3, #1
 80024b6:	d001      	beq.n	80024bc <HAL_RCC_OscConfig+0x188>
      {
        return HAL_ERROR;
 80024b8:	2301      	movs	r3, #1
 80024ba:	e2bb      	b.n	8002a34 <HAL_RCC_OscConfig+0x700>
      }
      /* Otherwise, just the calibration is allowed */
      else
      {
        /* Adjusts the Internal High Speed oscillator (HSI) calibration value.*/
        __HAL_RCC_HSI_CALIBRATIONVALUE_ADJUST(RCC_OscInitStruct->HSICalibrationValue);
 80024bc:	4b6b      	ldr	r3, [pc, #428]	; (800266c <HAL_RCC_OscConfig+0x338>)
 80024be:	681b      	ldr	r3, [r3, #0]
 80024c0:	22f8      	movs	r2, #248	; 0xf8
 80024c2:	4393      	bics	r3, r2
 80024c4:	0019      	movs	r1, r3
 80024c6:	687b      	ldr	r3, [r7, #4]
 80024c8:	691b      	ldr	r3, [r3, #16]
 80024ca:	00da      	lsls	r2, r3, #3
 80024cc:	4b67      	ldr	r3, [pc, #412]	; (800266c <HAL_RCC_OscConfig+0x338>)
 80024ce:	430a      	orrs	r2, r1
 80024d0:	601a      	str	r2, [r3, #0]
      if((__HAL_RCC_GET_FLAG(RCC_FLAG_HSIRDY) != RESET) && (RCC_OscInitStruct->HSIState != RCC_HSI_ON))
 80024d2:	e041      	b.n	8002558 <HAL_RCC_OscConfig+0x224>
      }
    }
    else
    {
      /* Check the HSI State */
      if(RCC_OscInitStruct->HSIState != RCC_HSI_OFF)
 80024d4:	687b      	ldr	r3, [r7, #4]
 80024d6:	68db      	ldr	r3, [r3, #12]
 80024d8:	2b00      	cmp	r3, #0
 80024da:	d024      	beq.n	8002526 <HAL_RCC_OscConfig+0x1f2>
      {
       /* Enable the Internal High Speed oscillator (HSI). */
        __HAL_RCC_HSI_ENABLE();
 80024dc:	4b63      	ldr	r3, [pc, #396]	; (800266c <HAL_RCC_OscConfig+0x338>)
 80024de:	681a      	ldr	r2, [r3, #0]
 80024e0:	4b62      	ldr	r3, [pc, #392]	; (800266c <HAL_RCC_OscConfig+0x338>)
 80024e2:	2101      	movs	r1, #1
 80024e4:	430a      	orrs	r2, r1
 80024e6:	601a      	str	r2, [r3, #0]
        
        /* Get Start Tick */
        tickstart = HAL_GetTick();
 80024e8:	f7fe f804 	bl	80004f4 <HAL_GetTick>
 80024ec:	0003      	movs	r3, r0
 80024ee:	61bb      	str	r3, [r7, #24]
        
        /* Wait till HSI is ready */
        while(__HAL_RCC_GET_FLAG(RCC_FLAG_HSIRDY) == RESET)
 80024f0:	e008      	b.n	8002504 <HAL_RCC_OscConfig+0x1d0>
        {
          if((HAL_GetTick() - tickstart ) > HSI_TIMEOUT_VALUE)
 80024f2:	f7fd ffff 	bl	80004f4 <HAL_GetTick>
 80024f6:	0002      	movs	r2, r0
 80024f8:	69bb      	ldr	r3, [r7, #24]
 80024fa:	1ad3      	subs	r3, r2, r3
 80024fc:	2b02      	cmp	r3, #2
 80024fe:	d901      	bls.n	8002504 <HAL_RCC_OscConfig+0x1d0>
          {
            return HAL_TIMEOUT;
 8002500:	2303      	movs	r3, #3
 8002502:	e297      	b.n	8002a34 <HAL_RCC_OscConfig+0x700>
        while(__HAL_RCC_GET_FLAG(RCC_FLAG_HSIRDY) == RESET)
 8002504:	4b59      	ldr	r3, [pc, #356]	; (800266c <HAL_RCC_OscConfig+0x338>)
 8002506:	681b      	ldr	r3, [r3, #0]
 8002508:	2202      	movs	r2, #2
 800250a:	4013      	ands	r3, r2
 800250c:	d0f1      	beq.n	80024f2 <HAL_RCC_OscConfig+0x1be>
          }
        }
                
        /* Adjusts the Internal High Speed oscillator (HSI) calibration value.*/
        __HAL_RCC_HSI_CALIBRATIONVALUE_ADJUST(RCC_OscInitStruct->HSICalibrationValue);
 800250e:	4b57      	ldr	r3, [pc, #348]	; (800266c <HAL_RCC_OscConfig+0x338>)
 8002510:	681b      	ldr	r3, [r3, #0]
 8002512:	22f8      	movs	r2, #248	; 0xf8
 8002514:	4393      	bics	r3, r2
 8002516:	0019      	movs	r1, r3
 8002518:	687b      	ldr	r3, [r7, #4]
 800251a:	691b      	ldr	r3, [r3, #16]
 800251c:	00da      	lsls	r2, r3, #3
 800251e:	4b53      	ldr	r3, [pc, #332]	; (800266c <HAL_RCC_OscConfig+0x338>)
 8002520:	430a      	orrs	r2, r1
 8002522:	601a      	str	r2, [r3, #0]
 8002524:	e018      	b.n	8002558 <HAL_RCC_OscConfig+0x224>
      }
      else
      {
        /* Disable the Internal High Speed oscillator (HSI). */
        __HAL_RCC_HSI_DISABLE();
 8002526:	4b51      	ldr	r3, [pc, #324]	; (800266c <HAL_RCC_OscConfig+0x338>)
 8002528:	681a      	ldr	r2, [r3, #0]
 800252a:	4b50      	ldr	r3, [pc, #320]	; (800266c <HAL_RCC_OscConfig+0x338>)
 800252c:	2101      	movs	r1, #1
 800252e:	438a      	bics	r2, r1
 8002530:	601a      	str	r2, [r3, #0]
        
        /* Get Start Tick */
        tickstart = HAL_GetTick();
 8002532:	f7fd ffdf 	bl	80004f4 <HAL_GetTick>
 8002536:	0003      	movs	r3, r0
 8002538:	61bb      	str	r3, [r7, #24]
        
        /* Wait till HSI is disabled */
        while(__HAL_RCC_GET_FLAG(RCC_FLAG_HSIRDY) != RESET)
 800253a:	e008      	b.n	800254e <HAL_RCC_OscConfig+0x21a>
        {
          if((HAL_GetTick() - tickstart ) > HSI_TIMEOUT_VALUE)
 800253c:	f7fd ffda 	bl	80004f4 <HAL_GetTick>
 8002540:	0002      	movs	r2, r0
 8002542:	69bb      	ldr	r3, [r7, #24]
 8002544:	1ad3      	subs	r3, r2, r3
 8002546:	2b02      	cmp	r3, #2
 8002548:	d901      	bls.n	800254e <HAL_RCC_OscConfig+0x21a>
          {
            return HAL_TIMEOUT;
 800254a:	2303      	movs	r3, #3
 800254c:	e272      	b.n	8002a34 <HAL_RCC_OscConfig+0x700>
        while(__HAL_RCC_GET_FLAG(RCC_FLAG_HSIRDY) != RESET)
 800254e:	4b47      	ldr	r3, [pc, #284]	; (800266c <HAL_RCC_OscConfig+0x338>)
 8002550:	681b      	ldr	r3, [r3, #0]
 8002552:	2202      	movs	r2, #2
 8002554:	4013      	ands	r3, r2
 8002556:	d1f1      	bne.n	800253c <HAL_RCC_OscConfig+0x208>
        }
      }
    }
  }
  /*------------------------------ LSI Configuration -------------------------*/ 
  if(((RCC_OscInitStruct->OscillatorType) & RCC_OSCILLATORTYPE_LSI) == RCC_OSCILLATORTYPE_LSI)
 8002558:	687b      	ldr	r3, [r7, #4]
 800255a:	681b      	ldr	r3, [r3, #0]
 800255c:	2208      	movs	r2, #8
 800255e:	4013      	ands	r3, r2
 8002560:	d036      	beq.n	80025d0 <HAL_RCC_OscConfig+0x29c>
  {
    /* Check the parameters */
    assert_param(IS_RCC_LSI(RCC_OscInitStruct->LSIState));
    
    /* Check the LSI State */
    if(RCC_OscInitStruct->LSIState != RCC_LSI_OFF)
 8002562:	687b      	ldr	r3, [r7, #4]
 8002564:	69db      	ldr	r3, [r3, #28]
 8002566:	2b00      	cmp	r3, #0
 8002568:	d019      	beq.n	800259e <HAL_RCC_OscConfig+0x26a>
    {
      /* Enable the Internal Low Speed oscillator (LSI). */
      __HAL_RCC_LSI_ENABLE();
 800256a:	4b40      	ldr	r3, [pc, #256]	; (800266c <HAL_RCC_OscConfig+0x338>)
 800256c:	6a5a      	ldr	r2, [r3, #36]	; 0x24
 800256e:	4b3f      	ldr	r3, [pc, #252]	; (800266c <HAL_RCC_OscConfig+0x338>)
 8002570:	2101      	movs	r1, #1
 8002572:	430a      	orrs	r2, r1
 8002574:	625a      	str	r2, [r3, #36]	; 0x24
      
      /* Get Start Tick */
      tickstart = HAL_GetTick();
 8002576:	f7fd ffbd 	bl	80004f4 <HAL_GetTick>
 800257a:	0003      	movs	r3, r0
 800257c:	61bb      	str	r3, [r7, #24]
      
      /* Wait till LSI is ready */  
      while(__HAL_RCC_GET_FLAG(RCC_FLAG_LSIRDY) == RESET)
 800257e:	e008      	b.n	8002592 <HAL_RCC_OscConfig+0x25e>
      {
        if((HAL_GetTick() - tickstart ) > LSI_TIMEOUT_VALUE)
 8002580:	f7fd ffb8 	bl	80004f4 <HAL_GetTick>
 8002584:	0002      	movs	r2, r0
 8002586:	69bb      	ldr	r3, [r7, #24]
 8002588:	1ad3      	subs	r3, r2, r3
 800258a:	2b02      	cmp	r3, #2
 800258c:	d901      	bls.n	8002592 <HAL_RCC_OscConfig+0x25e>
        {
          return HAL_TIMEOUT;
 800258e:	2303      	movs	r3, #3
 8002590:	e250      	b.n	8002a34 <HAL_RCC_OscConfig+0x700>
      while(__HAL_RCC_GET_FLAG(RCC_FLAG_LSIRDY) == RESET)
 8002592:	4b36      	ldr	r3, [pc, #216]	; (800266c <HAL_RCC_OscConfig+0x338>)
 8002594:	6a5b      	ldr	r3, [r3, #36]	; 0x24
 8002596:	2202      	movs	r2, #2
 8002598:	4013      	ands	r3, r2
 800259a:	d0f1      	beq.n	8002580 <HAL_RCC_OscConfig+0x24c>
 800259c:	e018      	b.n	80025d0 <HAL_RCC_OscConfig+0x29c>
      }
    }
    else
    {
      /* Disable the Internal Low Speed oscillator (LSI). */
      __HAL_RCC_LSI_DISABLE();
 800259e:	4b33      	ldr	r3, [pc, #204]	; (800266c <HAL_RCC_OscConfig+0x338>)
 80025a0:	6a5a      	ldr	r2, [r3, #36]	; 0x24
 80025a2:	4b32      	ldr	r3, [pc, #200]	; (800266c <HAL_RCC_OscConfig+0x338>)
 80025a4:	2101      	movs	r1, #1
 80025a6:	438a      	bics	r2, r1
 80025a8:	625a      	str	r2, [r3, #36]	; 0x24
      
      /* Get Start Tick */
      tickstart = HAL_GetTick();
 80025aa:	f7fd ffa3 	bl	80004f4 <HAL_GetTick>
 80025ae:	0003      	movs	r3, r0
 80025b0:	61bb      	str	r3, [r7, #24]
      
      /* Wait till LSI is disabled */  
      while(__HAL_RCC_GET_FLAG(RCC_FLAG_LSIRDY) != RESET)
 80025b2:	e008      	b.n	80025c6 <HAL_RCC_OscConfig+0x292>
      {
        if((HAL_GetTick() - tickstart ) > LSI_TIMEOUT_VALUE)
 80025b4:	f7fd ff9e 	bl	80004f4 <HAL_GetTick>
 80025b8:	0002      	movs	r2, r0
 80025ba:	69bb      	ldr	r3, [r7, #24]
 80025bc:	1ad3      	subs	r3, r2, r3
 80025be:	2b02      	cmp	r3, #2
 80025c0:	d901      	bls.n	80025c6 <HAL_RCC_OscConfig+0x292>
        {
          return HAL_TIMEOUT;
 80025c2:	2303      	movs	r3, #3
 80025c4:	e236      	b.n	8002a34 <HAL_RCC_OscConfig+0x700>
      while(__HAL_RCC_GET_FLAG(RCC_FLAG_LSIRDY) != RESET)
 80025c6:	4b29      	ldr	r3, [pc, #164]	; (800266c <HAL_RCC_OscConfig+0x338>)
 80025c8:	6a5b      	ldr	r3, [r3, #36]	; 0x24
 80025ca:	2202      	movs	r2, #2
 80025cc:	4013      	ands	r3, r2
 80025ce:	d1f1      	bne.n	80025b4 <HAL_RCC_OscConfig+0x280>
        }
      }
    }
  }
  /*------------------------------ LSE Configuration -------------------------*/ 
  if(((RCC_OscInitStruct->OscillatorType) & RCC_OSCILLATORTYPE_LSE) == RCC_OSCILLATORTYPE_LSE)
 80025d0:	687b      	ldr	r3, [r7, #4]
 80025d2:	681b      	ldr	r3, [r3, #0]
 80025d4:	2204      	movs	r2, #4
 80025d6:	4013      	ands	r3, r2
 80025d8:	d100      	bne.n	80025dc <HAL_RCC_OscConfig+0x2a8>
 80025da:	e0b5      	b.n	8002748 <HAL_RCC_OscConfig+0x414>
  {
    FlagStatus       pwrclkchanged = RESET;
 80025dc:	201f      	movs	r0, #31
 80025de:	183b      	adds	r3, r7, r0
 80025e0:	2200      	movs	r2, #0
 80025e2:	701a      	strb	r2, [r3, #0]
    /* Check the parameters */
    assert_param(IS_RCC_LSE(RCC_OscInitStruct->LSEState));

    /* Update LSE configuration in Backup Domain control register    */
    /* Requires to enable write access to Backup Domain of necessary */
    if(__HAL_RCC_PWR_IS_CLK_DISABLED())
 80025e4:	4b21      	ldr	r3, [pc, #132]	; (800266c <HAL_RCC_OscConfig+0x338>)
 80025e6:	69da      	ldr	r2, [r3, #28]
 80025e8:	2380      	movs	r3, #128	; 0x80
 80025ea:	055b      	lsls	r3, r3, #21
 80025ec:	4013      	ands	r3, r2
 80025ee:	d110      	bne.n	8002612 <HAL_RCC_OscConfig+0x2de>
    {
      __HAL_RCC_PWR_CLK_ENABLE();
 80025f0:	4b1e      	ldr	r3, [pc, #120]	; (800266c <HAL_RCC_OscConfig+0x338>)
 80025f2:	69da      	ldr	r2, [r3, #28]
 80025f4:	4b1d      	ldr	r3, [pc, #116]	; (800266c <HAL_RCC_OscConfig+0x338>)
 80025f6:	2180      	movs	r1, #128	; 0x80
 80025f8:	0549      	lsls	r1, r1, #21
 80025fa:	430a      	orrs	r2, r1
 80025fc:	61da      	str	r2, [r3, #28]
 80025fe:	4b1b      	ldr	r3, [pc, #108]	; (800266c <HAL_RCC_OscConfig+0x338>)
 8002600:	69da      	ldr	r2, [r3, #28]
 8002602:	2380      	movs	r3, #128	; 0x80
 8002604:	055b      	lsls	r3, r3, #21
 8002606:	4013      	ands	r3, r2
 8002608:	60fb      	str	r3, [r7, #12]
 800260a:	68fb      	ldr	r3, [r7, #12]
      pwrclkchanged = SET;
 800260c:	183b      	adds	r3, r7, r0
 800260e:	2201      	movs	r2, #1
 8002610:	701a      	strb	r2, [r3, #0]
    }
    
    if(HAL_IS_BIT_CLR(PWR->CR, PWR_CR_DBP))
 8002612:	4b19      	ldr	r3, [pc, #100]	; (8002678 <HAL_RCC_OscConfig+0x344>)
 8002614:	681a      	ldr	r2, [r3, #0]
 8002616:	2380      	movs	r3, #128	; 0x80
 8002618:	005b      	lsls	r3, r3, #1
 800261a:	4013      	ands	r3, r2
 800261c:	d11a      	bne.n	8002654 <HAL_RCC_OscConfig+0x320>
    {
      /* Enable write access to Backup domain */
      SET_BIT(PWR->CR, PWR_CR_DBP);
 800261e:	4b16      	ldr	r3, [pc, #88]	; (8002678 <HAL_RCC_OscConfig+0x344>)
 8002620:	681a      	ldr	r2, [r3, #0]
 8002622:	4b15      	ldr	r3, [pc, #84]	; (8002678 <HAL_RCC_OscConfig+0x344>)
 8002624:	2180      	movs	r1, #128	; 0x80
 8002626:	0049      	lsls	r1, r1, #1
 8002628:	430a      	orrs	r2, r1
 800262a:	601a      	str	r2, [r3, #0]
      
      /* Wait for Backup domain Write protection disable */
      tickstart = HAL_GetTick();
 800262c:	f7fd ff62 	bl	80004f4 <HAL_GetTick>
 8002630:	0003      	movs	r3, r0
 8002632:	61bb      	str	r3, [r7, #24]

      while(HAL_IS_BIT_CLR(PWR->CR, PWR_CR_DBP))
 8002634:	e008      	b.n	8002648 <HAL_RCC_OscConfig+0x314>
      {
        if((HAL_GetTick() - tickstart) > RCC_DBP_TIMEOUT_VALUE)
 8002636:	f7fd ff5d 	bl	80004f4 <HAL_GetTick>
 800263a:	0002      	movs	r2, r0
 800263c:	69bb      	ldr	r3, [r7, #24]
 800263e:	1ad3      	subs	r3, r2, r3
 8002640:	2b64      	cmp	r3, #100	; 0x64
 8002642:	d901      	bls.n	8002648 <HAL_RCC_OscConfig+0x314>
        {
          return HAL_TIMEOUT;
 8002644:	2303      	movs	r3, #3
 8002646:	e1f5      	b.n	8002a34 <HAL_RCC_OscConfig+0x700>
      while(HAL_IS_BIT_CLR(PWR->CR, PWR_CR_DBP))
 8002648:	4b0b      	ldr	r3, [pc, #44]	; (8002678 <HAL_RCC_OscConfig+0x344>)
 800264a:	681a      	ldr	r2, [r3, #0]
 800264c:	2380      	movs	r3, #128	; 0x80
 800264e:	005b      	lsls	r3, r3, #1
 8002650:	4013      	ands	r3, r2
 8002652:	d0f0      	beq.n	8002636 <HAL_RCC_OscConfig+0x302>
        }
      }
    }

    /* Set the new LSE configuration -----------------------------------------*/
    __HAL_RCC_LSE_CONFIG(RCC_OscInitStruct->LSEState);
 8002654:	687b      	ldr	r3, [r7, #4]
 8002656:	689b      	ldr	r3, [r3, #8]
 8002658:	2b01      	cmp	r3, #1
 800265a:	d10f      	bne.n	800267c <HAL_RCC_OscConfig+0x348>
 800265c:	4b03      	ldr	r3, [pc, #12]	; (800266c <HAL_RCC_OscConfig+0x338>)
 800265e:	6a1a      	ldr	r2, [r3, #32]
 8002660:	4b02      	ldr	r3, [pc, #8]	; (800266c <HAL_RCC_OscConfig+0x338>)
 8002662:	2101      	movs	r1, #1
 8002664:	430a      	orrs	r2, r1
 8002666:	621a      	str	r2, [r3, #32]
 8002668:	e036      	b.n	80026d8 <HAL_RCC_OscConfig+0x3a4>
 800266a:	46c0      	nop			; (mov r8, r8)
 800266c:	40021000 	.word	0x40021000
 8002670:	fffeffff 	.word	0xfffeffff
 8002674:	fffbffff 	.word	0xfffbffff
 8002678:	40007000 	.word	0x40007000
 800267c:	687b      	ldr	r3, [r7, #4]
 800267e:	689b      	ldr	r3, [r3, #8]
 8002680:	2b00      	cmp	r3, #0
 8002682:	d10c      	bne.n	800269e <HAL_RCC_OscConfig+0x36a>
 8002684:	4bca      	ldr	r3, [pc, #808]	; (80029b0 <HAL_RCC_OscConfig+0x67c>)
 8002686:	6a1a      	ldr	r2, [r3, #32]
 8002688:	4bc9      	ldr	r3, [pc, #804]	; (80029b0 <HAL_RCC_OscConfig+0x67c>)
 800268a:	2101      	movs	r1, #1
 800268c:	438a      	bics	r2, r1
 800268e:	621a      	str	r2, [r3, #32]
 8002690:	4bc7      	ldr	r3, [pc, #796]	; (80029b0 <HAL_RCC_OscConfig+0x67c>)
 8002692:	6a1a      	ldr	r2, [r3, #32]
 8002694:	4bc6      	ldr	r3, [pc, #792]	; (80029b0 <HAL_RCC_OscConfig+0x67c>)
 8002696:	2104      	movs	r1, #4
 8002698:	438a      	bics	r2, r1
 800269a:	621a      	str	r2, [r3, #32]
 800269c:	e01c      	b.n	80026d8 <HAL_RCC_OscConfig+0x3a4>
 800269e:	687b      	ldr	r3, [r7, #4]
 80026a0:	689b      	ldr	r3, [r3, #8]
 80026a2:	2b05      	cmp	r3, #5
 80026a4:	d10c      	bne.n	80026c0 <HAL_RCC_OscConfig+0x38c>
 80026a6:	4bc2      	ldr	r3, [pc, #776]	; (80029b0 <HAL_RCC_OscConfig+0x67c>)
 80026a8:	6a1a      	ldr	r2, [r3, #32]
 80026aa:	4bc1      	ldr	r3, [pc, #772]	; (80029b0 <HAL_RCC_OscConfig+0x67c>)
 80026ac:	2104      	movs	r1, #4
 80026ae:	430a      	orrs	r2, r1
 80026b0:	621a      	str	r2, [r3, #32]
 80026b2:	4bbf      	ldr	r3, [pc, #764]	; (80029b0 <HAL_RCC_OscConfig+0x67c>)
 80026b4:	6a1a      	ldr	r2, [r3, #32]
 80026b6:	4bbe      	ldr	r3, [pc, #760]	; (80029b0 <HAL_RCC_OscConfig+0x67c>)
 80026b8:	2101      	movs	r1, #1
 80026ba:	430a      	orrs	r2, r1
 80026bc:	621a      	str	r2, [r3, #32]
 80026be:	e00b      	b.n	80026d8 <HAL_RCC_OscConfig+0x3a4>
 80026c0:	4bbb      	ldr	r3, [pc, #748]	; (80029b0 <HAL_RCC_OscConfig+0x67c>)
 80026c2:	6a1a      	ldr	r2, [r3, #32]
 80026c4:	4bba      	ldr	r3, [pc, #744]	; (80029b0 <HAL_RCC_OscConfig+0x67c>)
 80026c6:	2101      	movs	r1, #1
 80026c8:	438a      	bics	r2, r1
 80026ca:	621a      	str	r2, [r3, #32]
 80026cc:	4bb8      	ldr	r3, [pc, #736]	; (80029b0 <HAL_RCC_OscConfig+0x67c>)
 80026ce:	6a1a      	ldr	r2, [r3, #32]
 80026d0:	4bb7      	ldr	r3, [pc, #732]	; (80029b0 <HAL_RCC_OscConfig+0x67c>)
 80026d2:	2104      	movs	r1, #4
 80026d4:	438a      	bics	r2, r1
 80026d6:	621a      	str	r2, [r3, #32]
    /* Check the LSE State */
    if(RCC_OscInitStruct->LSEState != RCC_LSE_OFF)
 80026d8:	687b      	ldr	r3, [r7, #4]
 80026da:	689b      	ldr	r3, [r3, #8]
 80026dc:	2b00      	cmp	r3, #0
 80026de:	d014      	beq.n	800270a <HAL_RCC_OscConfig+0x3d6>
    {
      /* Get Start Tick */
      tickstart = HAL_GetTick();
 80026e0:	f7fd ff08 	bl	80004f4 <HAL_GetTick>
 80026e4:	0003      	movs	r3, r0
 80026e6:	61bb      	str	r3, [r7, #24]
      
      /* Wait till LSE is ready */  
      while(__HAL_RCC_GET_FLAG(RCC_FLAG_LSERDY) == RESET)
 80026e8:	e009      	b.n	80026fe <HAL_RCC_OscConfig+0x3ca>
      {
        if((HAL_GetTick() - tickstart ) > RCC_LSE_TIMEOUT_VALUE)
 80026ea:	f7fd ff03 	bl	80004f4 <HAL_GetTick>
 80026ee:	0002      	movs	r2, r0
 80026f0:	69bb      	ldr	r3, [r7, #24]
 80026f2:	1ad3      	subs	r3, r2, r3
 80026f4:	4aaf      	ldr	r2, [pc, #700]	; (80029b4 <HAL_RCC_OscConfig+0x680>)
 80026f6:	4293      	cmp	r3, r2
 80026f8:	d901      	bls.n	80026fe <HAL_RCC_OscConfig+0x3ca>
        {
          return HAL_TIMEOUT;
 80026fa:	2303      	movs	r3, #3
 80026fc:	e19a      	b.n	8002a34 <HAL_RCC_OscConfig+0x700>
      while(__HAL_RCC_GET_FLAG(RCC_FLAG_LSERDY) == RESET)
 80026fe:	4bac      	ldr	r3, [pc, #688]	; (80029b0 <HAL_RCC_OscConfig+0x67c>)
 8002700:	6a1b      	ldr	r3, [r3, #32]
 8002702:	2202      	movs	r2, #2
 8002704:	4013      	ands	r3, r2
 8002706:	d0f0      	beq.n	80026ea <HAL_RCC_OscConfig+0x3b6>
 8002708:	e013      	b.n	8002732 <HAL_RCC_OscConfig+0x3fe>
      }
    }
    else
    {
      /* Get Start Tick */
      tickstart = HAL_GetTick();
 800270a:	f7fd fef3 	bl	80004f4 <HAL_GetTick>
 800270e:	0003      	movs	r3, r0
 8002710:	61bb      	str	r3, [r7, #24]
      
      /* Wait till LSE is disabled */  
      while(__HAL_RCC_GET_FLAG(RCC_FLAG_LSERDY) != RESET)
 8002712:	e009      	b.n	8002728 <HAL_RCC_OscConfig+0x3f4>
      {
        if((HAL_GetTick() - tickstart ) > RCC_LSE_TIMEOUT_VALUE)
 8002714:	f7fd feee 	bl	80004f4 <HAL_GetTick>
 8002718:	0002      	movs	r2, r0
 800271a:	69bb      	ldr	r3, [r7, #24]
 800271c:	1ad3      	subs	r3, r2, r3
 800271e:	4aa5      	ldr	r2, [pc, #660]	; (80029b4 <HAL_RCC_OscConfig+0x680>)
 8002720:	4293      	cmp	r3, r2
 8002722:	d901      	bls.n	8002728 <HAL_RCC_OscConfig+0x3f4>
        {
          return HAL_TIMEOUT;
 8002724:	2303      	movs	r3, #3
 8002726:	e185      	b.n	8002a34 <HAL_RCC_OscConfig+0x700>
      while(__HAL_RCC_GET_FLAG(RCC_FLAG_LSERDY) != RESET)
 8002728:	4ba1      	ldr	r3, [pc, #644]	; (80029b0 <HAL_RCC_OscConfig+0x67c>)
 800272a:	6a1b      	ldr	r3, [r3, #32]
 800272c:	2202      	movs	r2, #2
 800272e:	4013      	ands	r3, r2
 8002730:	d1f0      	bne.n	8002714 <HAL_RCC_OscConfig+0x3e0>
        }
      }
    }

    /* Require to disable power clock if necessary */
    if(pwrclkchanged == SET)
 8002732:	231f      	movs	r3, #31
 8002734:	18fb      	adds	r3, r7, r3
 8002736:	781b      	ldrb	r3, [r3, #0]
 8002738:	2b01      	cmp	r3, #1
 800273a:	d105      	bne.n	8002748 <HAL_RCC_OscConfig+0x414>
    {
      __HAL_RCC_PWR_CLK_DISABLE();
 800273c:	4b9c      	ldr	r3, [pc, #624]	; (80029b0 <HAL_RCC_OscConfig+0x67c>)
 800273e:	69da      	ldr	r2, [r3, #28]
 8002740:	4b9b      	ldr	r3, [pc, #620]	; (80029b0 <HAL_RCC_OscConfig+0x67c>)
 8002742:	499d      	ldr	r1, [pc, #628]	; (80029b8 <HAL_RCC_OscConfig+0x684>)
 8002744:	400a      	ands	r2, r1
 8002746:	61da      	str	r2, [r3, #28]
    }
  }

  /*----------------------------- HSI14 Configuration --------------------------*/
  if(((RCC_OscInitStruct->OscillatorType) & RCC_OSCILLATORTYPE_HSI14) == RCC_OSCILLATORTYPE_HSI14)
 8002748:	687b      	ldr	r3, [r7, #4]
 800274a:	681b      	ldr	r3, [r3, #0]
 800274c:	2210      	movs	r2, #16
 800274e:	4013      	ands	r3, r2
 8002750:	d063      	beq.n	800281a <HAL_RCC_OscConfig+0x4e6>
    /* Check the parameters */
    assert_param(IS_RCC_HSI14(RCC_OscInitStruct->HSI14State));
    assert_param(IS_RCC_CALIBRATION_VALUE(RCC_OscInitStruct->HSI14CalibrationValue));

    /* Check the HSI14 State */
    if(RCC_OscInitStruct->HSI14State == RCC_HSI14_ON)
 8002752:	687b      	ldr	r3, [r7, #4]
 8002754:	695b      	ldr	r3, [r3, #20]
 8002756:	2b01      	cmp	r3, #1
 8002758:	d12a      	bne.n	80027b0 <HAL_RCC_OscConfig+0x47c>
    {
      /* Disable ADC control of the Internal High Speed oscillator HSI14 */
      __HAL_RCC_HSI14ADC_DISABLE();
 800275a:	4b95      	ldr	r3, [pc, #596]	; (80029b0 <HAL_RCC_OscConfig+0x67c>)
 800275c:	6b5a      	ldr	r2, [r3, #52]	; 0x34
 800275e:	4b94      	ldr	r3, [pc, #592]	; (80029b0 <HAL_RCC_OscConfig+0x67c>)
 8002760:	2104      	movs	r1, #4
 8002762:	430a      	orrs	r2, r1
 8002764:	635a      	str	r2, [r3, #52]	; 0x34

      /* Enable the Internal High Speed oscillator (HSI). */
      __HAL_RCC_HSI14_ENABLE();
 8002766:	4b92      	ldr	r3, [pc, #584]	; (80029b0 <HAL_RCC_OscConfig+0x67c>)
 8002768:	6b5a      	ldr	r2, [r3, #52]	; 0x34
 800276a:	4b91      	ldr	r3, [pc, #580]	; (80029b0 <HAL_RCC_OscConfig+0x67c>)
 800276c:	2101      	movs	r1, #1
 800276e:	430a      	orrs	r2, r1
 8002770:	635a      	str	r2, [r3, #52]	; 0x34

      /* Get Start Tick */
      tickstart = HAL_GetTick();
 8002772:	f7fd febf 	bl	80004f4 <HAL_GetTick>
 8002776:	0003      	movs	r3, r0
 8002778:	61bb      	str	r3, [r7, #24]
      
      /* Wait till HSI is ready */  
      while(__HAL_RCC_GET_FLAG(RCC_FLAG_HSI14RDY) == RESET)
 800277a:	e008      	b.n	800278e <HAL_RCC_OscConfig+0x45a>
      {
        if((HAL_GetTick() - tickstart) > HSI14_TIMEOUT_VALUE)
 800277c:	f7fd feba 	bl	80004f4 <HAL_GetTick>
 8002780:	0002      	movs	r2, r0
 8002782:	69bb      	ldr	r3, [r7, #24]
 8002784:	1ad3      	subs	r3, r2, r3
 8002786:	2b02      	cmp	r3, #2
 8002788:	d901      	bls.n	800278e <HAL_RCC_OscConfig+0x45a>
        {
          return HAL_TIMEOUT;
 800278a:	2303      	movs	r3, #3
 800278c:	e152      	b.n	8002a34 <HAL_RCC_OscConfig+0x700>
      while(__HAL_RCC_GET_FLAG(RCC_FLAG_HSI14RDY) == RESET)
 800278e:	4b88      	ldr	r3, [pc, #544]	; (80029b0 <HAL_RCC_OscConfig+0x67c>)
 8002790:	6b5b      	ldr	r3, [r3, #52]	; 0x34
 8002792:	2202      	movs	r2, #2
 8002794:	4013      	ands	r3, r2
 8002796:	d0f1      	beq.n	800277c <HAL_RCC_OscConfig+0x448>
        }      
      } 

      /* Adjusts the Internal High Speed oscillator 14Mhz (HSI14) calibration value. */
      __HAL_RCC_HSI14_CALIBRATIONVALUE_ADJUST(RCC_OscInitStruct->HSI14CalibrationValue);
 8002798:	4b85      	ldr	r3, [pc, #532]	; (80029b0 <HAL_RCC_OscConfig+0x67c>)
 800279a:	6b5b      	ldr	r3, [r3, #52]	; 0x34
 800279c:	22f8      	movs	r2, #248	; 0xf8
 800279e:	4393      	bics	r3, r2
 80027a0:	0019      	movs	r1, r3
 80027a2:	687b      	ldr	r3, [r7, #4]
 80027a4:	699b      	ldr	r3, [r3, #24]
 80027a6:	00da      	lsls	r2, r3, #3
 80027a8:	4b81      	ldr	r3, [pc, #516]	; (80029b0 <HAL_RCC_OscConfig+0x67c>)
 80027aa:	430a      	orrs	r2, r1
 80027ac:	635a      	str	r2, [r3, #52]	; 0x34
 80027ae:	e034      	b.n	800281a <HAL_RCC_OscConfig+0x4e6>
    }
    else if(RCC_OscInitStruct->HSI14State == RCC_HSI14_ADC_CONTROL)
 80027b0:	687b      	ldr	r3, [r7, #4]
 80027b2:	695b      	ldr	r3, [r3, #20]
 80027b4:	3305      	adds	r3, #5
 80027b6:	d111      	bne.n	80027dc <HAL_RCC_OscConfig+0x4a8>
    {
      /* Enable ADC control of the Internal High Speed oscillator HSI14 */
      __HAL_RCC_HSI14ADC_ENABLE();
 80027b8:	4b7d      	ldr	r3, [pc, #500]	; (80029b0 <HAL_RCC_OscConfig+0x67c>)
 80027ba:	6b5a      	ldr	r2, [r3, #52]	; 0x34
 80027bc:	4b7c      	ldr	r3, [pc, #496]	; (80029b0 <HAL_RCC_OscConfig+0x67c>)
 80027be:	2104      	movs	r1, #4
 80027c0:	438a      	bics	r2, r1
 80027c2:	635a      	str	r2, [r3, #52]	; 0x34

      /* Adjusts the Internal High Speed oscillator 14Mhz (HSI14) calibration value. */
      __HAL_RCC_HSI14_CALIBRATIONVALUE_ADJUST(RCC_OscInitStruct->HSI14CalibrationValue);
 80027c4:	4b7a      	ldr	r3, [pc, #488]	; (80029b0 <HAL_RCC_OscConfig+0x67c>)
 80027c6:	6b5b      	ldr	r3, [r3, #52]	; 0x34
 80027c8:	22f8      	movs	r2, #248	; 0xf8
 80027ca:	4393      	bics	r3, r2
 80027cc:	0019      	movs	r1, r3
 80027ce:	687b      	ldr	r3, [r7, #4]
 80027d0:	699b      	ldr	r3, [r3, #24]
 80027d2:	00da      	lsls	r2, r3, #3
 80027d4:	4b76      	ldr	r3, [pc, #472]	; (80029b0 <HAL_RCC_OscConfig+0x67c>)
 80027d6:	430a      	orrs	r2, r1
 80027d8:	635a      	str	r2, [r3, #52]	; 0x34
 80027da:	e01e      	b.n	800281a <HAL_RCC_OscConfig+0x4e6>
    }
    else
    {
      /* Disable ADC control of the Internal High Speed oscillator HSI14 */
      __HAL_RCC_HSI14ADC_DISABLE();
 80027dc:	4b74      	ldr	r3, [pc, #464]	; (80029b0 <HAL_RCC_OscConfig+0x67c>)
 80027de:	6b5a      	ldr	r2, [r3, #52]	; 0x34
 80027e0:	4b73      	ldr	r3, [pc, #460]	; (80029b0 <HAL_RCC_OscConfig+0x67c>)
 80027e2:	2104      	movs	r1, #4
 80027e4:	430a      	orrs	r2, r1
 80027e6:	635a      	str	r2, [r3, #52]	; 0x34

      /* Disable the Internal High Speed oscillator (HSI). */
      __HAL_RCC_HSI14_DISABLE();
 80027e8:	4b71      	ldr	r3, [pc, #452]	; (80029b0 <HAL_RCC_OscConfig+0x67c>)
 80027ea:	6b5a      	ldr	r2, [r3, #52]	; 0x34
 80027ec:	4b70      	ldr	r3, [pc, #448]	; (80029b0 <HAL_RCC_OscConfig+0x67c>)
 80027ee:	2101      	movs	r1, #1
 80027f0:	438a      	bics	r2, r1
 80027f2:	635a      	str	r2, [r3, #52]	; 0x34

      /* Get Start Tick */
      tickstart = HAL_GetTick();
 80027f4:	f7fd fe7e 	bl	80004f4 <HAL_GetTick>
 80027f8:	0003      	movs	r3, r0
 80027fa:	61bb      	str	r3, [r7, #24]
      
      /* Wait till HSI is ready */  
      while(__HAL_RCC_GET_FLAG(RCC_FLAG_HSI14RDY) != RESET)
 80027fc:	e008      	b.n	8002810 <HAL_RCC_OscConfig+0x4dc>
      {
        if((HAL_GetTick() - tickstart) > HSI14_TIMEOUT_VALUE)
 80027fe:	f7fd fe79 	bl	80004f4 <HAL_GetTick>
 8002802:	0002      	movs	r2, r0
 8002804:	69bb      	ldr	r3, [r7, #24]
 8002806:	1ad3      	subs	r3, r2, r3
 8002808:	2b02      	cmp	r3, #2
 800280a:	d901      	bls.n	8002810 <HAL_RCC_OscConfig+0x4dc>
        {
          return HAL_TIMEOUT;
 800280c:	2303      	movs	r3, #3
 800280e:	e111      	b.n	8002a34 <HAL_RCC_OscConfig+0x700>
      while(__HAL_RCC_GET_FLAG(RCC_FLAG_HSI14RDY) != RESET)
 8002810:	4b67      	ldr	r3, [pc, #412]	; (80029b0 <HAL_RCC_OscConfig+0x67c>)
 8002812:	6b5b      	ldr	r3, [r3, #52]	; 0x34
 8002814:	2202      	movs	r2, #2
 8002816:	4013      	ands	r3, r2
 8002818:	d1f1      	bne.n	80027fe <HAL_RCC_OscConfig+0x4ca>
    }
  }

#if defined(RCC_HSI48_SUPPORT)
  /*----------------------------- HSI48 Configuration --------------------------*/
  if(((RCC_OscInitStruct->OscillatorType) & RCC_OSCILLATORTYPE_HSI48) == RCC_OSCILLATORTYPE_HSI48)
 800281a:	687b      	ldr	r3, [r7, #4]
 800281c:	681b      	ldr	r3, [r3, #0]
 800281e:	2220      	movs	r2, #32
 8002820:	4013      	ands	r3, r2
 8002822:	d05c      	beq.n	80028de <HAL_RCC_OscConfig+0x5aa>
  {
    /* Check the parameters */
    assert_param(IS_RCC_HSI48(RCC_OscInitStruct->HSI48State));

    /* When the HSI48 is used as system clock it is not allowed to be disabled */
    if((__HAL_RCC_GET_SYSCLK_SOURCE() == RCC_SYSCLKSOURCE_STATUS_HSI48) ||
 8002824:	4b62      	ldr	r3, [pc, #392]	; (80029b0 <HAL_RCC_OscConfig+0x67c>)
 8002826:	685b      	ldr	r3, [r3, #4]
 8002828:	220c      	movs	r2, #12
 800282a:	4013      	ands	r3, r2
 800282c:	2b0c      	cmp	r3, #12
 800282e:	d00e      	beq.n	800284e <HAL_RCC_OscConfig+0x51a>
       ((__HAL_RCC_GET_SYSCLK_SOURCE() == RCC_SYSCLKSOURCE_STATUS_PLLCLK) && (__HAL_RCC_GET_PLL_OSCSOURCE() == RCC_PLLSOURCE_HSI48)))
 8002830:	4b5f      	ldr	r3, [pc, #380]	; (80029b0 <HAL_RCC_OscConfig+0x67c>)
 8002832:	685b      	ldr	r3, [r3, #4]
 8002834:	220c      	movs	r2, #12
 8002836:	4013      	ands	r3, r2
    if((__HAL_RCC_GET_SYSCLK_SOURCE() == RCC_SYSCLKSOURCE_STATUS_HSI48) ||
 8002838:	2b08      	cmp	r3, #8
 800283a:	d114      	bne.n	8002866 <HAL_RCC_OscConfig+0x532>
       ((__HAL_RCC_GET_SYSCLK_SOURCE() == RCC_SYSCLKSOURCE_STATUS_PLLCLK) && (__HAL_RCC_GET_PLL_OSCSOURCE() == RCC_PLLSOURCE_HSI48)))
 800283c:	4b5c      	ldr	r3, [pc, #368]	; (80029b0 <HAL_RCC_OscConfig+0x67c>)
 800283e:	685a      	ldr	r2, [r3, #4]
 8002840:	23c0      	movs	r3, #192	; 0xc0
 8002842:	025b      	lsls	r3, r3, #9
 8002844:	401a      	ands	r2, r3
 8002846:	23c0      	movs	r3, #192	; 0xc0
 8002848:	025b      	lsls	r3, r3, #9
 800284a:	429a      	cmp	r2, r3
 800284c:	d10b      	bne.n	8002866 <HAL_RCC_OscConfig+0x532>
    {
      if((__HAL_RCC_GET_FLAG(RCC_FLAG_HSI48RDY) != RESET) && (RCC_OscInitStruct->HSI48State != RCC_HSI48_ON))
 800284e:	4b58      	ldr	r3, [pc, #352]	; (80029b0 <HAL_RCC_OscConfig+0x67c>)
 8002850:	6b5a      	ldr	r2, [r3, #52]	; 0x34
 8002852:	2380      	movs	r3, #128	; 0x80
 8002854:	029b      	lsls	r3, r3, #10
 8002856:	4013      	ands	r3, r2
 8002858:	d040      	beq.n	80028dc <HAL_RCC_OscConfig+0x5a8>
 800285a:	687b      	ldr	r3, [r7, #4]
 800285c:	6a1b      	ldr	r3, [r3, #32]
 800285e:	2b01      	cmp	r3, #1
 8002860:	d03c      	beq.n	80028dc <HAL_RCC_OscConfig+0x5a8>
      {
        return HAL_ERROR;
 8002862:	2301      	movs	r3, #1
 8002864:	e0e6      	b.n	8002a34 <HAL_RCC_OscConfig+0x700>
      }
    }
    else
    {
      /* Check the HSI48 State */
      if(RCC_OscInitStruct->HSI48State != RCC_HSI48_OFF)
 8002866:	687b      	ldr	r3, [r7, #4]
 8002868:	6a1b      	ldr	r3, [r3, #32]
 800286a:	2b00      	cmp	r3, #0
 800286c:	d01b      	beq.n	80028a6 <HAL_RCC_OscConfig+0x572>
      {
        /* Enable the Internal High Speed oscillator (HSI48). */
        __HAL_RCC_HSI48_ENABLE();
 800286e:	4b50      	ldr	r3, [pc, #320]	; (80029b0 <HAL_RCC_OscConfig+0x67c>)
 8002870:	6b5a      	ldr	r2, [r3, #52]	; 0x34
 8002872:	4b4f      	ldr	r3, [pc, #316]	; (80029b0 <HAL_RCC_OscConfig+0x67c>)
 8002874:	2180      	movs	r1, #128	; 0x80
 8002876:	0249      	lsls	r1, r1, #9
 8002878:	430a      	orrs	r2, r1
 800287a:	635a      	str	r2, [r3, #52]	; 0x34

        /* Get Start Tick */
        tickstart = HAL_GetTick();
 800287c:	f7fd fe3a 	bl	80004f4 <HAL_GetTick>
 8002880:	0003      	movs	r3, r0
 8002882:	61bb      	str	r3, [r7, #24]
      
        /* Wait till HSI48 is ready */  
        while(__HAL_RCC_GET_FLAG(RCC_FLAG_HSI48RDY) == RESET)
 8002884:	e008      	b.n	8002898 <HAL_RCC_OscConfig+0x564>
        {
          if((HAL_GetTick() - tickstart) > HSI48_TIMEOUT_VALUE)
 8002886:	f7fd fe35 	bl	80004f4 <HAL_GetTick>
 800288a:	0002      	movs	r2, r0
 800288c:	69bb      	ldr	r3, [r7, #24]
 800288e:	1ad3      	subs	r3, r2, r3
 8002890:	2b02      	cmp	r3, #2
 8002892:	d901      	bls.n	8002898 <HAL_RCC_OscConfig+0x564>
          {
            return HAL_TIMEOUT;
 8002894:	2303      	movs	r3, #3
 8002896:	e0cd      	b.n	8002a34 <HAL_RCC_OscConfig+0x700>
        while(__HAL_RCC_GET_FLAG(RCC_FLAG_HSI48RDY) == RESET)
 8002898:	4b45      	ldr	r3, [pc, #276]	; (80029b0 <HAL_RCC_OscConfig+0x67c>)
 800289a:	6b5a      	ldr	r2, [r3, #52]	; 0x34
 800289c:	2380      	movs	r3, #128	; 0x80
 800289e:	029b      	lsls	r3, r3, #10
 80028a0:	4013      	ands	r3, r2
 80028a2:	d0f0      	beq.n	8002886 <HAL_RCC_OscConfig+0x552>
 80028a4:	e01b      	b.n	80028de <HAL_RCC_OscConfig+0x5aa>
        } 
      }
      else
      {
        /* Disable the Internal High Speed oscillator (HSI48). */
        __HAL_RCC_HSI48_DISABLE();
 80028a6:	4b42      	ldr	r3, [pc, #264]	; (80029b0 <HAL_RCC_OscConfig+0x67c>)
 80028a8:	6b5a      	ldr	r2, [r3, #52]	; 0x34
 80028aa:	4b41      	ldr	r3, [pc, #260]	; (80029b0 <HAL_RCC_OscConfig+0x67c>)
 80028ac:	4943      	ldr	r1, [pc, #268]	; (80029bc <HAL_RCC_OscConfig+0x688>)
 80028ae:	400a      	ands	r2, r1
 80028b0:	635a      	str	r2, [r3, #52]	; 0x34

        /* Get Start Tick */
        tickstart = HAL_GetTick();
 80028b2:	f7fd fe1f 	bl	80004f4 <HAL_GetTick>
 80028b6:	0003      	movs	r3, r0
 80028b8:	61bb      	str	r3, [r7, #24]
      
        /* Wait till HSI48 is ready */  
        while(__HAL_RCC_GET_FLAG(RCC_FLAG_HSI48RDY) != RESET)
 80028ba:	e008      	b.n	80028ce <HAL_RCC_OscConfig+0x59a>
        {
          if((HAL_GetTick() - tickstart) > HSI48_TIMEOUT_VALUE)
 80028bc:	f7fd fe1a 	bl	80004f4 <HAL_GetTick>
 80028c0:	0002      	movs	r2, r0
 80028c2:	69bb      	ldr	r3, [r7, #24]
 80028c4:	1ad3      	subs	r3, r2, r3
 80028c6:	2b02      	cmp	r3, #2
 80028c8:	d901      	bls.n	80028ce <HAL_RCC_OscConfig+0x59a>
          {
            return HAL_TIMEOUT;
 80028ca:	2303      	movs	r3, #3
 80028cc:	e0b2      	b.n	8002a34 <HAL_RCC_OscConfig+0x700>
        while(__HAL_RCC_GET_FLAG(RCC_FLAG_HSI48RDY) != RESET)
 80028ce:	4b38      	ldr	r3, [pc, #224]	; (80029b0 <HAL_RCC_OscConfig+0x67c>)
 80028d0:	6b5a      	ldr	r2, [r3, #52]	; 0x34
 80028d2:	2380      	movs	r3, #128	; 0x80
 80028d4:	029b      	lsls	r3, r3, #10
 80028d6:	4013      	ands	r3, r2
 80028d8:	d1f0      	bne.n	80028bc <HAL_RCC_OscConfig+0x588>
 80028da:	e000      	b.n	80028de <HAL_RCC_OscConfig+0x5aa>
      if((__HAL_RCC_GET_FLAG(RCC_FLAG_HSI48RDY) != RESET) && (RCC_OscInitStruct->HSI48State != RCC_HSI48_ON))
 80028dc:	46c0      	nop			; (mov r8, r8)
#endif /* RCC_HSI48_SUPPORT */
       
  /*-------------------------------- PLL Configuration -----------------------*/
  /* Check the parameters */
  assert_param(IS_RCC_PLL(RCC_OscInitStruct->PLL.PLLState));
  if ((RCC_OscInitStruct->PLL.PLLState) != RCC_PLL_NONE)
 80028de:	687b      	ldr	r3, [r7, #4]
 80028e0:	6a5b      	ldr	r3, [r3, #36]	; 0x24
 80028e2:	2b00      	cmp	r3, #0
 80028e4:	d100      	bne.n	80028e8 <HAL_RCC_OscConfig+0x5b4>
 80028e6:	e0a4      	b.n	8002a32 <HAL_RCC_OscConfig+0x6fe>
  {
    /* Check if the PLL is used as system clock or not */
    if(__HAL_RCC_GET_SYSCLK_SOURCE() != RCC_SYSCLKSOURCE_STATUS_PLLCLK)
 80028e8:	4b31      	ldr	r3, [pc, #196]	; (80029b0 <HAL_RCC_OscConfig+0x67c>)
 80028ea:	685b      	ldr	r3, [r3, #4]
 80028ec:	220c      	movs	r2, #12
 80028ee:	4013      	ands	r3, r2
 80028f0:	2b08      	cmp	r3, #8
 80028f2:	d100      	bne.n	80028f6 <HAL_RCC_OscConfig+0x5c2>
 80028f4:	e078      	b.n	80029e8 <HAL_RCC_OscConfig+0x6b4>
    { 
      if((RCC_OscInitStruct->PLL.PLLState) == RCC_PLL_ON)
 80028f6:	687b      	ldr	r3, [r7, #4]
 80028f8:	6a5b      	ldr	r3, [r3, #36]	; 0x24
 80028fa:	2b02      	cmp	r3, #2
 80028fc:	d14c      	bne.n	8002998 <HAL_RCC_OscConfig+0x664>
        assert_param(IS_RCC_PLLSOURCE(RCC_OscInitStruct->PLL.PLLSource));
        assert_param(IS_RCC_PLL_MUL(RCC_OscInitStruct->PLL.PLLMUL));
        assert_param(IS_RCC_PREDIV(RCC_OscInitStruct->PLL.PREDIV));
  
        /* Disable the main PLL. */
        __HAL_RCC_PLL_DISABLE();
 80028fe:	4b2c      	ldr	r3, [pc, #176]	; (80029b0 <HAL_RCC_OscConfig+0x67c>)
 8002900:	681a      	ldr	r2, [r3, #0]
 8002902:	4b2b      	ldr	r3, [pc, #172]	; (80029b0 <HAL_RCC_OscConfig+0x67c>)
 8002904:	492e      	ldr	r1, [pc, #184]	; (80029c0 <HAL_RCC_OscConfig+0x68c>)
 8002906:	400a      	ands	r2, r1
 8002908:	601a      	str	r2, [r3, #0]
        
        /* Get Start Tick */
        tickstart = HAL_GetTick();
 800290a:	f7fd fdf3 	bl	80004f4 <HAL_GetTick>
 800290e:	0003      	movs	r3, r0
 8002910:	61bb      	str	r3, [r7, #24]
        
        /* Wait till PLL is disabled */
        while(__HAL_RCC_GET_FLAG(RCC_FLAG_PLLRDY)  != RESET)
 8002912:	e008      	b.n	8002926 <HAL_RCC_OscConfig+0x5f2>
        {
          if((HAL_GetTick() - tickstart ) > PLL_TIMEOUT_VALUE)
 8002914:	f7fd fdee 	bl	80004f4 <HAL_GetTick>
 8002918:	0002      	movs	r2, r0
 800291a:	69bb      	ldr	r3, [r7, #24]
 800291c:	1ad3      	subs	r3, r2, r3
 800291e:	2b02      	cmp	r3, #2
 8002920:	d901      	bls.n	8002926 <HAL_RCC_OscConfig+0x5f2>
          {
            return HAL_TIMEOUT;
 8002922:	2303      	movs	r3, #3
 8002924:	e086      	b.n	8002a34 <HAL_RCC_OscConfig+0x700>
        while(__HAL_RCC_GET_FLAG(RCC_FLAG_PLLRDY)  != RESET)
 8002926:	4b22      	ldr	r3, [pc, #136]	; (80029b0 <HAL_RCC_OscConfig+0x67c>)
 8002928:	681a      	ldr	r2, [r3, #0]
 800292a:	2380      	movs	r3, #128	; 0x80
 800292c:	049b      	lsls	r3, r3, #18
 800292e:	4013      	ands	r3, r2
 8002930:	d1f0      	bne.n	8002914 <HAL_RCC_OscConfig+0x5e0>
          }
        }

        /* Configure the main PLL clock source, predivider and multiplication factor. */
        __HAL_RCC_PLL_CONFIG(RCC_OscInitStruct->PLL.PLLSource,
 8002932:	4b1f      	ldr	r3, [pc, #124]	; (80029b0 <HAL_RCC_OscConfig+0x67c>)
 8002934:	6adb      	ldr	r3, [r3, #44]	; 0x2c
 8002936:	220f      	movs	r2, #15
 8002938:	4393      	bics	r3, r2
 800293a:	0019      	movs	r1, r3
 800293c:	687b      	ldr	r3, [r7, #4]
 800293e:	6b1a      	ldr	r2, [r3, #48]	; 0x30
 8002940:	4b1b      	ldr	r3, [pc, #108]	; (80029b0 <HAL_RCC_OscConfig+0x67c>)
 8002942:	430a      	orrs	r2, r1
 8002944:	62da      	str	r2, [r3, #44]	; 0x2c
 8002946:	4b1a      	ldr	r3, [pc, #104]	; (80029b0 <HAL_RCC_OscConfig+0x67c>)
 8002948:	685b      	ldr	r3, [r3, #4]
 800294a:	4a1e      	ldr	r2, [pc, #120]	; (80029c4 <HAL_RCC_OscConfig+0x690>)
 800294c:	4013      	ands	r3, r2
 800294e:	0019      	movs	r1, r3
 8002950:	687b      	ldr	r3, [r7, #4]
 8002952:	6ada      	ldr	r2, [r3, #44]	; 0x2c
 8002954:	687b      	ldr	r3, [r7, #4]
 8002956:	6a9b      	ldr	r3, [r3, #40]	; 0x28
 8002958:	431a      	orrs	r2, r3
 800295a:	4b15      	ldr	r3, [pc, #84]	; (80029b0 <HAL_RCC_OscConfig+0x67c>)
 800295c:	430a      	orrs	r2, r1
 800295e:	605a      	str	r2, [r3, #4]
                             RCC_OscInitStruct->PLL.PREDIV,
                             RCC_OscInitStruct->PLL.PLLMUL);
        /* Enable the main PLL. */
        __HAL_RCC_PLL_ENABLE();
 8002960:	4b13      	ldr	r3, [pc, #76]	; (80029b0 <HAL_RCC_OscConfig+0x67c>)
 8002962:	681a      	ldr	r2, [r3, #0]
 8002964:	4b12      	ldr	r3, [pc, #72]	; (80029b0 <HAL_RCC_OscConfig+0x67c>)
 8002966:	2180      	movs	r1, #128	; 0x80
 8002968:	0449      	lsls	r1, r1, #17
 800296a:	430a      	orrs	r2, r1
 800296c:	601a      	str	r2, [r3, #0]
        
        /* Get Start Tick */
        tickstart = HAL_GetTick();
 800296e:	f7fd fdc1 	bl	80004f4 <HAL_GetTick>
 8002972:	0003      	movs	r3, r0
 8002974:	61bb      	str	r3, [r7, #24]
        
        /* Wait till PLL is ready */
        while(__HAL_RCC_GET_FLAG(RCC_FLAG_PLLRDY)  == RESET)
 8002976:	e008      	b.n	800298a <HAL_RCC_OscConfig+0x656>
        {
          if((HAL_GetTick() - tickstart ) > PLL_TIMEOUT_VALUE)
 8002978:	f7fd fdbc 	bl	80004f4 <HAL_GetTick>
 800297c:	0002      	movs	r2, r0
 800297e:	69bb      	ldr	r3, [r7, #24]
 8002980:	1ad3      	subs	r3, r2, r3
 8002982:	2b02      	cmp	r3, #2
 8002984:	d901      	bls.n	800298a <HAL_RCC_OscConfig+0x656>
          {
            return HAL_TIMEOUT;
 8002986:	2303      	movs	r3, #3
 8002988:	e054      	b.n	8002a34 <HAL_RCC_OscConfig+0x700>
        while(__HAL_RCC_GET_FLAG(RCC_FLAG_PLLRDY)  == RESET)
 800298a:	4b09      	ldr	r3, [pc, #36]	; (80029b0 <HAL_RCC_OscConfig+0x67c>)
 800298c:	681a      	ldr	r2, [r3, #0]
 800298e:	2380      	movs	r3, #128	; 0x80
 8002990:	049b      	lsls	r3, r3, #18
 8002992:	4013      	ands	r3, r2
 8002994:	d0f0      	beq.n	8002978 <HAL_RCC_OscConfig+0x644>
 8002996:	e04c      	b.n	8002a32 <HAL_RCC_OscConfig+0x6fe>
        }
      }
      else
      {
        /* Disable the main PLL. */
        __HAL_RCC_PLL_DISABLE();
 8002998:	4b05      	ldr	r3, [pc, #20]	; (80029b0 <HAL_RCC_OscConfig+0x67c>)
 800299a:	681a      	ldr	r2, [r3, #0]
 800299c:	4b04      	ldr	r3, [pc, #16]	; (80029b0 <HAL_RCC_OscConfig+0x67c>)
 800299e:	4908      	ldr	r1, [pc, #32]	; (80029c0 <HAL_RCC_OscConfig+0x68c>)
 80029a0:	400a      	ands	r2, r1
 80029a2:	601a      	str	r2, [r3, #0]
 
        /* Get Start Tick */
        tickstart = HAL_GetTick();
 80029a4:	f7fd fda6 	bl	80004f4 <HAL_GetTick>
 80029a8:	0003      	movs	r3, r0
 80029aa:	61bb      	str	r3, [r7, #24]
        
        /* Wait till PLL is disabled */  
        while(__HAL_RCC_GET_FLAG(RCC_FLAG_PLLRDY)  != RESET)
 80029ac:	e015      	b.n	80029da <HAL_RCC_OscConfig+0x6a6>
 80029ae:	46c0      	nop			; (mov r8, r8)
 80029b0:	40021000 	.word	0x40021000
 80029b4:	00001388 	.word	0x00001388
 80029b8:	efffffff 	.word	0xefffffff
 80029bc:	fffeffff 	.word	0xfffeffff
 80029c0:	feffffff 	.word	0xfeffffff
 80029c4:	ffc27fff 	.word	0xffc27fff
        {
          if((HAL_GetTick() - tickstart ) > PLL_TIMEOUT_VALUE)
 80029c8:	f7fd fd94 	bl	80004f4 <HAL_GetTick>
 80029cc:	0002      	movs	r2, r0
 80029ce:	69bb      	ldr	r3, [r7, #24]
 80029d0:	1ad3      	subs	r3, r2, r3
 80029d2:	2b02      	cmp	r3, #2
 80029d4:	d901      	bls.n	80029da <HAL_RCC_OscConfig+0x6a6>
          {
            return HAL_TIMEOUT;
 80029d6:	2303      	movs	r3, #3
 80029d8:	e02c      	b.n	8002a34 <HAL_RCC_OscConfig+0x700>
        while(__HAL_RCC_GET_FLAG(RCC_FLAG_PLLRDY)  != RESET)
 80029da:	4b18      	ldr	r3, [pc, #96]	; (8002a3c <HAL_RCC_OscConfig+0x708>)
 80029dc:	681a      	ldr	r2, [r3, #0]
 80029de:	2380      	movs	r3, #128	; 0x80
 80029e0:	049b      	lsls	r3, r3, #18
 80029e2:	4013      	ands	r3, r2
 80029e4:	d1f0      	bne.n	80029c8 <HAL_RCC_OscConfig+0x694>
 80029e6:	e024      	b.n	8002a32 <HAL_RCC_OscConfig+0x6fe>
      }
    }
    else
    {
      /* Check if there is a request to disable the PLL used as System clock source */
      if((RCC_OscInitStruct->PLL.PLLState) == RCC_PLL_OFF)
 80029e8:	687b      	ldr	r3, [r7, #4]
 80029ea:	6a5b      	ldr	r3, [r3, #36]	; 0x24
 80029ec:	2b01      	cmp	r3, #1
 80029ee:	d101      	bne.n	80029f4 <HAL_RCC_OscConfig+0x6c0>
      {
        return HAL_ERROR;
 80029f0:	2301      	movs	r3, #1
 80029f2:	e01f      	b.n	8002a34 <HAL_RCC_OscConfig+0x700>
      }
      else
      {
        /* Do not return HAL_ERROR if request repeats the current configuration */
        pll_config  = RCC->CFGR;
 80029f4:	4b11      	ldr	r3, [pc, #68]	; (8002a3c <HAL_RCC_OscConfig+0x708>)
 80029f6:	685b      	ldr	r3, [r3, #4]
 80029f8:	617b      	str	r3, [r7, #20]
        pll_config2 = RCC->CFGR2;
 80029fa:	4b10      	ldr	r3, [pc, #64]	; (8002a3c <HAL_RCC_OscConfig+0x708>)
 80029fc:	6adb      	ldr	r3, [r3, #44]	; 0x2c
 80029fe:	613b      	str	r3, [r7, #16]
        if((READ_BIT(pll_config,  RCC_CFGR_PLLSRC)  != RCC_OscInitStruct->PLL.PLLSource) ||
 8002a00:	697a      	ldr	r2, [r7, #20]
 8002a02:	23c0      	movs	r3, #192	; 0xc0
 8002a04:	025b      	lsls	r3, r3, #9
 8002a06:	401a      	ands	r2, r3
 8002a08:	687b      	ldr	r3, [r7, #4]
 8002a0a:	6a9b      	ldr	r3, [r3, #40]	; 0x28
 8002a0c:	429a      	cmp	r2, r3
 8002a0e:	d10e      	bne.n	8002a2e <HAL_RCC_OscConfig+0x6fa>
           (READ_BIT(pll_config2, RCC_CFGR2_PREDIV) != RCC_OscInitStruct->PLL.PREDIV)    ||
 8002a10:	693b      	ldr	r3, [r7, #16]
 8002a12:	220f      	movs	r2, #15
 8002a14:	401a      	ands	r2, r3
 8002a16:	687b      	ldr	r3, [r7, #4]
 8002a18:	6b1b      	ldr	r3, [r3, #48]	; 0x30
        if((READ_BIT(pll_config,  RCC_CFGR_PLLSRC)  != RCC_OscInitStruct->PLL.PLLSource) ||
 8002a1a:	429a      	cmp	r2, r3
 8002a1c:	d107      	bne.n	8002a2e <HAL_RCC_OscConfig+0x6fa>
           (READ_BIT(pll_config,  RCC_CFGR_PLLMUL)  != RCC_OscInitStruct->PLL.PLLMUL))
 8002a1e:	697a      	ldr	r2, [r7, #20]
 8002a20:	23f0      	movs	r3, #240	; 0xf0
 8002a22:	039b      	lsls	r3, r3, #14
 8002a24:	401a      	ands	r2, r3
 8002a26:	687b      	ldr	r3, [r7, #4]
 8002a28:	6adb      	ldr	r3, [r3, #44]	; 0x2c
           (READ_BIT(pll_config2, RCC_CFGR2_PREDIV) != RCC_OscInitStruct->PLL.PREDIV)    ||
 8002a2a:	429a      	cmp	r2, r3
 8002a2c:	d001      	beq.n	8002a32 <HAL_RCC_OscConfig+0x6fe>
        {
          return HAL_ERROR;
 8002a2e:	2301      	movs	r3, #1
 8002a30:	e000      	b.n	8002a34 <HAL_RCC_OscConfig+0x700>
        }
      }
    }
  }

  return HAL_OK;
 8002a32:	2300      	movs	r3, #0
}
 8002a34:	0018      	movs	r0, r3
 8002a36:	46bd      	mov	sp, r7
 8002a38:	b008      	add	sp, #32
 8002a3a:	bd80      	pop	{r7, pc}
 8002a3c:	40021000 	.word	0x40021000

08002a40 <HAL_RCC_ClockConfig>:
  *         You can use @ref HAL_RCC_GetClockConfig() function to know which clock is
  *         currently used as system clock source.
  * @retval HAL status
  */
HAL_StatusTypeDef HAL_RCC_ClockConfig(RCC_ClkInitTypeDef  *RCC_ClkInitStruct, uint32_t FLatency)
{
 8002a40:	b580      	push	{r7, lr}
 8002a42:	b084      	sub	sp, #16
 8002a44:	af00      	add	r7, sp, #0
 8002a46:	6078      	str	r0, [r7, #4]
 8002a48:	6039      	str	r1, [r7, #0]
  uint32_t tickstart;

  /* Check Null pointer */
  if(RCC_ClkInitStruct == NULL)
 8002a4a:	687b      	ldr	r3, [r7, #4]
 8002a4c:	2b00      	cmp	r3, #0
 8002a4e:	d101      	bne.n	8002a54 <HAL_RCC_ClockConfig+0x14>
  {
    return HAL_ERROR;
 8002a50:	2301      	movs	r3, #1
 8002a52:	e0bf      	b.n	8002bd4 <HAL_RCC_ClockConfig+0x194>
  /* To correctly read data from FLASH memory, the number of wait states (LATENCY) 
  must be correctly programmed according to the frequency of the CPU clock 
    (HCLK) of the device. */

  /* Increasing the number of wait states because of higher CPU frequency */
  if(FLatency > __HAL_FLASH_GET_LATENCY())
 8002a54:	4b61      	ldr	r3, [pc, #388]	; (8002bdc <HAL_RCC_ClockConfig+0x19c>)
 8002a56:	681b      	ldr	r3, [r3, #0]
 8002a58:	2201      	movs	r2, #1
 8002a5a:	4013      	ands	r3, r2
 8002a5c:	683a      	ldr	r2, [r7, #0]
 8002a5e:	429a      	cmp	r2, r3
 8002a60:	d911      	bls.n	8002a86 <HAL_RCC_ClockConfig+0x46>
  {    
    /* Program the new number of wait states to the LATENCY bits in the FLASH_ACR register */
    __HAL_FLASH_SET_LATENCY(FLatency);
 8002a62:	4b5e      	ldr	r3, [pc, #376]	; (8002bdc <HAL_RCC_ClockConfig+0x19c>)
 8002a64:	681b      	ldr	r3, [r3, #0]
 8002a66:	2201      	movs	r2, #1
 8002a68:	4393      	bics	r3, r2
 8002a6a:	0019      	movs	r1, r3
 8002a6c:	4b5b      	ldr	r3, [pc, #364]	; (8002bdc <HAL_RCC_ClockConfig+0x19c>)
 8002a6e:	683a      	ldr	r2, [r7, #0]
 8002a70:	430a      	orrs	r2, r1
 8002a72:	601a      	str	r2, [r3, #0]
    
    /* Check that the new number of wait states is taken into account to access the Flash
    memory by reading the FLASH_ACR register */
    if(__HAL_FLASH_GET_LATENCY() != FLatency)
 8002a74:	4b59      	ldr	r3, [pc, #356]	; (8002bdc <HAL_RCC_ClockConfig+0x19c>)
 8002a76:	681b      	ldr	r3, [r3, #0]
 8002a78:	2201      	movs	r2, #1
 8002a7a:	4013      	ands	r3, r2
 8002a7c:	683a      	ldr	r2, [r7, #0]
 8002a7e:	429a      	cmp	r2, r3
 8002a80:	d001      	beq.n	8002a86 <HAL_RCC_ClockConfig+0x46>
    {
      return HAL_ERROR;
 8002a82:	2301      	movs	r3, #1
 8002a84:	e0a6      	b.n	8002bd4 <HAL_RCC_ClockConfig+0x194>
    }
  }

  /*-------------------------- HCLK Configuration --------------------------*/
  if(((RCC_ClkInitStruct->ClockType) & RCC_CLOCKTYPE_HCLK) == RCC_CLOCKTYPE_HCLK)
 8002a86:	687b      	ldr	r3, [r7, #4]
 8002a88:	681b      	ldr	r3, [r3, #0]
 8002a8a:	2202      	movs	r2, #2
 8002a8c:	4013      	ands	r3, r2
 8002a8e:	d015      	beq.n	8002abc <HAL_RCC_ClockConfig+0x7c>
  {
    /* Set the highest APB divider in order to ensure that we do not go through
       a non-spec phase whatever we decrease or increase HCLK. */
    if(((RCC_ClkInitStruct->ClockType) & RCC_CLOCKTYPE_PCLK1) == RCC_CLOCKTYPE_PCLK1)
 8002a90:	687b      	ldr	r3, [r7, #4]
 8002a92:	681b      	ldr	r3, [r3, #0]
 8002a94:	2204      	movs	r2, #4
 8002a96:	4013      	ands	r3, r2
 8002a98:	d006      	beq.n	8002aa8 <HAL_RCC_ClockConfig+0x68>
    {
      MODIFY_REG(RCC->CFGR, RCC_CFGR_PPRE, RCC_HCLK_DIV16);
 8002a9a:	4b51      	ldr	r3, [pc, #324]	; (8002be0 <HAL_RCC_ClockConfig+0x1a0>)
 8002a9c:	685a      	ldr	r2, [r3, #4]
 8002a9e:	4b50      	ldr	r3, [pc, #320]	; (8002be0 <HAL_RCC_ClockConfig+0x1a0>)
 8002aa0:	21e0      	movs	r1, #224	; 0xe0
 8002aa2:	00c9      	lsls	r1, r1, #3
 8002aa4:	430a      	orrs	r2, r1
 8002aa6:	605a      	str	r2, [r3, #4]
    }

    /* Set the new HCLK clock divider */
    assert_param(IS_RCC_HCLK(RCC_ClkInitStruct->AHBCLKDivider));
    MODIFY_REG(RCC->CFGR, RCC_CFGR_HPRE, RCC_ClkInitStruct->AHBCLKDivider);
 8002aa8:	4b4d      	ldr	r3, [pc, #308]	; (8002be0 <HAL_RCC_ClockConfig+0x1a0>)
 8002aaa:	685b      	ldr	r3, [r3, #4]
 8002aac:	22f0      	movs	r2, #240	; 0xf0
 8002aae:	4393      	bics	r3, r2
 8002ab0:	0019      	movs	r1, r3
 8002ab2:	687b      	ldr	r3, [r7, #4]
 8002ab4:	689a      	ldr	r2, [r3, #8]
 8002ab6:	4b4a      	ldr	r3, [pc, #296]	; (8002be0 <HAL_RCC_ClockConfig+0x1a0>)
 8002ab8:	430a      	orrs	r2, r1
 8002aba:	605a      	str	r2, [r3, #4]
  }

  /*------------------------- SYSCLK Configuration ---------------------------*/ 
  if(((RCC_ClkInitStruct->ClockType) & RCC_CLOCKTYPE_SYSCLK) == RCC_CLOCKTYPE_SYSCLK)
 8002abc:	687b      	ldr	r3, [r7, #4]
 8002abe:	681b      	ldr	r3, [r3, #0]
 8002ac0:	2201      	movs	r2, #1
 8002ac2:	4013      	ands	r3, r2
 8002ac4:	d04c      	beq.n	8002b60 <HAL_RCC_ClockConfig+0x120>
  {
    assert_param(IS_RCC_SYSCLKSOURCE(RCC_ClkInitStruct->SYSCLKSource));
    
    /* HSE is selected as System Clock Source */
    if(RCC_ClkInitStruct->SYSCLKSource == RCC_SYSCLKSOURCE_HSE)
 8002ac6:	687b      	ldr	r3, [r7, #4]
 8002ac8:	685b      	ldr	r3, [r3, #4]
 8002aca:	2b01      	cmp	r3, #1
 8002acc:	d107      	bne.n	8002ade <HAL_RCC_ClockConfig+0x9e>
    {
      /* Check the HSE ready flag */  
      if(__HAL_RCC_GET_FLAG(RCC_FLAG_HSERDY) == RESET)
 8002ace:	4b44      	ldr	r3, [pc, #272]	; (8002be0 <HAL_RCC_ClockConfig+0x1a0>)
 8002ad0:	681a      	ldr	r2, [r3, #0]
 8002ad2:	2380      	movs	r3, #128	; 0x80
 8002ad4:	029b      	lsls	r3, r3, #10
 8002ad6:	4013      	ands	r3, r2
 8002ad8:	d120      	bne.n	8002b1c <HAL_RCC_ClockConfig+0xdc>
      {
        return HAL_ERROR;
 8002ada:	2301      	movs	r3, #1
 8002adc:	e07a      	b.n	8002bd4 <HAL_RCC_ClockConfig+0x194>
      }
    }
    /* PLL is selected as System Clock Source */
    else if(RCC_ClkInitStruct->SYSCLKSource == RCC_SYSCLKSOURCE_PLLCLK)
 8002ade:	687b      	ldr	r3, [r7, #4]
 8002ae0:	685b      	ldr	r3, [r3, #4]
 8002ae2:	2b02      	cmp	r3, #2
 8002ae4:	d107      	bne.n	8002af6 <HAL_RCC_ClockConfig+0xb6>
    {
      /* Check the PLL ready flag */  
      if(__HAL_RCC_GET_FLAG(RCC_FLAG_PLLRDY) == RESET)
 8002ae6:	4b3e      	ldr	r3, [pc, #248]	; (8002be0 <HAL_RCC_ClockConfig+0x1a0>)
 8002ae8:	681a      	ldr	r2, [r3, #0]
 8002aea:	2380      	movs	r3, #128	; 0x80
 8002aec:	049b      	lsls	r3, r3, #18
 8002aee:	4013      	ands	r3, r2
 8002af0:	d114      	bne.n	8002b1c <HAL_RCC_ClockConfig+0xdc>
      {
        return HAL_ERROR;
 8002af2:	2301      	movs	r3, #1
 8002af4:	e06e      	b.n	8002bd4 <HAL_RCC_ClockConfig+0x194>
      }
    }
#if defined(RCC_CFGR_SWS_HSI48)
    /* HSI48 is selected as System Clock Source */
    else if(RCC_ClkInitStruct->SYSCLKSource == RCC_SYSCLKSOURCE_HSI48)
 8002af6:	687b      	ldr	r3, [r7, #4]
 8002af8:	685b      	ldr	r3, [r3, #4]
 8002afa:	2b03      	cmp	r3, #3
 8002afc:	d107      	bne.n	8002b0e <HAL_RCC_ClockConfig+0xce>
    {
      /* Check the HSI48 ready flag */
      if(__HAL_RCC_GET_FLAG(RCC_FLAG_HSI48RDY) == RESET)
 8002afe:	4b38      	ldr	r3, [pc, #224]	; (8002be0 <HAL_RCC_ClockConfig+0x1a0>)
 8002b00:	6b5a      	ldr	r2, [r3, #52]	; 0x34
 8002b02:	2380      	movs	r3, #128	; 0x80
 8002b04:	029b      	lsls	r3, r3, #10
 8002b06:	4013      	ands	r3, r2
 8002b08:	d108      	bne.n	8002b1c <HAL_RCC_ClockConfig+0xdc>
      {
        return HAL_ERROR;
 8002b0a:	2301      	movs	r3, #1
 8002b0c:	e062      	b.n	8002bd4 <HAL_RCC_ClockConfig+0x194>
#endif /* RCC_CFGR_SWS_HSI48 */
    /* HSI is selected as System Clock Source */
    else
    {
      /* Check the HSI ready flag */  
      if(__HAL_RCC_GET_FLAG(RCC_FLAG_HSIRDY) == RESET)
 8002b0e:	4b34      	ldr	r3, [pc, #208]	; (8002be0 <HAL_RCC_ClockConfig+0x1a0>)
 8002b10:	681b      	ldr	r3, [r3, #0]
 8002b12:	2202      	movs	r2, #2
 8002b14:	4013      	ands	r3, r2
 8002b16:	d101      	bne.n	8002b1c <HAL_RCC_ClockConfig+0xdc>
      {
        return HAL_ERROR;
 8002b18:	2301      	movs	r3, #1
 8002b1a:	e05b      	b.n	8002bd4 <HAL_RCC_ClockConfig+0x194>
      }
    }
    __HAL_RCC_SYSCLK_CONFIG(RCC_ClkInitStruct->SYSCLKSource);
 8002b1c:	4b30      	ldr	r3, [pc, #192]	; (8002be0 <HAL_RCC_ClockConfig+0x1a0>)
 8002b1e:	685b      	ldr	r3, [r3, #4]
 8002b20:	2203      	movs	r2, #3
 8002b22:	4393      	bics	r3, r2
 8002b24:	0019      	movs	r1, r3
 8002b26:	687b      	ldr	r3, [r7, #4]
 8002b28:	685a      	ldr	r2, [r3, #4]
 8002b2a:	4b2d      	ldr	r3, [pc, #180]	; (8002be0 <HAL_RCC_ClockConfig+0x1a0>)
 8002b2c:	430a      	orrs	r2, r1
 8002b2e:	605a      	str	r2, [r3, #4]

    /* Get Start Tick */
    tickstart = HAL_GetTick();
 8002b30:	f7fd fce0 	bl	80004f4 <HAL_GetTick>
 8002b34:	0003      	movs	r3, r0
 8002b36:	60fb      	str	r3, [r7, #12]
    
    while (__HAL_RCC_GET_SYSCLK_SOURCE() != (RCC_ClkInitStruct->SYSCLKSource << RCC_CFGR_SWS_Pos))
 8002b38:	e009      	b.n	8002b4e <HAL_RCC_ClockConfig+0x10e>
    {
      if((HAL_GetTick() - tickstart ) > CLOCKSWITCH_TIMEOUT_VALUE)
 8002b3a:	f7fd fcdb 	bl	80004f4 <HAL_GetTick>
 8002b3e:	0002      	movs	r2, r0
 8002b40:	68fb      	ldr	r3, [r7, #12]
 8002b42:	1ad3      	subs	r3, r2, r3
 8002b44:	4a27      	ldr	r2, [pc, #156]	; (8002be4 <HAL_RCC_ClockConfig+0x1a4>)
 8002b46:	4293      	cmp	r3, r2
 8002b48:	d901      	bls.n	8002b4e <HAL_RCC_ClockConfig+0x10e>
      {
        return HAL_TIMEOUT;
 8002b4a:	2303      	movs	r3, #3
 8002b4c:	e042      	b.n	8002bd4 <HAL_RCC_ClockConfig+0x194>
    while (__HAL_RCC_GET_SYSCLK_SOURCE() != (RCC_ClkInitStruct->SYSCLKSource << RCC_CFGR_SWS_Pos))
 8002b4e:	4b24      	ldr	r3, [pc, #144]	; (8002be0 <HAL_RCC_ClockConfig+0x1a0>)
 8002b50:	685b      	ldr	r3, [r3, #4]
 8002b52:	220c      	movs	r2, #12
 8002b54:	401a      	ands	r2, r3
 8002b56:	687b      	ldr	r3, [r7, #4]
 8002b58:	685b      	ldr	r3, [r3, #4]
 8002b5a:	009b      	lsls	r3, r3, #2
 8002b5c:	429a      	cmp	r2, r3
 8002b5e:	d1ec      	bne.n	8002b3a <HAL_RCC_ClockConfig+0xfa>
      }
    }
  }

  /* Decreasing the number of wait states because of lower CPU frequency */
  if(FLatency < __HAL_FLASH_GET_LATENCY())
 8002b60:	4b1e      	ldr	r3, [pc, #120]	; (8002bdc <HAL_RCC_ClockConfig+0x19c>)
 8002b62:	681b      	ldr	r3, [r3, #0]
 8002b64:	2201      	movs	r2, #1
 8002b66:	4013      	ands	r3, r2
 8002b68:	683a      	ldr	r2, [r7, #0]
 8002b6a:	429a      	cmp	r2, r3
 8002b6c:	d211      	bcs.n	8002b92 <HAL_RCC_ClockConfig+0x152>
  {    
    /* Program the new number of wait states to the LATENCY bits in the FLASH_ACR register */
    __HAL_FLASH_SET_LATENCY(FLatency);
 8002b6e:	4b1b      	ldr	r3, [pc, #108]	; (8002bdc <HAL_RCC_ClockConfig+0x19c>)
 8002b70:	681b      	ldr	r3, [r3, #0]
 8002b72:	2201      	movs	r2, #1
 8002b74:	4393      	bics	r3, r2
 8002b76:	0019      	movs	r1, r3
 8002b78:	4b18      	ldr	r3, [pc, #96]	; (8002bdc <HAL_RCC_ClockConfig+0x19c>)
 8002b7a:	683a      	ldr	r2, [r7, #0]
 8002b7c:	430a      	orrs	r2, r1
 8002b7e:	601a      	str	r2, [r3, #0]
    
    /* Check that the new number of wait states is taken into account to access the Flash
    memory by reading the FLASH_ACR register */
    if(__HAL_FLASH_GET_LATENCY() != FLatency)
 8002b80:	4b16      	ldr	r3, [pc, #88]	; (8002bdc <HAL_RCC_ClockConfig+0x19c>)
 8002b82:	681b      	ldr	r3, [r3, #0]
 8002b84:	2201      	movs	r2, #1
 8002b86:	4013      	ands	r3, r2
 8002b88:	683a      	ldr	r2, [r7, #0]
 8002b8a:	429a      	cmp	r2, r3
 8002b8c:	d001      	beq.n	8002b92 <HAL_RCC_ClockConfig+0x152>
    {
      return HAL_ERROR;
 8002b8e:	2301      	movs	r3, #1
 8002b90:	e020      	b.n	8002bd4 <HAL_RCC_ClockConfig+0x194>
    }
  }    

  /*-------------------------- PCLK1 Configuration ---------------------------*/ 
  if(((RCC_ClkInitStruct->ClockType) & RCC_CLOCKTYPE_PCLK1) == RCC_CLOCKTYPE_PCLK1)
 8002b92:	687b      	ldr	r3, [r7, #4]
 8002b94:	681b      	ldr	r3, [r3, #0]
 8002b96:	2204      	movs	r2, #4
 8002b98:	4013      	ands	r3, r2
 8002b9a:	d009      	beq.n	8002bb0 <HAL_RCC_ClockConfig+0x170>
  {
    assert_param(IS_RCC_PCLK(RCC_ClkInitStruct->APB1CLKDivider));
    MODIFY_REG(RCC->CFGR, RCC_CFGR_PPRE, RCC_ClkInitStruct->APB1CLKDivider);
 8002b9c:	4b10      	ldr	r3, [pc, #64]	; (8002be0 <HAL_RCC_ClockConfig+0x1a0>)
 8002b9e:	685b      	ldr	r3, [r3, #4]
 8002ba0:	4a11      	ldr	r2, [pc, #68]	; (8002be8 <HAL_RCC_ClockConfig+0x1a8>)
 8002ba2:	4013      	ands	r3, r2
 8002ba4:	0019      	movs	r1, r3
 8002ba6:	687b      	ldr	r3, [r7, #4]
 8002ba8:	68da      	ldr	r2, [r3, #12]
 8002baa:	4b0d      	ldr	r3, [pc, #52]	; (8002be0 <HAL_RCC_ClockConfig+0x1a0>)
 8002bac:	430a      	orrs	r2, r1
 8002bae:	605a      	str	r2, [r3, #4]
  }
  
  /* Update the SystemCoreClock global variable */
  SystemCoreClock = HAL_RCC_GetSysClockFreq() >> AHBPrescTable[(RCC->CFGR & RCC_CFGR_HPRE)>> RCC_CFGR_HPRE_BITNUMBER];
 8002bb0:	f000 f820 	bl	8002bf4 <HAL_RCC_GetSysClockFreq>
 8002bb4:	0001      	movs	r1, r0
 8002bb6:	4b0a      	ldr	r3, [pc, #40]	; (8002be0 <HAL_RCC_ClockConfig+0x1a0>)
 8002bb8:	685b      	ldr	r3, [r3, #4]
 8002bba:	091b      	lsrs	r3, r3, #4
 8002bbc:	220f      	movs	r2, #15
 8002bbe:	4013      	ands	r3, r2
 8002bc0:	4a0a      	ldr	r2, [pc, #40]	; (8002bec <HAL_RCC_ClockConfig+0x1ac>)
 8002bc2:	5cd3      	ldrb	r3, [r2, r3]
 8002bc4:	000a      	movs	r2, r1
 8002bc6:	40da      	lsrs	r2, r3
 8002bc8:	4b09      	ldr	r3, [pc, #36]	; (8002bf0 <HAL_RCC_ClockConfig+0x1b0>)
 8002bca:	601a      	str	r2, [r3, #0]

  /* Configure the source of time base considering new system clocks settings*/
  HAL_InitTick (TICK_INT_PRIORITY);
 8002bcc:	2003      	movs	r0, #3
 8002bce:	f7fd fc4b 	bl	8000468 <HAL_InitTick>
  
  return HAL_OK;
 8002bd2:	2300      	movs	r3, #0
}
 8002bd4:	0018      	movs	r0, r3
 8002bd6:	46bd      	mov	sp, r7
 8002bd8:	b004      	add	sp, #16
 8002bda:	bd80      	pop	{r7, pc}
 8002bdc:	40022000 	.word	0x40022000
 8002be0:	40021000 	.word	0x40021000
 8002be4:	00001388 	.word	0x00001388
 8002be8:	fffff8ff 	.word	0xfffff8ff
 8002bec:	0800730c 	.word	0x0800730c
 8002bf0:	20000000 	.word	0x20000000

08002bf4 <HAL_RCC_GetSysClockFreq>:
  *         right SYSCLK value. Otherwise, any configuration based on this function will be incorrect.
  *         
  * @retval SYSCLK frequency
  */
uint32_t HAL_RCC_GetSysClockFreq(void)
{
 8002bf4:	b580      	push	{r7, lr}
 8002bf6:	b086      	sub	sp, #24
 8002bf8:	af00      	add	r7, sp, #0
  static const uint8_t aPLLMULFactorTable[16U] = { 2U,  3U,  4U,  5U,  6U,  7U,  8U,  9U,
                                                   10U, 11U, 12U, 13U, 14U, 15U, 16U, 16U};
  static const uint8_t aPredivFactorTable[16U] = { 1U, 2U,  3U,  4U,  5U,  6U,  7U,  8U,
                                                   9U,10U, 11U, 12U, 13U, 14U, 15U, 16U};

  uint32_t tmpreg = 0U, prediv = 0U, pllclk = 0U, pllmul = 0U;
 8002bfa:	2300      	movs	r3, #0
 8002bfc:	60fb      	str	r3, [r7, #12]
 8002bfe:	2300      	movs	r3, #0
 8002c00:	60bb      	str	r3, [r7, #8]
 8002c02:	2300      	movs	r3, #0
 8002c04:	617b      	str	r3, [r7, #20]
 8002c06:	2300      	movs	r3, #0
 8002c08:	607b      	str	r3, [r7, #4]
  uint32_t sysclockfreq = 0U;
 8002c0a:	2300      	movs	r3, #0
 8002c0c:	613b      	str	r3, [r7, #16]
  
  tmpreg = RCC->CFGR;
 8002c0e:	4b2d      	ldr	r3, [pc, #180]	; (8002cc4 <HAL_RCC_GetSysClockFreq+0xd0>)
 8002c10:	685b      	ldr	r3, [r3, #4]
 8002c12:	60fb      	str	r3, [r7, #12]
  
  /* Get SYSCLK source -------------------------------------------------------*/
  switch (tmpreg & RCC_CFGR_SWS)
 8002c14:	68fb      	ldr	r3, [r7, #12]
 8002c16:	220c      	movs	r2, #12
 8002c18:	4013      	ands	r3, r2
 8002c1a:	2b0c      	cmp	r3, #12
 8002c1c:	d046      	beq.n	8002cac <HAL_RCC_GetSysClockFreq+0xb8>
 8002c1e:	d848      	bhi.n	8002cb2 <HAL_RCC_GetSysClockFreq+0xbe>
 8002c20:	2b04      	cmp	r3, #4
 8002c22:	d002      	beq.n	8002c2a <HAL_RCC_GetSysClockFreq+0x36>
 8002c24:	2b08      	cmp	r3, #8
 8002c26:	d003      	beq.n	8002c30 <HAL_RCC_GetSysClockFreq+0x3c>
 8002c28:	e043      	b.n	8002cb2 <HAL_RCC_GetSysClockFreq+0xbe>
  {
    case RCC_SYSCLKSOURCE_STATUS_HSE:  /* HSE used as system clock */
    {
      sysclockfreq = HSE_VALUE;
 8002c2a:	4b27      	ldr	r3, [pc, #156]	; (8002cc8 <HAL_RCC_GetSysClockFreq+0xd4>)
 8002c2c:	613b      	str	r3, [r7, #16]
      break;
 8002c2e:	e043      	b.n	8002cb8 <HAL_RCC_GetSysClockFreq+0xc4>
    }
    case RCC_SYSCLKSOURCE_STATUS_PLLCLK:  /* PLL used as system clock */
    {
      pllmul = aPLLMULFactorTable[(uint32_t)(tmpreg & RCC_CFGR_PLLMUL) >> RCC_CFGR_PLLMUL_BITNUMBER];
 8002c30:	68fb      	ldr	r3, [r7, #12]
 8002c32:	0c9b      	lsrs	r3, r3, #18
 8002c34:	220f      	movs	r2, #15
 8002c36:	4013      	ands	r3, r2
 8002c38:	4a24      	ldr	r2, [pc, #144]	; (8002ccc <HAL_RCC_GetSysClockFreq+0xd8>)
 8002c3a:	5cd3      	ldrb	r3, [r2, r3]
 8002c3c:	607b      	str	r3, [r7, #4]
      prediv = aPredivFactorTable[(uint32_t)(RCC->CFGR2 & RCC_CFGR2_PREDIV) >> RCC_CFGR2_PREDIV_BITNUMBER];
 8002c3e:	4b21      	ldr	r3, [pc, #132]	; (8002cc4 <HAL_RCC_GetSysClockFreq+0xd0>)
 8002c40:	6adb      	ldr	r3, [r3, #44]	; 0x2c
 8002c42:	220f      	movs	r2, #15
 8002c44:	4013      	ands	r3, r2
 8002c46:	4a22      	ldr	r2, [pc, #136]	; (8002cd0 <HAL_RCC_GetSysClockFreq+0xdc>)
 8002c48:	5cd3      	ldrb	r3, [r2, r3]
 8002c4a:	60bb      	str	r3, [r7, #8]
      if ((tmpreg & RCC_CFGR_PLLSRC) == RCC_PLLSOURCE_HSE)
 8002c4c:	68fa      	ldr	r2, [r7, #12]
 8002c4e:	23c0      	movs	r3, #192	; 0xc0
 8002c50:	025b      	lsls	r3, r3, #9
 8002c52:	401a      	ands	r2, r3
 8002c54:	2380      	movs	r3, #128	; 0x80
 8002c56:	025b      	lsls	r3, r3, #9
 8002c58:	429a      	cmp	r2, r3
 8002c5a:	d109      	bne.n	8002c70 <HAL_RCC_GetSysClockFreq+0x7c>
      {
        /* HSE used as PLL clock source : PLLCLK = HSE/PREDIV * PLLMUL */
        pllclk = (uint32_t)((uint64_t) HSE_VALUE / (uint64_t) (prediv)) * ((uint64_t) pllmul);
 8002c5c:	68b9      	ldr	r1, [r7, #8]
 8002c5e:	481a      	ldr	r0, [pc, #104]	; (8002cc8 <HAL_RCC_GetSysClockFreq+0xd4>)
 8002c60:	f7fd fa52 	bl	8000108 <__udivsi3>
 8002c64:	0003      	movs	r3, r0
 8002c66:	001a      	movs	r2, r3
 8002c68:	687b      	ldr	r3, [r7, #4]
 8002c6a:	4353      	muls	r3, r2
 8002c6c:	617b      	str	r3, [r7, #20]
 8002c6e:	e01a      	b.n	8002ca6 <HAL_RCC_GetSysClockFreq+0xb2>
      }
#if defined(RCC_CFGR_PLLSRC_HSI48_PREDIV)
      else if ((tmpreg & RCC_CFGR_PLLSRC) == RCC_PLLSOURCE_HSI48)
 8002c70:	68fa      	ldr	r2, [r7, #12]
 8002c72:	23c0      	movs	r3, #192	; 0xc0
 8002c74:	025b      	lsls	r3, r3, #9
 8002c76:	401a      	ands	r2, r3
 8002c78:	23c0      	movs	r3, #192	; 0xc0
 8002c7a:	025b      	lsls	r3, r3, #9
 8002c7c:	429a      	cmp	r2, r3
 8002c7e:	d109      	bne.n	8002c94 <HAL_RCC_GetSysClockFreq+0xa0>
      {
        /* HSI48 used as PLL clock source : PLLCLK = HSI48/PREDIV * PLLMUL */
        pllclk = (uint32_t)((uint64_t) HSI48_VALUE / (uint64_t) (prediv)) * ((uint64_t) pllmul);
 8002c80:	68b9      	ldr	r1, [r7, #8]
 8002c82:	4814      	ldr	r0, [pc, #80]	; (8002cd4 <HAL_RCC_GetSysClockFreq+0xe0>)
 8002c84:	f7fd fa40 	bl	8000108 <__udivsi3>
 8002c88:	0003      	movs	r3, r0
 8002c8a:	001a      	movs	r2, r3
 8002c8c:	687b      	ldr	r3, [r7, #4]
 8002c8e:	4353      	muls	r3, r2
 8002c90:	617b      	str	r3, [r7, #20]
 8002c92:	e008      	b.n	8002ca6 <HAL_RCC_GetSysClockFreq+0xb2>
#endif /* RCC_CFGR_PLLSRC_HSI48_PREDIV */
      else
      {
#if  (defined(STM32F042x6) || defined(STM32F048xx) || defined(STM32F070x6) || defined(STM32F071xB) || defined(STM32F072xB) || defined(STM32F078xx) || defined(STM32F070xB) || defined(STM32F091xC) || defined(STM32F098xx) || defined(STM32F030xC))
        /* HSI used as PLL clock source : PLLCLK = HSI/PREDIV * PLLMUL */
        pllclk = (uint32_t)((uint64_t) HSI_VALUE / (uint64_t) (prediv)) * ((uint64_t) pllmul);
 8002c94:	68b9      	ldr	r1, [r7, #8]
 8002c96:	480c      	ldr	r0, [pc, #48]	; (8002cc8 <HAL_RCC_GetSysClockFreq+0xd4>)
 8002c98:	f7fd fa36 	bl	8000108 <__udivsi3>
 8002c9c:	0003      	movs	r3, r0
 8002c9e:	001a      	movs	r2, r3
 8002ca0:	687b      	ldr	r3, [r7, #4]
 8002ca2:	4353      	muls	r3, r2
 8002ca4:	617b      	str	r3, [r7, #20]
#else
        /* HSI used as PLL clock source : PLLCLK = HSI/2 * PLLMUL */
        pllclk = (uint32_t)((uint64_t) (HSI_VALUE >> 1U) * ((uint64_t) pllmul));
#endif
      }
      sysclockfreq = pllclk;
 8002ca6:	697b      	ldr	r3, [r7, #20]
 8002ca8:	613b      	str	r3, [r7, #16]
      break;
 8002caa:	e005      	b.n	8002cb8 <HAL_RCC_GetSysClockFreq+0xc4>
    }
#if defined(RCC_CFGR_SWS_HSI48)
    case RCC_SYSCLKSOURCE_STATUS_HSI48:    /* HSI48 used as system clock source */
    {
      sysclockfreq = HSI48_VALUE;
 8002cac:	4b09      	ldr	r3, [pc, #36]	; (8002cd4 <HAL_RCC_GetSysClockFreq+0xe0>)
 8002cae:	613b      	str	r3, [r7, #16]
      break;
 8002cb0:	e002      	b.n	8002cb8 <HAL_RCC_GetSysClockFreq+0xc4>
    }
#endif /* RCC_CFGR_SWS_HSI48 */
    case RCC_SYSCLKSOURCE_STATUS_HSI:  /* HSI used as system clock source */
    default: /* HSI used as system clock */
    {
      sysclockfreq = HSI_VALUE;
 8002cb2:	4b05      	ldr	r3, [pc, #20]	; (8002cc8 <HAL_RCC_GetSysClockFreq+0xd4>)
 8002cb4:	613b      	str	r3, [r7, #16]
      break;
 8002cb6:	46c0      	nop			; (mov r8, r8)
    }
  }
  return sysclockfreq;
 8002cb8:	693b      	ldr	r3, [r7, #16]
}
 8002cba:	0018      	movs	r0, r3
 8002cbc:	46bd      	mov	sp, r7
 8002cbe:	b006      	add	sp, #24
 8002cc0:	bd80      	pop	{r7, pc}
 8002cc2:	46c0      	nop			; (mov r8, r8)
 8002cc4:	40021000 	.word	0x40021000
 8002cc8:	007a1200 	.word	0x007a1200
 8002ccc:	0800731c 	.word	0x0800731c
 8002cd0:	0800732c 	.word	0x0800732c
 8002cd4:	02dc6c00 	.word	0x02dc6c00

08002cd8 <HAL_RCCEx_PeriphCLKConfig>:
  *         the backup registers) and RCC_BDCR register are set to their reset values.
  *
  * @retval HAL status
  */
HAL_StatusTypeDef HAL_RCCEx_PeriphCLKConfig(RCC_PeriphCLKInitTypeDef  *PeriphClkInit)
{
 8002cd8:	b580      	push	{r7, lr}
 8002cda:	b086      	sub	sp, #24
 8002cdc:	af00      	add	r7, sp, #0
 8002cde:	6078      	str	r0, [r7, #4]
  uint32_t tickstart = 0U;
 8002ce0:	2300      	movs	r3, #0
 8002ce2:	613b      	str	r3, [r7, #16]
  uint32_t temp_reg = 0U;
 8002ce4:	2300      	movs	r3, #0
 8002ce6:	60fb      	str	r3, [r7, #12]

  /* Check the parameters */
  assert_param(IS_RCC_PERIPHCLOCK(PeriphClkInit->PeriphClockSelection));
  
  /*---------------------------- RTC configuration -------------------------------*/
  if(((PeriphClkInit->PeriphClockSelection) & RCC_PERIPHCLK_RTC) == (RCC_PERIPHCLK_RTC))
 8002ce8:	687b      	ldr	r3, [r7, #4]
 8002cea:	681a      	ldr	r2, [r3, #0]
 8002cec:	2380      	movs	r3, #128	; 0x80
 8002cee:	025b      	lsls	r3, r3, #9
 8002cf0:	4013      	ands	r3, r2
 8002cf2:	d100      	bne.n	8002cf6 <HAL_RCCEx_PeriphCLKConfig+0x1e>
 8002cf4:	e08e      	b.n	8002e14 <HAL_RCCEx_PeriphCLKConfig+0x13c>
  {
    /* check for RTC Parameters used to output RTCCLK */
    assert_param(IS_RCC_RTCCLKSOURCE(PeriphClkInit->RTCClockSelection));
    
    FlagStatus       pwrclkchanged = RESET;
 8002cf6:	2017      	movs	r0, #23
 8002cf8:	183b      	adds	r3, r7, r0
 8002cfa:	2200      	movs	r2, #0
 8002cfc:	701a      	strb	r2, [r3, #0]

    /* As soon as function is called to change RTC clock source, activation of the 
       power domain is done. */
    /* Requires to enable write access to Backup Domain of necessary */
    if(__HAL_RCC_PWR_IS_CLK_DISABLED())
 8002cfe:	4b67      	ldr	r3, [pc, #412]	; (8002e9c <HAL_RCCEx_PeriphCLKConfig+0x1c4>)
 8002d00:	69da      	ldr	r2, [r3, #28]
 8002d02:	2380      	movs	r3, #128	; 0x80
 8002d04:	055b      	lsls	r3, r3, #21
 8002d06:	4013      	ands	r3, r2
 8002d08:	d110      	bne.n	8002d2c <HAL_RCCEx_PeriphCLKConfig+0x54>
    {
    __HAL_RCC_PWR_CLK_ENABLE();
 8002d0a:	4b64      	ldr	r3, [pc, #400]	; (8002e9c <HAL_RCCEx_PeriphCLKConfig+0x1c4>)
 8002d0c:	69da      	ldr	r2, [r3, #28]
 8002d0e:	4b63      	ldr	r3, [pc, #396]	; (8002e9c <HAL_RCCEx_PeriphCLKConfig+0x1c4>)
 8002d10:	2180      	movs	r1, #128	; 0x80
 8002d12:	0549      	lsls	r1, r1, #21
 8002d14:	430a      	orrs	r2, r1
 8002d16:	61da      	str	r2, [r3, #28]
 8002d18:	4b60      	ldr	r3, [pc, #384]	; (8002e9c <HAL_RCCEx_PeriphCLKConfig+0x1c4>)
 8002d1a:	69da      	ldr	r2, [r3, #28]
 8002d1c:	2380      	movs	r3, #128	; 0x80
 8002d1e:	055b      	lsls	r3, r3, #21
 8002d20:	4013      	ands	r3, r2
 8002d22:	60bb      	str	r3, [r7, #8]
 8002d24:	68bb      	ldr	r3, [r7, #8]
      pwrclkchanged = SET;
 8002d26:	183b      	adds	r3, r7, r0
 8002d28:	2201      	movs	r2, #1
 8002d2a:	701a      	strb	r2, [r3, #0]
    }
    
    if(HAL_IS_BIT_CLR(PWR->CR, PWR_CR_DBP))
 8002d2c:	4b5c      	ldr	r3, [pc, #368]	; (8002ea0 <HAL_RCCEx_PeriphCLKConfig+0x1c8>)
 8002d2e:	681a      	ldr	r2, [r3, #0]
 8002d30:	2380      	movs	r3, #128	; 0x80
 8002d32:	005b      	lsls	r3, r3, #1
 8002d34:	4013      	ands	r3, r2
 8002d36:	d11a      	bne.n	8002d6e <HAL_RCCEx_PeriphCLKConfig+0x96>
    {
      /* Enable write access to Backup domain */
      SET_BIT(PWR->CR, PWR_CR_DBP);
 8002d38:	4b59      	ldr	r3, [pc, #356]	; (8002ea0 <HAL_RCCEx_PeriphCLKConfig+0x1c8>)
 8002d3a:	681a      	ldr	r2, [r3, #0]
 8002d3c:	4b58      	ldr	r3, [pc, #352]	; (8002ea0 <HAL_RCCEx_PeriphCLKConfig+0x1c8>)
 8002d3e:	2180      	movs	r1, #128	; 0x80
 8002d40:	0049      	lsls	r1, r1, #1
 8002d42:	430a      	orrs	r2, r1
 8002d44:	601a      	str	r2, [r3, #0]
      
      /* Wait for Backup domain Write protection disable */
      tickstart = HAL_GetTick();
 8002d46:	f7fd fbd5 	bl	80004f4 <HAL_GetTick>
 8002d4a:	0003      	movs	r3, r0
 8002d4c:	613b      	str	r3, [r7, #16]
      
      while(HAL_IS_BIT_CLR(PWR->CR, PWR_CR_DBP))
 8002d4e:	e008      	b.n	8002d62 <HAL_RCCEx_PeriphCLKConfig+0x8a>
      {
        if((HAL_GetTick() - tickstart) > RCC_DBP_TIMEOUT_VALUE)
 8002d50:	f7fd fbd0 	bl	80004f4 <HAL_GetTick>
 8002d54:	0002      	movs	r2, r0
 8002d56:	693b      	ldr	r3, [r7, #16]
 8002d58:	1ad3      	subs	r3, r2, r3
 8002d5a:	2b64      	cmp	r3, #100	; 0x64
 8002d5c:	d901      	bls.n	8002d62 <HAL_RCCEx_PeriphCLKConfig+0x8a>
        {
          return HAL_TIMEOUT;
 8002d5e:	2303      	movs	r3, #3
 8002d60:	e097      	b.n	8002e92 <HAL_RCCEx_PeriphCLKConfig+0x1ba>
      while(HAL_IS_BIT_CLR(PWR->CR, PWR_CR_DBP))
 8002d62:	4b4f      	ldr	r3, [pc, #316]	; (8002ea0 <HAL_RCCEx_PeriphCLKConfig+0x1c8>)
 8002d64:	681a      	ldr	r2, [r3, #0]
 8002d66:	2380      	movs	r3, #128	; 0x80
 8002d68:	005b      	lsls	r3, r3, #1
 8002d6a:	4013      	ands	r3, r2
 8002d6c:	d0f0      	beq.n	8002d50 <HAL_RCCEx_PeriphCLKConfig+0x78>
        }
      }
    }
    
    /* Reset the Backup domain only if the RTC Clock source selection is modified from reset value */ 
    temp_reg = (RCC->BDCR & RCC_BDCR_RTCSEL);
 8002d6e:	4b4b      	ldr	r3, [pc, #300]	; (8002e9c <HAL_RCCEx_PeriphCLKConfig+0x1c4>)
 8002d70:	6a1a      	ldr	r2, [r3, #32]
 8002d72:	23c0      	movs	r3, #192	; 0xc0
 8002d74:	009b      	lsls	r3, r3, #2
 8002d76:	4013      	ands	r3, r2
 8002d78:	60fb      	str	r3, [r7, #12]
    if((temp_reg != 0x00000000U) && (temp_reg != (PeriphClkInit->RTCClockSelection & RCC_BDCR_RTCSEL)))
 8002d7a:	68fb      	ldr	r3, [r7, #12]
 8002d7c:	2b00      	cmp	r3, #0
 8002d7e:	d034      	beq.n	8002dea <HAL_RCCEx_PeriphCLKConfig+0x112>
 8002d80:	687b      	ldr	r3, [r7, #4]
 8002d82:	685a      	ldr	r2, [r3, #4]
 8002d84:	23c0      	movs	r3, #192	; 0xc0
 8002d86:	009b      	lsls	r3, r3, #2
 8002d88:	4013      	ands	r3, r2
 8002d8a:	68fa      	ldr	r2, [r7, #12]
 8002d8c:	429a      	cmp	r2, r3
 8002d8e:	d02c      	beq.n	8002dea <HAL_RCCEx_PeriphCLKConfig+0x112>
    {
      /* Store the content of BDCR register before the reset of Backup Domain */
      temp_reg = (RCC->BDCR & ~(RCC_BDCR_RTCSEL));
 8002d90:	4b42      	ldr	r3, [pc, #264]	; (8002e9c <HAL_RCCEx_PeriphCLKConfig+0x1c4>)
 8002d92:	6a1b      	ldr	r3, [r3, #32]
 8002d94:	4a43      	ldr	r2, [pc, #268]	; (8002ea4 <HAL_RCCEx_PeriphCLKConfig+0x1cc>)
 8002d96:	4013      	ands	r3, r2
 8002d98:	60fb      	str	r3, [r7, #12]
      /* RTC Clock selection can be changed only if the Backup Domain is reset */
      __HAL_RCC_BACKUPRESET_FORCE();
 8002d9a:	4b40      	ldr	r3, [pc, #256]	; (8002e9c <HAL_RCCEx_PeriphCLKConfig+0x1c4>)
 8002d9c:	6a1a      	ldr	r2, [r3, #32]
 8002d9e:	4b3f      	ldr	r3, [pc, #252]	; (8002e9c <HAL_RCCEx_PeriphCLKConfig+0x1c4>)
 8002da0:	2180      	movs	r1, #128	; 0x80
 8002da2:	0249      	lsls	r1, r1, #9
 8002da4:	430a      	orrs	r2, r1
 8002da6:	621a      	str	r2, [r3, #32]
      __HAL_RCC_BACKUPRESET_RELEASE();
 8002da8:	4b3c      	ldr	r3, [pc, #240]	; (8002e9c <HAL_RCCEx_PeriphCLKConfig+0x1c4>)
 8002daa:	6a1a      	ldr	r2, [r3, #32]
 8002dac:	4b3b      	ldr	r3, [pc, #236]	; (8002e9c <HAL_RCCEx_PeriphCLKConfig+0x1c4>)
 8002dae:	493e      	ldr	r1, [pc, #248]	; (8002ea8 <HAL_RCCEx_PeriphCLKConfig+0x1d0>)
 8002db0:	400a      	ands	r2, r1
 8002db2:	621a      	str	r2, [r3, #32]
      /* Restore the Content of BDCR register */
      RCC->BDCR = temp_reg;
 8002db4:	4b39      	ldr	r3, [pc, #228]	; (8002e9c <HAL_RCCEx_PeriphCLKConfig+0x1c4>)
 8002db6:	68fa      	ldr	r2, [r7, #12]
 8002db8:	621a      	str	r2, [r3, #32]
      
      /* Wait for LSERDY if LSE was enabled */
      if (HAL_IS_BIT_SET(temp_reg, RCC_BDCR_LSEON))
 8002dba:	68fb      	ldr	r3, [r7, #12]
 8002dbc:	2201      	movs	r2, #1
 8002dbe:	4013      	ands	r3, r2
 8002dc0:	d013      	beq.n	8002dea <HAL_RCCEx_PeriphCLKConfig+0x112>
      {
        /* Get Start Tick */
        tickstart = HAL_GetTick();
 8002dc2:	f7fd fb97 	bl	80004f4 <HAL_GetTick>
 8002dc6:	0003      	movs	r3, r0
 8002dc8:	613b      	str	r3, [r7, #16]
        
        /* Wait till LSE is ready */  
        while(__HAL_RCC_GET_FLAG(RCC_FLAG_LSERDY) == RESET)
 8002dca:	e009      	b.n	8002de0 <HAL_RCCEx_PeriphCLKConfig+0x108>
        {
          if((HAL_GetTick() - tickstart) > RCC_LSE_TIMEOUT_VALUE)
 8002dcc:	f7fd fb92 	bl	80004f4 <HAL_GetTick>
 8002dd0:	0002      	movs	r2, r0
 8002dd2:	693b      	ldr	r3, [r7, #16]
 8002dd4:	1ad3      	subs	r3, r2, r3
 8002dd6:	4a35      	ldr	r2, [pc, #212]	; (8002eac <HAL_RCCEx_PeriphCLKConfig+0x1d4>)
 8002dd8:	4293      	cmp	r3, r2
 8002dda:	d901      	bls.n	8002de0 <HAL_RCCEx_PeriphCLKConfig+0x108>
          {
            return HAL_TIMEOUT;
 8002ddc:	2303      	movs	r3, #3
 8002dde:	e058      	b.n	8002e92 <HAL_RCCEx_PeriphCLKConfig+0x1ba>
        while(__HAL_RCC_GET_FLAG(RCC_FLAG_LSERDY) == RESET)
 8002de0:	4b2e      	ldr	r3, [pc, #184]	; (8002e9c <HAL_RCCEx_PeriphCLKConfig+0x1c4>)
 8002de2:	6a1b      	ldr	r3, [r3, #32]
 8002de4:	2202      	movs	r2, #2
 8002de6:	4013      	ands	r3, r2
 8002de8:	d0f0      	beq.n	8002dcc <HAL_RCCEx_PeriphCLKConfig+0xf4>
          }
        }
      }
    }
    __HAL_RCC_RTC_CONFIG(PeriphClkInit->RTCClockSelection);
 8002dea:	4b2c      	ldr	r3, [pc, #176]	; (8002e9c <HAL_RCCEx_PeriphCLKConfig+0x1c4>)
 8002dec:	6a1b      	ldr	r3, [r3, #32]
 8002dee:	4a2d      	ldr	r2, [pc, #180]	; (8002ea4 <HAL_RCCEx_PeriphCLKConfig+0x1cc>)
 8002df0:	4013      	ands	r3, r2
 8002df2:	0019      	movs	r1, r3
 8002df4:	687b      	ldr	r3, [r7, #4]
 8002df6:	685a      	ldr	r2, [r3, #4]
 8002df8:	4b28      	ldr	r3, [pc, #160]	; (8002e9c <HAL_RCCEx_PeriphCLKConfig+0x1c4>)
 8002dfa:	430a      	orrs	r2, r1
 8002dfc:	621a      	str	r2, [r3, #32]

    /* Require to disable power clock if necessary */
    if(pwrclkchanged == SET)
 8002dfe:	2317      	movs	r3, #23
 8002e00:	18fb      	adds	r3, r7, r3
 8002e02:	781b      	ldrb	r3, [r3, #0]
 8002e04:	2b01      	cmp	r3, #1
 8002e06:	d105      	bne.n	8002e14 <HAL_RCCEx_PeriphCLKConfig+0x13c>
    {
      __HAL_RCC_PWR_CLK_DISABLE();
 8002e08:	4b24      	ldr	r3, [pc, #144]	; (8002e9c <HAL_RCCEx_PeriphCLKConfig+0x1c4>)
 8002e0a:	69da      	ldr	r2, [r3, #28]
 8002e0c:	4b23      	ldr	r3, [pc, #140]	; (8002e9c <HAL_RCCEx_PeriphCLKConfig+0x1c4>)
 8002e0e:	4928      	ldr	r1, [pc, #160]	; (8002eb0 <HAL_RCCEx_PeriphCLKConfig+0x1d8>)
 8002e10:	400a      	ands	r2, r1
 8002e12:	61da      	str	r2, [r3, #28]
    }
  }

  /*------------------------------- USART1 Configuration ------------------------*/ 
  if(((PeriphClkInit->PeriphClockSelection) & RCC_PERIPHCLK_USART1) == RCC_PERIPHCLK_USART1)
 8002e14:	687b      	ldr	r3, [r7, #4]
 8002e16:	681b      	ldr	r3, [r3, #0]
 8002e18:	2201      	movs	r2, #1
 8002e1a:	4013      	ands	r3, r2
 8002e1c:	d009      	beq.n	8002e32 <HAL_RCCEx_PeriphCLKConfig+0x15a>
  {
    /* Check the parameters */
    assert_param(IS_RCC_USART1CLKSOURCE(PeriphClkInit->Usart1ClockSelection));
    
    /* Configure the USART1 clock source */
    __HAL_RCC_USART1_CONFIG(PeriphClkInit->Usart1ClockSelection);
 8002e1e:	4b1f      	ldr	r3, [pc, #124]	; (8002e9c <HAL_RCCEx_PeriphCLKConfig+0x1c4>)
 8002e20:	6b1b      	ldr	r3, [r3, #48]	; 0x30
 8002e22:	2203      	movs	r2, #3
 8002e24:	4393      	bics	r3, r2
 8002e26:	0019      	movs	r1, r3
 8002e28:	687b      	ldr	r3, [r7, #4]
 8002e2a:	689a      	ldr	r2, [r3, #8]
 8002e2c:	4b1b      	ldr	r3, [pc, #108]	; (8002e9c <HAL_RCCEx_PeriphCLKConfig+0x1c4>)
 8002e2e:	430a      	orrs	r2, r1
 8002e30:	631a      	str	r2, [r3, #48]	; 0x30
    __HAL_RCC_USART3_CONFIG(PeriphClkInit->Usart3ClockSelection);
  }
#endif /* STM32F091xC || STM32F098xx */  

  /*------------------------------ I2C1 Configuration ------------------------*/ 
  if(((PeriphClkInit->PeriphClockSelection) & RCC_PERIPHCLK_I2C1) == RCC_PERIPHCLK_I2C1)
 8002e32:	687b      	ldr	r3, [r7, #4]
 8002e34:	681b      	ldr	r3, [r3, #0]
 8002e36:	2220      	movs	r2, #32
 8002e38:	4013      	ands	r3, r2
 8002e3a:	d009      	beq.n	8002e50 <HAL_RCCEx_PeriphCLKConfig+0x178>
  {
    /* Check the parameters */
    assert_param(IS_RCC_I2C1CLKSOURCE(PeriphClkInit->I2c1ClockSelection));
    
    /* Configure the I2C1 clock source */
    __HAL_RCC_I2C1_CONFIG(PeriphClkInit->I2c1ClockSelection);
 8002e3c:	4b17      	ldr	r3, [pc, #92]	; (8002e9c <HAL_RCCEx_PeriphCLKConfig+0x1c4>)
 8002e3e:	6b1b      	ldr	r3, [r3, #48]	; 0x30
 8002e40:	2210      	movs	r2, #16
 8002e42:	4393      	bics	r3, r2
 8002e44:	0019      	movs	r1, r3
 8002e46:	687b      	ldr	r3, [r7, #4]
 8002e48:	68da      	ldr	r2, [r3, #12]
 8002e4a:	4b14      	ldr	r3, [pc, #80]	; (8002e9c <HAL_RCCEx_PeriphCLKConfig+0x1c4>)
 8002e4c:	430a      	orrs	r2, r1
 8002e4e:	631a      	str	r2, [r3, #48]	; 0x30
  }

#if defined(STM32F042x6) || defined(STM32F048xx) || defined(STM32F072xB) || defined(STM32F078xx) || defined(STM32F070xB) || defined(STM32F070x6)
  /*------------------------------ USB Configuration ------------------------*/ 
  if(((PeriphClkInit->PeriphClockSelection) & RCC_PERIPHCLK_USB) == RCC_PERIPHCLK_USB)
 8002e50:	687b      	ldr	r3, [r7, #4]
 8002e52:	681a      	ldr	r2, [r3, #0]
 8002e54:	2380      	movs	r3, #128	; 0x80
 8002e56:	029b      	lsls	r3, r3, #10
 8002e58:	4013      	ands	r3, r2
 8002e5a:	d009      	beq.n	8002e70 <HAL_RCCEx_PeriphCLKConfig+0x198>
  {
    /* Check the parameters */
    assert_param(IS_RCC_USBCLKSOURCE(PeriphClkInit->UsbClockSelection));
    
    /* Configure the USB clock source */
    __HAL_RCC_USB_CONFIG(PeriphClkInit->UsbClockSelection);
 8002e5c:	4b0f      	ldr	r3, [pc, #60]	; (8002e9c <HAL_RCCEx_PeriphCLKConfig+0x1c4>)
 8002e5e:	6b1b      	ldr	r3, [r3, #48]	; 0x30
 8002e60:	2280      	movs	r2, #128	; 0x80
 8002e62:	4393      	bics	r3, r2
 8002e64:	0019      	movs	r1, r3
 8002e66:	687b      	ldr	r3, [r7, #4]
 8002e68:	695a      	ldr	r2, [r3, #20]
 8002e6a:	4b0c      	ldr	r3, [pc, #48]	; (8002e9c <HAL_RCCEx_PeriphCLKConfig+0x1c4>)
 8002e6c:	430a      	orrs	r2, r1
 8002e6e:	631a      	str	r2, [r3, #48]	; 0x30
#if defined(STM32F042x6) || defined(STM32F048xx)\
 || defined(STM32F051x8) || defined(STM32F058xx)\
 || defined(STM32F071xB) || defined(STM32F072xB) || defined(STM32F078xx)\
 || defined(STM32F091xC) || defined(STM32F098xx)
  /*------------------------------ CEC clock Configuration -------------------*/ 
  if(((PeriphClkInit->PeriphClockSelection) & RCC_PERIPHCLK_CEC) == RCC_PERIPHCLK_CEC)
 8002e70:	687b      	ldr	r3, [r7, #4]
 8002e72:	681a      	ldr	r2, [r3, #0]
 8002e74:	2380      	movs	r3, #128	; 0x80
 8002e76:	00db      	lsls	r3, r3, #3
 8002e78:	4013      	ands	r3, r2
 8002e7a:	d009      	beq.n	8002e90 <HAL_RCCEx_PeriphCLKConfig+0x1b8>
  {
    /* Check the parameters */
    assert_param(IS_RCC_CECCLKSOURCE(PeriphClkInit->CecClockSelection));
    
    /* Configure the CEC clock source */
    __HAL_RCC_CEC_CONFIG(PeriphClkInit->CecClockSelection);
 8002e7c:	4b07      	ldr	r3, [pc, #28]	; (8002e9c <HAL_RCCEx_PeriphCLKConfig+0x1c4>)
 8002e7e:	6b1b      	ldr	r3, [r3, #48]	; 0x30
 8002e80:	2240      	movs	r2, #64	; 0x40
 8002e82:	4393      	bics	r3, r2
 8002e84:	0019      	movs	r1, r3
 8002e86:	687b      	ldr	r3, [r7, #4]
 8002e88:	691a      	ldr	r2, [r3, #16]
 8002e8a:	4b04      	ldr	r3, [pc, #16]	; (8002e9c <HAL_RCCEx_PeriphCLKConfig+0x1c4>)
 8002e8c:	430a      	orrs	r2, r1
 8002e8e:	631a      	str	r2, [r3, #48]	; 0x30
#endif /* STM32F042x6 || STM32F048xx ||                */
       /* STM32F051x8 || STM32F058xx ||                */
       /* STM32F071xB || STM32F072xB || STM32F078xx || */
       /* STM32F091xC || STM32F098xx */
  
  return HAL_OK;
 8002e90:	2300      	movs	r3, #0
}
 8002e92:	0018      	movs	r0, r3
 8002e94:	46bd      	mov	sp, r7
 8002e96:	b006      	add	sp, #24
 8002e98:	bd80      	pop	{r7, pc}
 8002e9a:	46c0      	nop			; (mov r8, r8)
 8002e9c:	40021000 	.word	0x40021000
 8002ea0:	40007000 	.word	0x40007000
 8002ea4:	fffffcff 	.word	0xfffffcff
 8002ea8:	fffeffff 	.word	0xfffeffff
 8002eac:	00001388 	.word	0x00001388
 8002eb0:	efffffff 	.word	0xefffffff

08002eb4 <USB_EnableGlobalInt>:
  *         Enables the controller's Global Int in the AHB Config reg
  * @param  USBx Selected device
  * @retval HAL status
  */
HAL_StatusTypeDef USB_EnableGlobalInt(USB_TypeDef *USBx)
{
 8002eb4:	b580      	push	{r7, lr}
 8002eb6:	b084      	sub	sp, #16
 8002eb8:	af00      	add	r7, sp, #0
 8002eba:	6078      	str	r0, [r7, #4]
  uint32_t winterruptmask;

  /* Clear pending interrupts */
  USBx->ISTR = 0U;
 8002ebc:	687b      	ldr	r3, [r7, #4]
 8002ebe:	2244      	movs	r2, #68	; 0x44
 8002ec0:	2100      	movs	r1, #0
 8002ec2:	5299      	strh	r1, [r3, r2]

  /* Set winterruptmask variable */
  winterruptmask = USB_CNTR_CTRM  | USB_CNTR_WKUPM |
 8002ec4:	4b05      	ldr	r3, [pc, #20]	; (8002edc <USB_EnableGlobalInt+0x28>)
 8002ec6:	60fb      	str	r3, [r7, #12]
                   USB_CNTR_SUSPM | USB_CNTR_ERRM |
                   USB_CNTR_SOFM | USB_CNTR_ESOFM |
                   USB_CNTR_RESETM | USB_CNTR_L1REQM;

  /* Set interrupt mask */
  USBx->CNTR = (uint16_t)winterruptmask;
 8002ec8:	68fb      	ldr	r3, [r7, #12]
 8002eca:	b299      	uxth	r1, r3
 8002ecc:	687b      	ldr	r3, [r7, #4]
 8002ece:	2240      	movs	r2, #64	; 0x40
 8002ed0:	5299      	strh	r1, [r3, r2]

  return HAL_OK;
 8002ed2:	2300      	movs	r3, #0
}
 8002ed4:	0018      	movs	r0, r3
 8002ed6:	46bd      	mov	sp, r7
 8002ed8:	b004      	add	sp, #16
 8002eda:	bd80      	pop	{r7, pc}
 8002edc:	0000bf80 	.word	0x0000bf80

08002ee0 <USB_DisableGlobalInt>:
  *         Disable the controller's Global Int in the AHB Config reg
  * @param  USBx Selected device
  * @retval HAL status
  */
HAL_StatusTypeDef USB_DisableGlobalInt(USB_TypeDef *USBx)
{
 8002ee0:	b580      	push	{r7, lr}
 8002ee2:	b084      	sub	sp, #16
 8002ee4:	af00      	add	r7, sp, #0
 8002ee6:	6078      	str	r0, [r7, #4]
  uint32_t winterruptmask;

  /* Set winterruptmask variable */
  winterruptmask = USB_CNTR_CTRM  | USB_CNTR_WKUPM |
 8002ee8:	4b09      	ldr	r3, [pc, #36]	; (8002f10 <USB_DisableGlobalInt+0x30>)
 8002eea:	60fb      	str	r3, [r7, #12]
                   USB_CNTR_SUSPM | USB_CNTR_ERRM |
                   USB_CNTR_SOFM | USB_CNTR_ESOFM |
                   USB_CNTR_RESETM | USB_CNTR_L1REQM;

  /* Clear interrupt mask */
  USBx->CNTR &= (uint16_t)(~winterruptmask);
 8002eec:	687b      	ldr	r3, [r7, #4]
 8002eee:	2240      	movs	r2, #64	; 0x40
 8002ef0:	5a9b      	ldrh	r3, [r3, r2]
 8002ef2:	b29b      	uxth	r3, r3
 8002ef4:	68fa      	ldr	r2, [r7, #12]
 8002ef6:	b292      	uxth	r2, r2
 8002ef8:	43d2      	mvns	r2, r2
 8002efa:	b292      	uxth	r2, r2
 8002efc:	4013      	ands	r3, r2
 8002efe:	b299      	uxth	r1, r3
 8002f00:	687b      	ldr	r3, [r7, #4]
 8002f02:	2240      	movs	r2, #64	; 0x40
 8002f04:	5299      	strh	r1, [r3, r2]

  return HAL_OK;
 8002f06:	2300      	movs	r3, #0
}
 8002f08:	0018      	movs	r0, r3
 8002f0a:	46bd      	mov	sp, r7
 8002f0c:	b004      	add	sp, #16
 8002f0e:	bd80      	pop	{r7, pc}
 8002f10:	0000bf80 	.word	0x0000bf80

08002f14 <USB_DevInit>:
  * @param  cfg  pointer to a USB_CfgTypeDef structure that contains
  *         the configuration information for the specified USBx peripheral.
  * @retval HAL status
  */
HAL_StatusTypeDef USB_DevInit(USB_TypeDef *USBx, USB_CfgTypeDef cfg)
{
 8002f14:	b084      	sub	sp, #16
 8002f16:	b590      	push	{r4, r7, lr}
 8002f18:	b083      	sub	sp, #12
 8002f1a:	af00      	add	r7, sp, #0
 8002f1c:	6078      	str	r0, [r7, #4]
 8002f1e:	2004      	movs	r0, #4
 8002f20:	2410      	movs	r4, #16
 8002f22:	1900      	adds	r0, r0, r4
 8002f24:	2408      	movs	r4, #8
 8002f26:	46a4      	mov	ip, r4
 8002f28:	44bc      	add	ip, r7
 8002f2a:	4460      	add	r0, ip
 8002f2c:	6001      	str	r1, [r0, #0]
 8002f2e:	6042      	str	r2, [r0, #4]
 8002f30:	6083      	str	r3, [r0, #8]
  /* Prevent unused argument(s) compilation warning */
  UNUSED(cfg);

  /* Init Device */
  /* CNTR_FRES = 1 */
  USBx->CNTR = (uint16_t)USB_CNTR_FRES;
 8002f32:	687b      	ldr	r3, [r7, #4]
 8002f34:	2240      	movs	r2, #64	; 0x40
 8002f36:	2101      	movs	r1, #1
 8002f38:	5299      	strh	r1, [r3, r2]

  /* CNTR_FRES = 0 */
  USBx->CNTR = 0U;
 8002f3a:	687b      	ldr	r3, [r7, #4]
 8002f3c:	2240      	movs	r2, #64	; 0x40
 8002f3e:	2100      	movs	r1, #0
 8002f40:	5299      	strh	r1, [r3, r2]

  /* Clear pending interrupts */
  USBx->ISTR = 0U;
 8002f42:	687b      	ldr	r3, [r7, #4]
 8002f44:	2244      	movs	r2, #68	; 0x44
 8002f46:	2100      	movs	r1, #0
 8002f48:	5299      	strh	r1, [r3, r2]

  /*Set Btable Address*/
  USBx->BTABLE = BTABLE_ADDRESS;
 8002f4a:	687b      	ldr	r3, [r7, #4]
 8002f4c:	2250      	movs	r2, #80	; 0x50
 8002f4e:	2100      	movs	r1, #0
 8002f50:	5299      	strh	r1, [r3, r2]

  return HAL_OK;
 8002f52:	2300      	movs	r3, #0
}
 8002f54:	0018      	movs	r0, r3
 8002f56:	46bd      	mov	sp, r7
 8002f58:	b003      	add	sp, #12
 8002f5a:	bc90      	pop	{r4, r7}
 8002f5c:	bc08      	pop	{r3}
 8002f5e:	b004      	add	sp, #16
 8002f60:	4718      	bx	r3
	...

08002f64 <USB_ActivateEndpoint>:
  * @param  USBx Selected device
  * @param  ep pointer to endpoint structure
  * @retval HAL status
  */
HAL_StatusTypeDef USB_ActivateEndpoint(USB_TypeDef *USBx, USB_EPTypeDef *ep)
{
 8002f64:	b580      	push	{r7, lr}
 8002f66:	b09c      	sub	sp, #112	; 0x70
 8002f68:	af00      	add	r7, sp, #0
 8002f6a:	6078      	str	r0, [r7, #4]
 8002f6c:	6039      	str	r1, [r7, #0]
  HAL_StatusTypeDef ret = HAL_OK;
 8002f6e:	236f      	movs	r3, #111	; 0x6f
 8002f70:	18fb      	adds	r3, r7, r3
 8002f72:	2200      	movs	r2, #0
 8002f74:	701a      	strb	r2, [r3, #0]
  uint16_t wEpRegVal;

  wEpRegVal = PCD_GET_ENDPOINT(USBx, ep->num) & USB_EP_T_MASK;
 8002f76:	687a      	ldr	r2, [r7, #4]
 8002f78:	683b      	ldr	r3, [r7, #0]
 8002f7a:	781b      	ldrb	r3, [r3, #0]
 8002f7c:	009b      	lsls	r3, r3, #2
 8002f7e:	18d3      	adds	r3, r2, r3
 8002f80:	881b      	ldrh	r3, [r3, #0]
 8002f82:	b29a      	uxth	r2, r3
 8002f84:	236c      	movs	r3, #108	; 0x6c
 8002f86:	18fb      	adds	r3, r7, r3
 8002f88:	49a3      	ldr	r1, [pc, #652]	; (8003218 <USB_ActivateEndpoint+0x2b4>)
 8002f8a:	400a      	ands	r2, r1
 8002f8c:	801a      	strh	r2, [r3, #0]

  /* initialize Endpoint */
  switch (ep->type)
 8002f8e:	683b      	ldr	r3, [r7, #0]
 8002f90:	78db      	ldrb	r3, [r3, #3]
 8002f92:	2b03      	cmp	r3, #3
 8002f94:	d017      	beq.n	8002fc6 <USB_ActivateEndpoint+0x62>
 8002f96:	dc28      	bgt.n	8002fea <USB_ActivateEndpoint+0x86>
 8002f98:	2b02      	cmp	r3, #2
 8002f9a:	d00e      	beq.n	8002fba <USB_ActivateEndpoint+0x56>
 8002f9c:	dc25      	bgt.n	8002fea <USB_ActivateEndpoint+0x86>
 8002f9e:	2b00      	cmp	r3, #0
 8002fa0:	d002      	beq.n	8002fa8 <USB_ActivateEndpoint+0x44>
 8002fa2:	2b01      	cmp	r3, #1
 8002fa4:	d018      	beq.n	8002fd8 <USB_ActivateEndpoint+0x74>
 8002fa6:	e020      	b.n	8002fea <USB_ActivateEndpoint+0x86>
  {
    case EP_TYPE_CTRL:
      wEpRegVal |= USB_EP_CONTROL;
 8002fa8:	226c      	movs	r2, #108	; 0x6c
 8002faa:	18bb      	adds	r3, r7, r2
 8002fac:	18ba      	adds	r2, r7, r2
 8002fae:	8812      	ldrh	r2, [r2, #0]
 8002fb0:	2180      	movs	r1, #128	; 0x80
 8002fb2:	0089      	lsls	r1, r1, #2
 8002fb4:	430a      	orrs	r2, r1
 8002fb6:	801a      	strh	r2, [r3, #0]
      break;
 8002fb8:	e01c      	b.n	8002ff4 <USB_ActivateEndpoint+0x90>

    case EP_TYPE_BULK:
      wEpRegVal |= USB_EP_BULK;
 8002fba:	226c      	movs	r2, #108	; 0x6c
 8002fbc:	18bb      	adds	r3, r7, r2
 8002fbe:	18ba      	adds	r2, r7, r2
 8002fc0:	8812      	ldrh	r2, [r2, #0]
 8002fc2:	801a      	strh	r2, [r3, #0]
      break;
 8002fc4:	e016      	b.n	8002ff4 <USB_ActivateEndpoint+0x90>

    case EP_TYPE_INTR:
      wEpRegVal |= USB_EP_INTERRUPT;
 8002fc6:	226c      	movs	r2, #108	; 0x6c
 8002fc8:	18bb      	adds	r3, r7, r2
 8002fca:	18ba      	adds	r2, r7, r2
 8002fcc:	8812      	ldrh	r2, [r2, #0]
 8002fce:	21c0      	movs	r1, #192	; 0xc0
 8002fd0:	00c9      	lsls	r1, r1, #3
 8002fd2:	430a      	orrs	r2, r1
 8002fd4:	801a      	strh	r2, [r3, #0]
      break;
 8002fd6:	e00d      	b.n	8002ff4 <USB_ActivateEndpoint+0x90>

    case EP_TYPE_ISOC:
      wEpRegVal |= USB_EP_ISOCHRONOUS;
 8002fd8:	226c      	movs	r2, #108	; 0x6c
 8002fda:	18bb      	adds	r3, r7, r2
 8002fdc:	18ba      	adds	r2, r7, r2
 8002fde:	8812      	ldrh	r2, [r2, #0]
 8002fe0:	2180      	movs	r1, #128	; 0x80
 8002fe2:	00c9      	lsls	r1, r1, #3
 8002fe4:	430a      	orrs	r2, r1
 8002fe6:	801a      	strh	r2, [r3, #0]
      break;
 8002fe8:	e004      	b.n	8002ff4 <USB_ActivateEndpoint+0x90>

    default:
      ret = HAL_ERROR;
 8002fea:	236f      	movs	r3, #111	; 0x6f
 8002fec:	18fb      	adds	r3, r7, r3
 8002fee:	2201      	movs	r2, #1
 8002ff0:	701a      	strb	r2, [r3, #0]
      break;
 8002ff2:	46c0      	nop			; (mov r8, r8)
  }

  PCD_SET_ENDPOINT(USBx, ep->num, (wEpRegVal | USB_EP_CTR_RX | USB_EP_CTR_TX));
 8002ff4:	687a      	ldr	r2, [r7, #4]
 8002ff6:	683b      	ldr	r3, [r7, #0]
 8002ff8:	781b      	ldrb	r3, [r3, #0]
 8002ffa:	009b      	lsls	r3, r3, #2
 8002ffc:	18d3      	adds	r3, r2, r3
 8002ffe:	226c      	movs	r2, #108	; 0x6c
 8003000:	18ba      	adds	r2, r7, r2
 8003002:	8812      	ldrh	r2, [r2, #0]
 8003004:	4985      	ldr	r1, [pc, #532]	; (800321c <USB_ActivateEndpoint+0x2b8>)
 8003006:	430a      	orrs	r2, r1
 8003008:	b292      	uxth	r2, r2
 800300a:	801a      	strh	r2, [r3, #0]

  PCD_SET_EP_ADDRESS(USBx, ep->num, ep->num);
 800300c:	687a      	ldr	r2, [r7, #4]
 800300e:	683b      	ldr	r3, [r7, #0]
 8003010:	781b      	ldrb	r3, [r3, #0]
 8003012:	009b      	lsls	r3, r3, #2
 8003014:	18d3      	adds	r3, r2, r3
 8003016:	881b      	ldrh	r3, [r3, #0]
 8003018:	b29b      	uxth	r3, r3
 800301a:	b21b      	sxth	r3, r3
 800301c:	4a80      	ldr	r2, [pc, #512]	; (8003220 <USB_ActivateEndpoint+0x2bc>)
 800301e:	4013      	ands	r3, r2
 8003020:	b21a      	sxth	r2, r3
 8003022:	683b      	ldr	r3, [r7, #0]
 8003024:	781b      	ldrb	r3, [r3, #0]
 8003026:	b21b      	sxth	r3, r3
 8003028:	4313      	orrs	r3, r2
 800302a:	b21a      	sxth	r2, r3
 800302c:	2166      	movs	r1, #102	; 0x66
 800302e:	187b      	adds	r3, r7, r1
 8003030:	801a      	strh	r2, [r3, #0]
 8003032:	687a      	ldr	r2, [r7, #4]
 8003034:	683b      	ldr	r3, [r7, #0]
 8003036:	781b      	ldrb	r3, [r3, #0]
 8003038:	009b      	lsls	r3, r3, #2
 800303a:	18d3      	adds	r3, r2, r3
 800303c:	187a      	adds	r2, r7, r1
 800303e:	8812      	ldrh	r2, [r2, #0]
 8003040:	4976      	ldr	r1, [pc, #472]	; (800321c <USB_ActivateEndpoint+0x2b8>)
 8003042:	430a      	orrs	r2, r1
 8003044:	b292      	uxth	r2, r2
 8003046:	801a      	strh	r2, [r3, #0]

  if (ep->doublebuffer == 0U)
 8003048:	683b      	ldr	r3, [r7, #0]
 800304a:	7b1b      	ldrb	r3, [r3, #12]
 800304c:	2b00      	cmp	r3, #0
 800304e:	d000      	beq.n	8003052 <USB_ActivateEndpoint+0xee>
 8003050:	e178      	b.n	8003344 <USB_ActivateEndpoint+0x3e0>
  {
    if (ep->is_in != 0U)
 8003052:	683b      	ldr	r3, [r7, #0]
 8003054:	785b      	ldrb	r3, [r3, #1]
 8003056:	2b00      	cmp	r3, #0
 8003058:	d100      	bne.n	800305c <USB_ActivateEndpoint+0xf8>
 800305a:	e07a      	b.n	8003152 <USB_ActivateEndpoint+0x1ee>
    {
      /*Set the endpoint Transmit buffer address */
      PCD_SET_EP_TX_ADDRESS(USBx, ep->num, ep->pmaadress);
 800305c:	687b      	ldr	r3, [r7, #4]
 800305e:	61bb      	str	r3, [r7, #24]
 8003060:	687b      	ldr	r3, [r7, #4]
 8003062:	2250      	movs	r2, #80	; 0x50
 8003064:	5a9b      	ldrh	r3, [r3, r2]
 8003066:	b29b      	uxth	r3, r3
 8003068:	001a      	movs	r2, r3
 800306a:	69bb      	ldr	r3, [r7, #24]
 800306c:	189b      	adds	r3, r3, r2
 800306e:	61bb      	str	r3, [r7, #24]
 8003070:	683b      	ldr	r3, [r7, #0]
 8003072:	781b      	ldrb	r3, [r3, #0]
 8003074:	00da      	lsls	r2, r3, #3
 8003076:	69bb      	ldr	r3, [r7, #24]
 8003078:	18d3      	adds	r3, r2, r3
 800307a:	2280      	movs	r2, #128	; 0x80
 800307c:	00d2      	lsls	r2, r2, #3
 800307e:	4694      	mov	ip, r2
 8003080:	4463      	add	r3, ip
 8003082:	617b      	str	r3, [r7, #20]
 8003084:	683b      	ldr	r3, [r7, #0]
 8003086:	88db      	ldrh	r3, [r3, #6]
 8003088:	085b      	lsrs	r3, r3, #1
 800308a:	b29b      	uxth	r3, r3
 800308c:	18db      	adds	r3, r3, r3
 800308e:	b29a      	uxth	r2, r3
 8003090:	697b      	ldr	r3, [r7, #20]
 8003092:	801a      	strh	r2, [r3, #0]
      PCD_CLEAR_TX_DTOG(USBx, ep->num);
 8003094:	687a      	ldr	r2, [r7, #4]
 8003096:	683b      	ldr	r3, [r7, #0]
 8003098:	781b      	ldrb	r3, [r3, #0]
 800309a:	009b      	lsls	r3, r3, #2
 800309c:	18d2      	adds	r2, r2, r3
 800309e:	2112      	movs	r1, #18
 80030a0:	187b      	adds	r3, r7, r1
 80030a2:	8812      	ldrh	r2, [r2, #0]
 80030a4:	801a      	strh	r2, [r3, #0]
 80030a6:	187b      	adds	r3, r7, r1
 80030a8:	881b      	ldrh	r3, [r3, #0]
 80030aa:	2240      	movs	r2, #64	; 0x40
 80030ac:	4013      	ands	r3, r2
 80030ae:	d016      	beq.n	80030de <USB_ActivateEndpoint+0x17a>
 80030b0:	687a      	ldr	r2, [r7, #4]
 80030b2:	683b      	ldr	r3, [r7, #0]
 80030b4:	781b      	ldrb	r3, [r3, #0]
 80030b6:	009b      	lsls	r3, r3, #2
 80030b8:	18d3      	adds	r3, r2, r3
 80030ba:	881b      	ldrh	r3, [r3, #0]
 80030bc:	b29a      	uxth	r2, r3
 80030be:	2010      	movs	r0, #16
 80030c0:	183b      	adds	r3, r7, r0
 80030c2:	4957      	ldr	r1, [pc, #348]	; (8003220 <USB_ActivateEndpoint+0x2bc>)
 80030c4:	400a      	ands	r2, r1
 80030c6:	801a      	strh	r2, [r3, #0]
 80030c8:	687a      	ldr	r2, [r7, #4]
 80030ca:	683b      	ldr	r3, [r7, #0]
 80030cc:	781b      	ldrb	r3, [r3, #0]
 80030ce:	009b      	lsls	r3, r3, #2
 80030d0:	18d3      	adds	r3, r2, r3
 80030d2:	183a      	adds	r2, r7, r0
 80030d4:	8812      	ldrh	r2, [r2, #0]
 80030d6:	4953      	ldr	r1, [pc, #332]	; (8003224 <USB_ActivateEndpoint+0x2c0>)
 80030d8:	430a      	orrs	r2, r1
 80030da:	b292      	uxth	r2, r2
 80030dc:	801a      	strh	r2, [r3, #0]

      if (ep->type != EP_TYPE_ISOC)
 80030de:	683b      	ldr	r3, [r7, #0]
 80030e0:	78db      	ldrb	r3, [r3, #3]
 80030e2:	2b01      	cmp	r3, #1
 80030e4:	d01d      	beq.n	8003122 <USB_ActivateEndpoint+0x1be>
      {
        /* Configure NAK status for the Endpoint */
        PCD_SET_EP_TX_STATUS(USBx, ep->num, USB_EP_TX_NAK);
 80030e6:	687a      	ldr	r2, [r7, #4]
 80030e8:	683b      	ldr	r3, [r7, #0]
 80030ea:	781b      	ldrb	r3, [r3, #0]
 80030ec:	009b      	lsls	r3, r3, #2
 80030ee:	18d3      	adds	r3, r2, r3
 80030f0:	881b      	ldrh	r3, [r3, #0]
 80030f2:	b29a      	uxth	r2, r3
 80030f4:	200c      	movs	r0, #12
 80030f6:	183b      	adds	r3, r7, r0
 80030f8:	494b      	ldr	r1, [pc, #300]	; (8003228 <USB_ActivateEndpoint+0x2c4>)
 80030fa:	400a      	ands	r2, r1
 80030fc:	801a      	strh	r2, [r3, #0]
 80030fe:	183b      	adds	r3, r7, r0
 8003100:	183a      	adds	r2, r7, r0
 8003102:	8812      	ldrh	r2, [r2, #0]
 8003104:	2120      	movs	r1, #32
 8003106:	404a      	eors	r2, r1
 8003108:	801a      	strh	r2, [r3, #0]
 800310a:	687a      	ldr	r2, [r7, #4]
 800310c:	683b      	ldr	r3, [r7, #0]
 800310e:	781b      	ldrb	r3, [r3, #0]
 8003110:	009b      	lsls	r3, r3, #2
 8003112:	18d3      	adds	r3, r2, r3
 8003114:	183a      	adds	r2, r7, r0
 8003116:	8812      	ldrh	r2, [r2, #0]
 8003118:	4940      	ldr	r1, [pc, #256]	; (800321c <USB_ActivateEndpoint+0x2b8>)
 800311a:	430a      	orrs	r2, r1
 800311c:	b292      	uxth	r2, r2
 800311e:	801a      	strh	r2, [r3, #0]
 8003120:	e2b4      	b.n	800368c <USB_ActivateEndpoint+0x728>
      }
      else
      {
        /* Configure TX Endpoint to disabled state */
        PCD_SET_EP_TX_STATUS(USBx, ep->num, USB_EP_TX_DIS);
 8003122:	687a      	ldr	r2, [r7, #4]
 8003124:	683b      	ldr	r3, [r7, #0]
 8003126:	781b      	ldrb	r3, [r3, #0]
 8003128:	009b      	lsls	r3, r3, #2
 800312a:	18d3      	adds	r3, r2, r3
 800312c:	881b      	ldrh	r3, [r3, #0]
 800312e:	b29a      	uxth	r2, r3
 8003130:	200e      	movs	r0, #14
 8003132:	183b      	adds	r3, r7, r0
 8003134:	493c      	ldr	r1, [pc, #240]	; (8003228 <USB_ActivateEndpoint+0x2c4>)
 8003136:	400a      	ands	r2, r1
 8003138:	801a      	strh	r2, [r3, #0]
 800313a:	687a      	ldr	r2, [r7, #4]
 800313c:	683b      	ldr	r3, [r7, #0]
 800313e:	781b      	ldrb	r3, [r3, #0]
 8003140:	009b      	lsls	r3, r3, #2
 8003142:	18d3      	adds	r3, r2, r3
 8003144:	183a      	adds	r2, r7, r0
 8003146:	8812      	ldrh	r2, [r2, #0]
 8003148:	4934      	ldr	r1, [pc, #208]	; (800321c <USB_ActivateEndpoint+0x2b8>)
 800314a:	430a      	orrs	r2, r1
 800314c:	b292      	uxth	r2, r2
 800314e:	801a      	strh	r2, [r3, #0]
 8003150:	e29c      	b.n	800368c <USB_ActivateEndpoint+0x728>
      }
    }
    else
    {
      /* Set the endpoint Receive buffer address */
      PCD_SET_EP_RX_ADDRESS(USBx, ep->num, ep->pmaadress);
 8003152:	687b      	ldr	r3, [r7, #4]
 8003154:	633b      	str	r3, [r7, #48]	; 0x30
 8003156:	687b      	ldr	r3, [r7, #4]
 8003158:	2250      	movs	r2, #80	; 0x50
 800315a:	5a9b      	ldrh	r3, [r3, r2]
 800315c:	b29b      	uxth	r3, r3
 800315e:	001a      	movs	r2, r3
 8003160:	6b3b      	ldr	r3, [r7, #48]	; 0x30
 8003162:	189b      	adds	r3, r3, r2
 8003164:	633b      	str	r3, [r7, #48]	; 0x30
 8003166:	683b      	ldr	r3, [r7, #0]
 8003168:	781b      	ldrb	r3, [r3, #0]
 800316a:	00da      	lsls	r2, r3, #3
 800316c:	6b3b      	ldr	r3, [r7, #48]	; 0x30
 800316e:	18d3      	adds	r3, r2, r3
 8003170:	4a2e      	ldr	r2, [pc, #184]	; (800322c <USB_ActivateEndpoint+0x2c8>)
 8003172:	4694      	mov	ip, r2
 8003174:	4463      	add	r3, ip
 8003176:	62fb      	str	r3, [r7, #44]	; 0x2c
 8003178:	683b      	ldr	r3, [r7, #0]
 800317a:	88db      	ldrh	r3, [r3, #6]
 800317c:	085b      	lsrs	r3, r3, #1
 800317e:	b29b      	uxth	r3, r3
 8003180:	18db      	adds	r3, r3, r3
 8003182:	b29a      	uxth	r2, r3
 8003184:	6afb      	ldr	r3, [r7, #44]	; 0x2c
 8003186:	801a      	strh	r2, [r3, #0]

      /* Set the endpoint Receive buffer counter */
      PCD_SET_EP_RX_CNT(USBx, ep->num, ep->maxpacket);
 8003188:	687b      	ldr	r3, [r7, #4]
 800318a:	62bb      	str	r3, [r7, #40]	; 0x28
 800318c:	687b      	ldr	r3, [r7, #4]
 800318e:	2250      	movs	r2, #80	; 0x50
 8003190:	5a9b      	ldrh	r3, [r3, r2]
 8003192:	b29b      	uxth	r3, r3
 8003194:	001a      	movs	r2, r3
 8003196:	6abb      	ldr	r3, [r7, #40]	; 0x28
 8003198:	189b      	adds	r3, r3, r2
 800319a:	62bb      	str	r3, [r7, #40]	; 0x28
 800319c:	683b      	ldr	r3, [r7, #0]
 800319e:	781b      	ldrb	r3, [r3, #0]
 80031a0:	00da      	lsls	r2, r3, #3
 80031a2:	6abb      	ldr	r3, [r7, #40]	; 0x28
 80031a4:	18d3      	adds	r3, r2, r3
 80031a6:	4a22      	ldr	r2, [pc, #136]	; (8003230 <USB_ActivateEndpoint+0x2cc>)
 80031a8:	4694      	mov	ip, r2
 80031aa:	4463      	add	r3, ip
 80031ac:	627b      	str	r3, [r7, #36]	; 0x24
 80031ae:	6a7b      	ldr	r3, [r7, #36]	; 0x24
 80031b0:	881b      	ldrh	r3, [r3, #0]
 80031b2:	b29b      	uxth	r3, r3
 80031b4:	059b      	lsls	r3, r3, #22
 80031b6:	0d9b      	lsrs	r3, r3, #22
 80031b8:	b29a      	uxth	r2, r3
 80031ba:	6a7b      	ldr	r3, [r7, #36]	; 0x24
 80031bc:	801a      	strh	r2, [r3, #0]
 80031be:	683b      	ldr	r3, [r7, #0]
 80031c0:	691b      	ldr	r3, [r3, #16]
 80031c2:	2b3e      	cmp	r3, #62	; 0x3e
 80031c4:	d91a      	bls.n	80031fc <USB_ActivateEndpoint+0x298>
 80031c6:	683b      	ldr	r3, [r7, #0]
 80031c8:	691b      	ldr	r3, [r3, #16]
 80031ca:	095b      	lsrs	r3, r3, #5
 80031cc:	66bb      	str	r3, [r7, #104]	; 0x68
 80031ce:	683b      	ldr	r3, [r7, #0]
 80031d0:	691b      	ldr	r3, [r3, #16]
 80031d2:	221f      	movs	r2, #31
 80031d4:	4013      	ands	r3, r2
 80031d6:	d102      	bne.n	80031de <USB_ActivateEndpoint+0x27a>
 80031d8:	6ebb      	ldr	r3, [r7, #104]	; 0x68
 80031da:	3b01      	subs	r3, #1
 80031dc:	66bb      	str	r3, [r7, #104]	; 0x68
 80031de:	6a7b      	ldr	r3, [r7, #36]	; 0x24
 80031e0:	881b      	ldrh	r3, [r3, #0]
 80031e2:	b29a      	uxth	r2, r3
 80031e4:	6ebb      	ldr	r3, [r7, #104]	; 0x68
 80031e6:	b29b      	uxth	r3, r3
 80031e8:	029b      	lsls	r3, r3, #10
 80031ea:	b29b      	uxth	r3, r3
 80031ec:	4313      	orrs	r3, r2
 80031ee:	b29b      	uxth	r3, r3
 80031f0:	4a10      	ldr	r2, [pc, #64]	; (8003234 <USB_ActivateEndpoint+0x2d0>)
 80031f2:	4313      	orrs	r3, r2
 80031f4:	b29a      	uxth	r2, r3
 80031f6:	6a7b      	ldr	r3, [r7, #36]	; 0x24
 80031f8:	801a      	strh	r2, [r3, #0]
 80031fa:	e034      	b.n	8003266 <USB_ActivateEndpoint+0x302>
 80031fc:	683b      	ldr	r3, [r7, #0]
 80031fe:	691b      	ldr	r3, [r3, #16]
 8003200:	2b00      	cmp	r3, #0
 8003202:	d119      	bne.n	8003238 <USB_ActivateEndpoint+0x2d4>
 8003204:	6a7b      	ldr	r3, [r7, #36]	; 0x24
 8003206:	881b      	ldrh	r3, [r3, #0]
 8003208:	b29b      	uxth	r3, r3
 800320a:	4a0a      	ldr	r2, [pc, #40]	; (8003234 <USB_ActivateEndpoint+0x2d0>)
 800320c:	4313      	orrs	r3, r2
 800320e:	b29a      	uxth	r2, r3
 8003210:	6a7b      	ldr	r3, [r7, #36]	; 0x24
 8003212:	801a      	strh	r2, [r3, #0]
 8003214:	e027      	b.n	8003266 <USB_ActivateEndpoint+0x302>
 8003216:	46c0      	nop			; (mov r8, r8)
 8003218:	ffff898f 	.word	0xffff898f
 800321c:	ffff8080 	.word	0xffff8080
 8003220:	ffff8f8f 	.word	0xffff8f8f
 8003224:	ffff80c0 	.word	0xffff80c0
 8003228:	ffff8fbf 	.word	0xffff8fbf
 800322c:	00000404 	.word	0x00000404
 8003230:	00000406 	.word	0x00000406
 8003234:	ffff8000 	.word	0xffff8000
 8003238:	683b      	ldr	r3, [r7, #0]
 800323a:	691b      	ldr	r3, [r3, #16]
 800323c:	085b      	lsrs	r3, r3, #1
 800323e:	66bb      	str	r3, [r7, #104]	; 0x68
 8003240:	683b      	ldr	r3, [r7, #0]
 8003242:	691b      	ldr	r3, [r3, #16]
 8003244:	2201      	movs	r2, #1
 8003246:	4013      	ands	r3, r2
 8003248:	d002      	beq.n	8003250 <USB_ActivateEndpoint+0x2ec>
 800324a:	6ebb      	ldr	r3, [r7, #104]	; 0x68
 800324c:	3301      	adds	r3, #1
 800324e:	66bb      	str	r3, [r7, #104]	; 0x68
 8003250:	6a7b      	ldr	r3, [r7, #36]	; 0x24
 8003252:	881b      	ldrh	r3, [r3, #0]
 8003254:	b29a      	uxth	r2, r3
 8003256:	6ebb      	ldr	r3, [r7, #104]	; 0x68
 8003258:	b29b      	uxth	r3, r3
 800325a:	029b      	lsls	r3, r3, #10
 800325c:	b29b      	uxth	r3, r3
 800325e:	4313      	orrs	r3, r2
 8003260:	b29a      	uxth	r2, r3
 8003262:	6a7b      	ldr	r3, [r7, #36]	; 0x24
 8003264:	801a      	strh	r2, [r3, #0]
      PCD_CLEAR_RX_DTOG(USBx, ep->num);
 8003266:	687a      	ldr	r2, [r7, #4]
 8003268:	683b      	ldr	r3, [r7, #0]
 800326a:	781b      	ldrb	r3, [r3, #0]
 800326c:	009b      	lsls	r3, r3, #2
 800326e:	18d2      	adds	r2, r2, r3
 8003270:	2122      	movs	r1, #34	; 0x22
 8003272:	187b      	adds	r3, r7, r1
 8003274:	8812      	ldrh	r2, [r2, #0]
 8003276:	801a      	strh	r2, [r3, #0]
 8003278:	187b      	adds	r3, r7, r1
 800327a:	881a      	ldrh	r2, [r3, #0]
 800327c:	2380      	movs	r3, #128	; 0x80
 800327e:	01db      	lsls	r3, r3, #7
 8003280:	4013      	ands	r3, r2
 8003282:	d016      	beq.n	80032b2 <USB_ActivateEndpoint+0x34e>
 8003284:	687a      	ldr	r2, [r7, #4]
 8003286:	683b      	ldr	r3, [r7, #0]
 8003288:	781b      	ldrb	r3, [r3, #0]
 800328a:	009b      	lsls	r3, r3, #2
 800328c:	18d3      	adds	r3, r2, r3
 800328e:	881b      	ldrh	r3, [r3, #0]
 8003290:	b29a      	uxth	r2, r3
 8003292:	2020      	movs	r0, #32
 8003294:	183b      	adds	r3, r7, r0
 8003296:	49dd      	ldr	r1, [pc, #884]	; (800360c <USB_ActivateEndpoint+0x6a8>)
 8003298:	400a      	ands	r2, r1
 800329a:	801a      	strh	r2, [r3, #0]
 800329c:	687a      	ldr	r2, [r7, #4]
 800329e:	683b      	ldr	r3, [r7, #0]
 80032a0:	781b      	ldrb	r3, [r3, #0]
 80032a2:	009b      	lsls	r3, r3, #2
 80032a4:	18d3      	adds	r3, r2, r3
 80032a6:	183a      	adds	r2, r7, r0
 80032a8:	8812      	ldrh	r2, [r2, #0]
 80032aa:	49d9      	ldr	r1, [pc, #868]	; (8003610 <USB_ActivateEndpoint+0x6ac>)
 80032ac:	430a      	orrs	r2, r1
 80032ae:	b292      	uxth	r2, r2
 80032b0:	801a      	strh	r2, [r3, #0]

      if (ep->num == 0U)
 80032b2:	683b      	ldr	r3, [r7, #0]
 80032b4:	781b      	ldrb	r3, [r3, #0]
 80032b6:	2b00      	cmp	r3, #0
 80032b8:	d125      	bne.n	8003306 <USB_ActivateEndpoint+0x3a2>
      {
        /* Configure VALID status for EP0 */
        PCD_SET_EP_RX_STATUS(USBx, ep->num, USB_EP_RX_VALID);
 80032ba:	687a      	ldr	r2, [r7, #4]
 80032bc:	683b      	ldr	r3, [r7, #0]
 80032be:	781b      	ldrb	r3, [r3, #0]
 80032c0:	009b      	lsls	r3, r3, #2
 80032c2:	18d3      	adds	r3, r2, r3
 80032c4:	881b      	ldrh	r3, [r3, #0]
 80032c6:	b29a      	uxth	r2, r3
 80032c8:	201c      	movs	r0, #28
 80032ca:	183b      	adds	r3, r7, r0
 80032cc:	49d1      	ldr	r1, [pc, #836]	; (8003614 <USB_ActivateEndpoint+0x6b0>)
 80032ce:	400a      	ands	r2, r1
 80032d0:	801a      	strh	r2, [r3, #0]
 80032d2:	183b      	adds	r3, r7, r0
 80032d4:	183a      	adds	r2, r7, r0
 80032d6:	8812      	ldrh	r2, [r2, #0]
 80032d8:	2180      	movs	r1, #128	; 0x80
 80032da:	0149      	lsls	r1, r1, #5
 80032dc:	404a      	eors	r2, r1
 80032de:	801a      	strh	r2, [r3, #0]
 80032e0:	183b      	adds	r3, r7, r0
 80032e2:	183a      	adds	r2, r7, r0
 80032e4:	8812      	ldrh	r2, [r2, #0]
 80032e6:	2180      	movs	r1, #128	; 0x80
 80032e8:	0189      	lsls	r1, r1, #6
 80032ea:	404a      	eors	r2, r1
 80032ec:	801a      	strh	r2, [r3, #0]
 80032ee:	687a      	ldr	r2, [r7, #4]
 80032f0:	683b      	ldr	r3, [r7, #0]
 80032f2:	781b      	ldrb	r3, [r3, #0]
 80032f4:	009b      	lsls	r3, r3, #2
 80032f6:	18d3      	adds	r3, r2, r3
 80032f8:	183a      	adds	r2, r7, r0
 80032fa:	8812      	ldrh	r2, [r2, #0]
 80032fc:	49c6      	ldr	r1, [pc, #792]	; (8003618 <USB_ActivateEndpoint+0x6b4>)
 80032fe:	430a      	orrs	r2, r1
 8003300:	b292      	uxth	r2, r2
 8003302:	801a      	strh	r2, [r3, #0]
 8003304:	e1c2      	b.n	800368c <USB_ActivateEndpoint+0x728>
      }
      else
      {
        /* Configure NAK status for OUT Endpoint */
        PCD_SET_EP_RX_STATUS(USBx, ep->num, USB_EP_RX_NAK);
 8003306:	687a      	ldr	r2, [r7, #4]
 8003308:	683b      	ldr	r3, [r7, #0]
 800330a:	781b      	ldrb	r3, [r3, #0]
 800330c:	009b      	lsls	r3, r3, #2
 800330e:	18d3      	adds	r3, r2, r3
 8003310:	881b      	ldrh	r3, [r3, #0]
 8003312:	b29a      	uxth	r2, r3
 8003314:	201e      	movs	r0, #30
 8003316:	183b      	adds	r3, r7, r0
 8003318:	49be      	ldr	r1, [pc, #760]	; (8003614 <USB_ActivateEndpoint+0x6b0>)
 800331a:	400a      	ands	r2, r1
 800331c:	801a      	strh	r2, [r3, #0]
 800331e:	183b      	adds	r3, r7, r0
 8003320:	183a      	adds	r2, r7, r0
 8003322:	8812      	ldrh	r2, [r2, #0]
 8003324:	2180      	movs	r1, #128	; 0x80
 8003326:	0189      	lsls	r1, r1, #6
 8003328:	404a      	eors	r2, r1
 800332a:	801a      	strh	r2, [r3, #0]
 800332c:	687a      	ldr	r2, [r7, #4]
 800332e:	683b      	ldr	r3, [r7, #0]
 8003330:	781b      	ldrb	r3, [r3, #0]
 8003332:	009b      	lsls	r3, r3, #2
 8003334:	18d3      	adds	r3, r2, r3
 8003336:	183a      	adds	r2, r7, r0
 8003338:	8812      	ldrh	r2, [r2, #0]
 800333a:	49b7      	ldr	r1, [pc, #732]	; (8003618 <USB_ActivateEndpoint+0x6b4>)
 800333c:	430a      	orrs	r2, r1
 800333e:	b292      	uxth	r2, r2
 8003340:	801a      	strh	r2, [r3, #0]
 8003342:	e1a3      	b.n	800368c <USB_ActivateEndpoint+0x728>
  }
#if (USE_USB_DOUBLE_BUFFER == 1U)
  /* Double Buffer */
  else
  {
    if (ep->type == EP_TYPE_BULK)
 8003344:	683b      	ldr	r3, [r7, #0]
 8003346:	78db      	ldrb	r3, [r3, #3]
 8003348:	2b02      	cmp	r3, #2
 800334a:	d117      	bne.n	800337c <USB_ActivateEndpoint+0x418>
    {
      /* Set bulk endpoint as double buffered */
      PCD_SET_BULK_EP_DBUF(USBx, ep->num);
 800334c:	687a      	ldr	r2, [r7, #4]
 800334e:	683b      	ldr	r3, [r7, #0]
 8003350:	781b      	ldrb	r3, [r3, #0]
 8003352:	009b      	lsls	r3, r3, #2
 8003354:	18d3      	adds	r3, r2, r3
 8003356:	881b      	ldrh	r3, [r3, #0]
 8003358:	b29a      	uxth	r2, r3
 800335a:	2062      	movs	r0, #98	; 0x62
 800335c:	183b      	adds	r3, r7, r0
 800335e:	49ab      	ldr	r1, [pc, #684]	; (800360c <USB_ActivateEndpoint+0x6a8>)
 8003360:	400a      	ands	r2, r1
 8003362:	801a      	strh	r2, [r3, #0]
 8003364:	687a      	ldr	r2, [r7, #4]
 8003366:	683b      	ldr	r3, [r7, #0]
 8003368:	781b      	ldrb	r3, [r3, #0]
 800336a:	009b      	lsls	r3, r3, #2
 800336c:	18d3      	adds	r3, r2, r3
 800336e:	183a      	adds	r2, r7, r0
 8003370:	8812      	ldrh	r2, [r2, #0]
 8003372:	49aa      	ldr	r1, [pc, #680]	; (800361c <USB_ActivateEndpoint+0x6b8>)
 8003374:	430a      	orrs	r2, r1
 8003376:	b292      	uxth	r2, r2
 8003378:	801a      	strh	r2, [r3, #0]
 800337a:	e016      	b.n	80033aa <USB_ActivateEndpoint+0x446>
    }
    else
    {
      /* Set the ISOC endpoint in double buffer mode */
      PCD_CLEAR_EP_KIND(USBx, ep->num);
 800337c:	687a      	ldr	r2, [r7, #4]
 800337e:	683b      	ldr	r3, [r7, #0]
 8003380:	781b      	ldrb	r3, [r3, #0]
 8003382:	009b      	lsls	r3, r3, #2
 8003384:	18d3      	adds	r3, r2, r3
 8003386:	881b      	ldrh	r3, [r3, #0]
 8003388:	b29a      	uxth	r2, r3
 800338a:	2064      	movs	r0, #100	; 0x64
 800338c:	183b      	adds	r3, r7, r0
 800338e:	49a4      	ldr	r1, [pc, #656]	; (8003620 <USB_ActivateEndpoint+0x6bc>)
 8003390:	400a      	ands	r2, r1
 8003392:	801a      	strh	r2, [r3, #0]
 8003394:	687a      	ldr	r2, [r7, #4]
 8003396:	683b      	ldr	r3, [r7, #0]
 8003398:	781b      	ldrb	r3, [r3, #0]
 800339a:	009b      	lsls	r3, r3, #2
 800339c:	18d3      	adds	r3, r2, r3
 800339e:	183a      	adds	r2, r7, r0
 80033a0:	8812      	ldrh	r2, [r2, #0]
 80033a2:	499d      	ldr	r1, [pc, #628]	; (8003618 <USB_ActivateEndpoint+0x6b4>)
 80033a4:	430a      	orrs	r2, r1
 80033a6:	b292      	uxth	r2, r2
 80033a8:	801a      	strh	r2, [r3, #0]
    }

    /* Set buffer address for double buffered mode */
    PCD_SET_EP_DBUF_ADDR(USBx, ep->num, ep->pmaaddr0, ep->pmaaddr1);
 80033aa:	687b      	ldr	r3, [r7, #4]
 80033ac:	65fb      	str	r3, [r7, #92]	; 0x5c
 80033ae:	687b      	ldr	r3, [r7, #4]
 80033b0:	2250      	movs	r2, #80	; 0x50
 80033b2:	5a9b      	ldrh	r3, [r3, r2]
 80033b4:	b29b      	uxth	r3, r3
 80033b6:	001a      	movs	r2, r3
 80033b8:	6dfb      	ldr	r3, [r7, #92]	; 0x5c
 80033ba:	189b      	adds	r3, r3, r2
 80033bc:	65fb      	str	r3, [r7, #92]	; 0x5c
 80033be:	683b      	ldr	r3, [r7, #0]
 80033c0:	781b      	ldrb	r3, [r3, #0]
 80033c2:	00da      	lsls	r2, r3, #3
 80033c4:	6dfb      	ldr	r3, [r7, #92]	; 0x5c
 80033c6:	18d3      	adds	r3, r2, r3
 80033c8:	2280      	movs	r2, #128	; 0x80
 80033ca:	00d2      	lsls	r2, r2, #3
 80033cc:	4694      	mov	ip, r2
 80033ce:	4463      	add	r3, ip
 80033d0:	65bb      	str	r3, [r7, #88]	; 0x58
 80033d2:	683b      	ldr	r3, [r7, #0]
 80033d4:	891b      	ldrh	r3, [r3, #8]
 80033d6:	085b      	lsrs	r3, r3, #1
 80033d8:	b29b      	uxth	r3, r3
 80033da:	18db      	adds	r3, r3, r3
 80033dc:	b29a      	uxth	r2, r3
 80033de:	6dbb      	ldr	r3, [r7, #88]	; 0x58
 80033e0:	801a      	strh	r2, [r3, #0]
 80033e2:	687b      	ldr	r3, [r7, #4]
 80033e4:	657b      	str	r3, [r7, #84]	; 0x54
 80033e6:	687b      	ldr	r3, [r7, #4]
 80033e8:	2250      	movs	r2, #80	; 0x50
 80033ea:	5a9b      	ldrh	r3, [r3, r2]
 80033ec:	b29b      	uxth	r3, r3
 80033ee:	001a      	movs	r2, r3
 80033f0:	6d7b      	ldr	r3, [r7, #84]	; 0x54
 80033f2:	189b      	adds	r3, r3, r2
 80033f4:	657b      	str	r3, [r7, #84]	; 0x54
 80033f6:	683b      	ldr	r3, [r7, #0]
 80033f8:	781b      	ldrb	r3, [r3, #0]
 80033fa:	00da      	lsls	r2, r3, #3
 80033fc:	6d7b      	ldr	r3, [r7, #84]	; 0x54
 80033fe:	18d3      	adds	r3, r2, r3
 8003400:	4a88      	ldr	r2, [pc, #544]	; (8003624 <USB_ActivateEndpoint+0x6c0>)
 8003402:	4694      	mov	ip, r2
 8003404:	4463      	add	r3, ip
 8003406:	653b      	str	r3, [r7, #80]	; 0x50
 8003408:	683b      	ldr	r3, [r7, #0]
 800340a:	895b      	ldrh	r3, [r3, #10]
 800340c:	085b      	lsrs	r3, r3, #1
 800340e:	b29b      	uxth	r3, r3
 8003410:	18db      	adds	r3, r3, r3
 8003412:	b29a      	uxth	r2, r3
 8003414:	6d3b      	ldr	r3, [r7, #80]	; 0x50
 8003416:	801a      	strh	r2, [r3, #0]

    if (ep->is_in == 0U)
 8003418:	683b      	ldr	r3, [r7, #0]
 800341a:	785b      	ldrb	r3, [r3, #1]
 800341c:	2b00      	cmp	r3, #0
 800341e:	d000      	beq.n	8003422 <USB_ActivateEndpoint+0x4be>
 8003420:	e087      	b.n	8003532 <USB_ActivateEndpoint+0x5ce>
    {
      /* Clear the data toggle bits for the endpoint IN/OUT */
      PCD_CLEAR_RX_DTOG(USBx, ep->num);
 8003422:	687a      	ldr	r2, [r7, #4]
 8003424:	683b      	ldr	r3, [r7, #0]
 8003426:	781b      	ldrb	r3, [r3, #0]
 8003428:	009b      	lsls	r3, r3, #2
 800342a:	18d2      	adds	r2, r2, r3
 800342c:	2140      	movs	r1, #64	; 0x40
 800342e:	187b      	adds	r3, r7, r1
 8003430:	8812      	ldrh	r2, [r2, #0]
 8003432:	801a      	strh	r2, [r3, #0]
 8003434:	187b      	adds	r3, r7, r1
 8003436:	881a      	ldrh	r2, [r3, #0]
 8003438:	2380      	movs	r3, #128	; 0x80
 800343a:	01db      	lsls	r3, r3, #7
 800343c:	4013      	ands	r3, r2
 800343e:	d016      	beq.n	800346e <USB_ActivateEndpoint+0x50a>
 8003440:	687a      	ldr	r2, [r7, #4]
 8003442:	683b      	ldr	r3, [r7, #0]
 8003444:	781b      	ldrb	r3, [r3, #0]
 8003446:	009b      	lsls	r3, r3, #2
 8003448:	18d3      	adds	r3, r2, r3
 800344a:	881b      	ldrh	r3, [r3, #0]
 800344c:	b29a      	uxth	r2, r3
 800344e:	203e      	movs	r0, #62	; 0x3e
 8003450:	183b      	adds	r3, r7, r0
 8003452:	496e      	ldr	r1, [pc, #440]	; (800360c <USB_ActivateEndpoint+0x6a8>)
 8003454:	400a      	ands	r2, r1
 8003456:	801a      	strh	r2, [r3, #0]
 8003458:	687a      	ldr	r2, [r7, #4]
 800345a:	683b      	ldr	r3, [r7, #0]
 800345c:	781b      	ldrb	r3, [r3, #0]
 800345e:	009b      	lsls	r3, r3, #2
 8003460:	18d3      	adds	r3, r2, r3
 8003462:	183a      	adds	r2, r7, r0
 8003464:	8812      	ldrh	r2, [r2, #0]
 8003466:	496a      	ldr	r1, [pc, #424]	; (8003610 <USB_ActivateEndpoint+0x6ac>)
 8003468:	430a      	orrs	r2, r1
 800346a:	b292      	uxth	r2, r2
 800346c:	801a      	strh	r2, [r3, #0]
      PCD_CLEAR_TX_DTOG(USBx, ep->num);
 800346e:	687a      	ldr	r2, [r7, #4]
 8003470:	683b      	ldr	r3, [r7, #0]
 8003472:	781b      	ldrb	r3, [r3, #0]
 8003474:	009b      	lsls	r3, r3, #2
 8003476:	18d2      	adds	r2, r2, r3
 8003478:	213c      	movs	r1, #60	; 0x3c
 800347a:	187b      	adds	r3, r7, r1
 800347c:	8812      	ldrh	r2, [r2, #0]
 800347e:	801a      	strh	r2, [r3, #0]
 8003480:	187b      	adds	r3, r7, r1
 8003482:	881b      	ldrh	r3, [r3, #0]
 8003484:	2240      	movs	r2, #64	; 0x40
 8003486:	4013      	ands	r3, r2
 8003488:	d016      	beq.n	80034b8 <USB_ActivateEndpoint+0x554>
 800348a:	687a      	ldr	r2, [r7, #4]
 800348c:	683b      	ldr	r3, [r7, #0]
 800348e:	781b      	ldrb	r3, [r3, #0]
 8003490:	009b      	lsls	r3, r3, #2
 8003492:	18d3      	adds	r3, r2, r3
 8003494:	881b      	ldrh	r3, [r3, #0]
 8003496:	b29a      	uxth	r2, r3
 8003498:	203a      	movs	r0, #58	; 0x3a
 800349a:	183b      	adds	r3, r7, r0
 800349c:	495b      	ldr	r1, [pc, #364]	; (800360c <USB_ActivateEndpoint+0x6a8>)
 800349e:	400a      	ands	r2, r1
 80034a0:	801a      	strh	r2, [r3, #0]
 80034a2:	687a      	ldr	r2, [r7, #4]
 80034a4:	683b      	ldr	r3, [r7, #0]
 80034a6:	781b      	ldrb	r3, [r3, #0]
 80034a8:	009b      	lsls	r3, r3, #2
 80034aa:	18d3      	adds	r3, r2, r3
 80034ac:	183a      	adds	r2, r7, r0
 80034ae:	8812      	ldrh	r2, [r2, #0]
 80034b0:	495d      	ldr	r1, [pc, #372]	; (8003628 <USB_ActivateEndpoint+0x6c4>)
 80034b2:	430a      	orrs	r2, r1
 80034b4:	b292      	uxth	r2, r2
 80034b6:	801a      	strh	r2, [r3, #0]

      PCD_SET_EP_RX_STATUS(USBx, ep->num, USB_EP_RX_VALID);
 80034b8:	687a      	ldr	r2, [r7, #4]
 80034ba:	683b      	ldr	r3, [r7, #0]
 80034bc:	781b      	ldrb	r3, [r3, #0]
 80034be:	009b      	lsls	r3, r3, #2
 80034c0:	18d3      	adds	r3, r2, r3
 80034c2:	881b      	ldrh	r3, [r3, #0]
 80034c4:	b29a      	uxth	r2, r3
 80034c6:	2038      	movs	r0, #56	; 0x38
 80034c8:	183b      	adds	r3, r7, r0
 80034ca:	4952      	ldr	r1, [pc, #328]	; (8003614 <USB_ActivateEndpoint+0x6b0>)
 80034cc:	400a      	ands	r2, r1
 80034ce:	801a      	strh	r2, [r3, #0]
 80034d0:	183b      	adds	r3, r7, r0
 80034d2:	183a      	adds	r2, r7, r0
 80034d4:	8812      	ldrh	r2, [r2, #0]
 80034d6:	2180      	movs	r1, #128	; 0x80
 80034d8:	0149      	lsls	r1, r1, #5
 80034da:	404a      	eors	r2, r1
 80034dc:	801a      	strh	r2, [r3, #0]
 80034de:	183b      	adds	r3, r7, r0
 80034e0:	183a      	adds	r2, r7, r0
 80034e2:	8812      	ldrh	r2, [r2, #0]
 80034e4:	2180      	movs	r1, #128	; 0x80
 80034e6:	0189      	lsls	r1, r1, #6
 80034e8:	404a      	eors	r2, r1
 80034ea:	801a      	strh	r2, [r3, #0]
 80034ec:	687a      	ldr	r2, [r7, #4]
 80034ee:	683b      	ldr	r3, [r7, #0]
 80034f0:	781b      	ldrb	r3, [r3, #0]
 80034f2:	009b      	lsls	r3, r3, #2
 80034f4:	18d3      	adds	r3, r2, r3
 80034f6:	183a      	adds	r2, r7, r0
 80034f8:	8812      	ldrh	r2, [r2, #0]
 80034fa:	4947      	ldr	r1, [pc, #284]	; (8003618 <USB_ActivateEndpoint+0x6b4>)
 80034fc:	430a      	orrs	r2, r1
 80034fe:	b292      	uxth	r2, r2
 8003500:	801a      	strh	r2, [r3, #0]
      PCD_SET_EP_TX_STATUS(USBx, ep->num, USB_EP_TX_DIS);
 8003502:	687a      	ldr	r2, [r7, #4]
 8003504:	683b      	ldr	r3, [r7, #0]
 8003506:	781b      	ldrb	r3, [r3, #0]
 8003508:	009b      	lsls	r3, r3, #2
 800350a:	18d3      	adds	r3, r2, r3
 800350c:	881b      	ldrh	r3, [r3, #0]
 800350e:	b29a      	uxth	r2, r3
 8003510:	2036      	movs	r0, #54	; 0x36
 8003512:	183b      	adds	r3, r7, r0
 8003514:	4945      	ldr	r1, [pc, #276]	; (800362c <USB_ActivateEndpoint+0x6c8>)
 8003516:	400a      	ands	r2, r1
 8003518:	801a      	strh	r2, [r3, #0]
 800351a:	687a      	ldr	r2, [r7, #4]
 800351c:	683b      	ldr	r3, [r7, #0]
 800351e:	781b      	ldrb	r3, [r3, #0]
 8003520:	009b      	lsls	r3, r3, #2
 8003522:	18d3      	adds	r3, r2, r3
 8003524:	183a      	adds	r2, r7, r0
 8003526:	8812      	ldrh	r2, [r2, #0]
 8003528:	493b      	ldr	r1, [pc, #236]	; (8003618 <USB_ActivateEndpoint+0x6b4>)
 800352a:	430a      	orrs	r2, r1
 800352c:	b292      	uxth	r2, r2
 800352e:	801a      	strh	r2, [r3, #0]
 8003530:	e0ac      	b.n	800368c <USB_ActivateEndpoint+0x728>
    }
    else
    {
      /* Clear the data toggle bits for the endpoint IN/OUT */
      PCD_CLEAR_RX_DTOG(USBx, ep->num);
 8003532:	687a      	ldr	r2, [r7, #4]
 8003534:	683b      	ldr	r3, [r7, #0]
 8003536:	781b      	ldrb	r3, [r3, #0]
 8003538:	009b      	lsls	r3, r3, #2
 800353a:	18d2      	adds	r2, r2, r3
 800353c:	214e      	movs	r1, #78	; 0x4e
 800353e:	187b      	adds	r3, r7, r1
 8003540:	8812      	ldrh	r2, [r2, #0]
 8003542:	801a      	strh	r2, [r3, #0]
 8003544:	187b      	adds	r3, r7, r1
 8003546:	881a      	ldrh	r2, [r3, #0]
 8003548:	2380      	movs	r3, #128	; 0x80
 800354a:	01db      	lsls	r3, r3, #7
 800354c:	4013      	ands	r3, r2
 800354e:	d016      	beq.n	800357e <USB_ActivateEndpoint+0x61a>
 8003550:	687a      	ldr	r2, [r7, #4]
 8003552:	683b      	ldr	r3, [r7, #0]
 8003554:	781b      	ldrb	r3, [r3, #0]
 8003556:	009b      	lsls	r3, r3, #2
 8003558:	18d3      	adds	r3, r2, r3
 800355a:	881b      	ldrh	r3, [r3, #0]
 800355c:	b29a      	uxth	r2, r3
 800355e:	204c      	movs	r0, #76	; 0x4c
 8003560:	183b      	adds	r3, r7, r0
 8003562:	492a      	ldr	r1, [pc, #168]	; (800360c <USB_ActivateEndpoint+0x6a8>)
 8003564:	400a      	ands	r2, r1
 8003566:	801a      	strh	r2, [r3, #0]
 8003568:	687a      	ldr	r2, [r7, #4]
 800356a:	683b      	ldr	r3, [r7, #0]
 800356c:	781b      	ldrb	r3, [r3, #0]
 800356e:	009b      	lsls	r3, r3, #2
 8003570:	18d3      	adds	r3, r2, r3
 8003572:	183a      	adds	r2, r7, r0
 8003574:	8812      	ldrh	r2, [r2, #0]
 8003576:	4926      	ldr	r1, [pc, #152]	; (8003610 <USB_ActivateEndpoint+0x6ac>)
 8003578:	430a      	orrs	r2, r1
 800357a:	b292      	uxth	r2, r2
 800357c:	801a      	strh	r2, [r3, #0]
      PCD_CLEAR_TX_DTOG(USBx, ep->num);
 800357e:	687a      	ldr	r2, [r7, #4]
 8003580:	683b      	ldr	r3, [r7, #0]
 8003582:	781b      	ldrb	r3, [r3, #0]
 8003584:	009b      	lsls	r3, r3, #2
 8003586:	18d2      	adds	r2, r2, r3
 8003588:	214a      	movs	r1, #74	; 0x4a
 800358a:	187b      	adds	r3, r7, r1
 800358c:	8812      	ldrh	r2, [r2, #0]
 800358e:	801a      	strh	r2, [r3, #0]
 8003590:	187b      	adds	r3, r7, r1
 8003592:	881b      	ldrh	r3, [r3, #0]
 8003594:	2240      	movs	r2, #64	; 0x40
 8003596:	4013      	ands	r3, r2
 8003598:	d016      	beq.n	80035c8 <USB_ActivateEndpoint+0x664>
 800359a:	687a      	ldr	r2, [r7, #4]
 800359c:	683b      	ldr	r3, [r7, #0]
 800359e:	781b      	ldrb	r3, [r3, #0]
 80035a0:	009b      	lsls	r3, r3, #2
 80035a2:	18d3      	adds	r3, r2, r3
 80035a4:	881b      	ldrh	r3, [r3, #0]
 80035a6:	b29a      	uxth	r2, r3
 80035a8:	2048      	movs	r0, #72	; 0x48
 80035aa:	183b      	adds	r3, r7, r0
 80035ac:	4917      	ldr	r1, [pc, #92]	; (800360c <USB_ActivateEndpoint+0x6a8>)
 80035ae:	400a      	ands	r2, r1
 80035b0:	801a      	strh	r2, [r3, #0]
 80035b2:	687a      	ldr	r2, [r7, #4]
 80035b4:	683b      	ldr	r3, [r7, #0]
 80035b6:	781b      	ldrb	r3, [r3, #0]
 80035b8:	009b      	lsls	r3, r3, #2
 80035ba:	18d3      	adds	r3, r2, r3
 80035bc:	183a      	adds	r2, r7, r0
 80035be:	8812      	ldrh	r2, [r2, #0]
 80035c0:	4919      	ldr	r1, [pc, #100]	; (8003628 <USB_ActivateEndpoint+0x6c4>)
 80035c2:	430a      	orrs	r2, r1
 80035c4:	b292      	uxth	r2, r2
 80035c6:	801a      	strh	r2, [r3, #0]

      if (ep->type != EP_TYPE_ISOC)
 80035c8:	683b      	ldr	r3, [r7, #0]
 80035ca:	78db      	ldrb	r3, [r3, #3]
 80035cc:	2b01      	cmp	r3, #1
 80035ce:	d02f      	beq.n	8003630 <USB_ActivateEndpoint+0x6cc>
      {
        /* Configure NAK status for the Endpoint */
        PCD_SET_EP_TX_STATUS(USBx, ep->num, USB_EP_TX_NAK);
 80035d0:	687a      	ldr	r2, [r7, #4]
 80035d2:	683b      	ldr	r3, [r7, #0]
 80035d4:	781b      	ldrb	r3, [r3, #0]
 80035d6:	009b      	lsls	r3, r3, #2
 80035d8:	18d3      	adds	r3, r2, r3
 80035da:	881b      	ldrh	r3, [r3, #0]
 80035dc:	b29a      	uxth	r2, r3
 80035de:	2044      	movs	r0, #68	; 0x44
 80035e0:	183b      	adds	r3, r7, r0
 80035e2:	4912      	ldr	r1, [pc, #72]	; (800362c <USB_ActivateEndpoint+0x6c8>)
 80035e4:	400a      	ands	r2, r1
 80035e6:	801a      	strh	r2, [r3, #0]
 80035e8:	183b      	adds	r3, r7, r0
 80035ea:	183a      	adds	r2, r7, r0
 80035ec:	8812      	ldrh	r2, [r2, #0]
 80035ee:	2120      	movs	r1, #32
 80035f0:	404a      	eors	r2, r1
 80035f2:	801a      	strh	r2, [r3, #0]
 80035f4:	687a      	ldr	r2, [r7, #4]
 80035f6:	683b      	ldr	r3, [r7, #0]
 80035f8:	781b      	ldrb	r3, [r3, #0]
 80035fa:	009b      	lsls	r3, r3, #2
 80035fc:	18d3      	adds	r3, r2, r3
 80035fe:	183a      	adds	r2, r7, r0
 8003600:	8812      	ldrh	r2, [r2, #0]
 8003602:	4905      	ldr	r1, [pc, #20]	; (8003618 <USB_ActivateEndpoint+0x6b4>)
 8003604:	430a      	orrs	r2, r1
 8003606:	b292      	uxth	r2, r2
 8003608:	801a      	strh	r2, [r3, #0]
 800360a:	e028      	b.n	800365e <USB_ActivateEndpoint+0x6fa>
 800360c:	ffff8f8f 	.word	0xffff8f8f
 8003610:	ffffc080 	.word	0xffffc080
 8003614:	ffffbf8f 	.word	0xffffbf8f
 8003618:	ffff8080 	.word	0xffff8080
 800361c:	ffff8180 	.word	0xffff8180
 8003620:	ffff8e8f 	.word	0xffff8e8f
 8003624:	00000404 	.word	0x00000404
 8003628:	ffff80c0 	.word	0xffff80c0
 800362c:	ffff8fbf 	.word	0xffff8fbf
      }
      else
      {
        /* Configure TX Endpoint to disabled state */
        PCD_SET_EP_TX_STATUS(USBx, ep->num, USB_EP_TX_DIS);
 8003630:	687a      	ldr	r2, [r7, #4]
 8003632:	683b      	ldr	r3, [r7, #0]
 8003634:	781b      	ldrb	r3, [r3, #0]
 8003636:	009b      	lsls	r3, r3, #2
 8003638:	18d3      	adds	r3, r2, r3
 800363a:	881b      	ldrh	r3, [r3, #0]
 800363c:	b29a      	uxth	r2, r3
 800363e:	2046      	movs	r0, #70	; 0x46
 8003640:	183b      	adds	r3, r7, r0
 8003642:	4916      	ldr	r1, [pc, #88]	; (800369c <USB_ActivateEndpoint+0x738>)
 8003644:	400a      	ands	r2, r1
 8003646:	801a      	strh	r2, [r3, #0]
 8003648:	687a      	ldr	r2, [r7, #4]
 800364a:	683b      	ldr	r3, [r7, #0]
 800364c:	781b      	ldrb	r3, [r3, #0]
 800364e:	009b      	lsls	r3, r3, #2
 8003650:	18d3      	adds	r3, r2, r3
 8003652:	183a      	adds	r2, r7, r0
 8003654:	8812      	ldrh	r2, [r2, #0]
 8003656:	4912      	ldr	r1, [pc, #72]	; (80036a0 <USB_ActivateEndpoint+0x73c>)
 8003658:	430a      	orrs	r2, r1
 800365a:	b292      	uxth	r2, r2
 800365c:	801a      	strh	r2, [r3, #0]
      }

      PCD_SET_EP_RX_STATUS(USBx, ep->num, USB_EP_RX_DIS);
 800365e:	687a      	ldr	r2, [r7, #4]
 8003660:	683b      	ldr	r3, [r7, #0]
 8003662:	781b      	ldrb	r3, [r3, #0]
 8003664:	009b      	lsls	r3, r3, #2
 8003666:	18d3      	adds	r3, r2, r3
 8003668:	881b      	ldrh	r3, [r3, #0]
 800366a:	b29a      	uxth	r2, r3
 800366c:	2042      	movs	r0, #66	; 0x42
 800366e:	183b      	adds	r3, r7, r0
 8003670:	490c      	ldr	r1, [pc, #48]	; (80036a4 <USB_ActivateEndpoint+0x740>)
 8003672:	400a      	ands	r2, r1
 8003674:	801a      	strh	r2, [r3, #0]
 8003676:	687a      	ldr	r2, [r7, #4]
 8003678:	683b      	ldr	r3, [r7, #0]
 800367a:	781b      	ldrb	r3, [r3, #0]
 800367c:	009b      	lsls	r3, r3, #2
 800367e:	18d3      	adds	r3, r2, r3
 8003680:	183a      	adds	r2, r7, r0
 8003682:	8812      	ldrh	r2, [r2, #0]
 8003684:	4906      	ldr	r1, [pc, #24]	; (80036a0 <USB_ActivateEndpoint+0x73c>)
 8003686:	430a      	orrs	r2, r1
 8003688:	b292      	uxth	r2, r2
 800368a:	801a      	strh	r2, [r3, #0]
    }
  }
#endif /* (USE_USB_DOUBLE_BUFFER == 1U) */

  return ret;
 800368c:	236f      	movs	r3, #111	; 0x6f
 800368e:	18fb      	adds	r3, r7, r3
 8003690:	781b      	ldrb	r3, [r3, #0]
}
 8003692:	0018      	movs	r0, r3
 8003694:	46bd      	mov	sp, r7
 8003696:	b01c      	add	sp, #112	; 0x70
 8003698:	bd80      	pop	{r7, pc}
 800369a:	46c0      	nop			; (mov r8, r8)
 800369c:	ffff8fbf 	.word	0xffff8fbf
 80036a0:	ffff8080 	.word	0xffff8080
 80036a4:	ffffbf8f 	.word	0xffffbf8f

080036a8 <USB_DeactivateEndpoint>:
  * @param  USBx Selected device
  * @param  ep pointer to endpoint structure
  * @retval HAL status
  */
HAL_StatusTypeDef USB_DeactivateEndpoint(USB_TypeDef *USBx, USB_EPTypeDef *ep)
{
 80036a8:	b580      	push	{r7, lr}
 80036aa:	b08c      	sub	sp, #48	; 0x30
 80036ac:	af00      	add	r7, sp, #0
 80036ae:	6078      	str	r0, [r7, #4]
 80036b0:	6039      	str	r1, [r7, #0]
  if (ep->doublebuffer == 0U)
 80036b2:	683b      	ldr	r3, [r7, #0]
 80036b4:	7b1b      	ldrb	r3, [r3, #12]
 80036b6:	2b00      	cmp	r3, #0
 80036b8:	d000      	beq.n	80036bc <USB_DeactivateEndpoint+0x14>
 80036ba:	e07e      	b.n	80037ba <USB_DeactivateEndpoint+0x112>
  {
    if (ep->is_in != 0U)
 80036bc:	683b      	ldr	r3, [r7, #0]
 80036be:	785b      	ldrb	r3, [r3, #1]
 80036c0:	2b00      	cmp	r3, #0
 80036c2:	d03c      	beq.n	800373e <USB_DeactivateEndpoint+0x96>
    {
      PCD_CLEAR_TX_DTOG(USBx, ep->num);
 80036c4:	687a      	ldr	r2, [r7, #4]
 80036c6:	683b      	ldr	r3, [r7, #0]
 80036c8:	781b      	ldrb	r3, [r3, #0]
 80036ca:	009b      	lsls	r3, r3, #2
 80036cc:	18d2      	adds	r2, r2, r3
 80036ce:	210c      	movs	r1, #12
 80036d0:	187b      	adds	r3, r7, r1
 80036d2:	8812      	ldrh	r2, [r2, #0]
 80036d4:	801a      	strh	r2, [r3, #0]
 80036d6:	187b      	adds	r3, r7, r1
 80036d8:	881b      	ldrh	r3, [r3, #0]
 80036da:	2240      	movs	r2, #64	; 0x40
 80036dc:	4013      	ands	r3, r2
 80036de:	d016      	beq.n	800370e <USB_DeactivateEndpoint+0x66>
 80036e0:	687a      	ldr	r2, [r7, #4]
 80036e2:	683b      	ldr	r3, [r7, #0]
 80036e4:	781b      	ldrb	r3, [r3, #0]
 80036e6:	009b      	lsls	r3, r3, #2
 80036e8:	18d3      	adds	r3, r2, r3
 80036ea:	881b      	ldrh	r3, [r3, #0]
 80036ec:	b29a      	uxth	r2, r3
 80036ee:	200a      	movs	r0, #10
 80036f0:	183b      	adds	r3, r7, r0
 80036f2:	49c7      	ldr	r1, [pc, #796]	; (8003a10 <USB_DeactivateEndpoint+0x368>)
 80036f4:	400a      	ands	r2, r1
 80036f6:	801a      	strh	r2, [r3, #0]
 80036f8:	687a      	ldr	r2, [r7, #4]
 80036fa:	683b      	ldr	r3, [r7, #0]
 80036fc:	781b      	ldrb	r3, [r3, #0]
 80036fe:	009b      	lsls	r3, r3, #2
 8003700:	18d3      	adds	r3, r2, r3
 8003702:	183a      	adds	r2, r7, r0
 8003704:	8812      	ldrh	r2, [r2, #0]
 8003706:	49c3      	ldr	r1, [pc, #780]	; (8003a14 <USB_DeactivateEndpoint+0x36c>)
 8003708:	430a      	orrs	r2, r1
 800370a:	b292      	uxth	r2, r2
 800370c:	801a      	strh	r2, [r3, #0]

      /* Configure DISABLE status for the Endpoint */
      PCD_SET_EP_TX_STATUS(USBx, ep->num, USB_EP_TX_DIS);
 800370e:	687a      	ldr	r2, [r7, #4]
 8003710:	683b      	ldr	r3, [r7, #0]
 8003712:	781b      	ldrb	r3, [r3, #0]
 8003714:	009b      	lsls	r3, r3, #2
 8003716:	18d3      	adds	r3, r2, r3
 8003718:	881b      	ldrh	r3, [r3, #0]
 800371a:	b29a      	uxth	r2, r3
 800371c:	2008      	movs	r0, #8
 800371e:	183b      	adds	r3, r7, r0
 8003720:	49bd      	ldr	r1, [pc, #756]	; (8003a18 <USB_DeactivateEndpoint+0x370>)
 8003722:	400a      	ands	r2, r1
 8003724:	801a      	strh	r2, [r3, #0]
 8003726:	687a      	ldr	r2, [r7, #4]
 8003728:	683b      	ldr	r3, [r7, #0]
 800372a:	781b      	ldrb	r3, [r3, #0]
 800372c:	009b      	lsls	r3, r3, #2
 800372e:	18d3      	adds	r3, r2, r3
 8003730:	183a      	adds	r2, r7, r0
 8003732:	8812      	ldrh	r2, [r2, #0]
 8003734:	49b9      	ldr	r1, [pc, #740]	; (8003a1c <USB_DeactivateEndpoint+0x374>)
 8003736:	430a      	orrs	r2, r1
 8003738:	b292      	uxth	r2, r2
 800373a:	801a      	strh	r2, [r3, #0]
 800373c:	e163      	b.n	8003a06 <USB_DeactivateEndpoint+0x35e>
    }

    else
    {
      PCD_CLEAR_RX_DTOG(USBx, ep->num);
 800373e:	687a      	ldr	r2, [r7, #4]
 8003740:	683b      	ldr	r3, [r7, #0]
 8003742:	781b      	ldrb	r3, [r3, #0]
 8003744:	009b      	lsls	r3, r3, #2
 8003746:	18d2      	adds	r2, r2, r3
 8003748:	2112      	movs	r1, #18
 800374a:	187b      	adds	r3, r7, r1
 800374c:	8812      	ldrh	r2, [r2, #0]
 800374e:	801a      	strh	r2, [r3, #0]
 8003750:	187b      	adds	r3, r7, r1
 8003752:	881a      	ldrh	r2, [r3, #0]
 8003754:	2380      	movs	r3, #128	; 0x80
 8003756:	01db      	lsls	r3, r3, #7
 8003758:	4013      	ands	r3, r2
 800375a:	d016      	beq.n	800378a <USB_DeactivateEndpoint+0xe2>
 800375c:	687a      	ldr	r2, [r7, #4]
 800375e:	683b      	ldr	r3, [r7, #0]
 8003760:	781b      	ldrb	r3, [r3, #0]
 8003762:	009b      	lsls	r3, r3, #2
 8003764:	18d3      	adds	r3, r2, r3
 8003766:	881b      	ldrh	r3, [r3, #0]
 8003768:	b29a      	uxth	r2, r3
 800376a:	2010      	movs	r0, #16
 800376c:	183b      	adds	r3, r7, r0
 800376e:	49a8      	ldr	r1, [pc, #672]	; (8003a10 <USB_DeactivateEndpoint+0x368>)
 8003770:	400a      	ands	r2, r1
 8003772:	801a      	strh	r2, [r3, #0]
 8003774:	687a      	ldr	r2, [r7, #4]
 8003776:	683b      	ldr	r3, [r7, #0]
 8003778:	781b      	ldrb	r3, [r3, #0]
 800377a:	009b      	lsls	r3, r3, #2
 800377c:	18d3      	adds	r3, r2, r3
 800377e:	183a      	adds	r2, r7, r0
 8003780:	8812      	ldrh	r2, [r2, #0]
 8003782:	49a7      	ldr	r1, [pc, #668]	; (8003a20 <USB_DeactivateEndpoint+0x378>)
 8003784:	430a      	orrs	r2, r1
 8003786:	b292      	uxth	r2, r2
 8003788:	801a      	strh	r2, [r3, #0]

      /* Configure DISABLE status for the Endpoint */
      PCD_SET_EP_RX_STATUS(USBx, ep->num, USB_EP_RX_DIS);
 800378a:	687a      	ldr	r2, [r7, #4]
 800378c:	683b      	ldr	r3, [r7, #0]
 800378e:	781b      	ldrb	r3, [r3, #0]
 8003790:	009b      	lsls	r3, r3, #2
 8003792:	18d3      	adds	r3, r2, r3
 8003794:	881b      	ldrh	r3, [r3, #0]
 8003796:	b29a      	uxth	r2, r3
 8003798:	200e      	movs	r0, #14
 800379a:	183b      	adds	r3, r7, r0
 800379c:	49a1      	ldr	r1, [pc, #644]	; (8003a24 <USB_DeactivateEndpoint+0x37c>)
 800379e:	400a      	ands	r2, r1
 80037a0:	801a      	strh	r2, [r3, #0]
 80037a2:	687a      	ldr	r2, [r7, #4]
 80037a4:	683b      	ldr	r3, [r7, #0]
 80037a6:	781b      	ldrb	r3, [r3, #0]
 80037a8:	009b      	lsls	r3, r3, #2
 80037aa:	18d3      	adds	r3, r2, r3
 80037ac:	183a      	adds	r2, r7, r0
 80037ae:	8812      	ldrh	r2, [r2, #0]
 80037b0:	499a      	ldr	r1, [pc, #616]	; (8003a1c <USB_DeactivateEndpoint+0x374>)
 80037b2:	430a      	orrs	r2, r1
 80037b4:	b292      	uxth	r2, r2
 80037b6:	801a      	strh	r2, [r3, #0]
 80037b8:	e125      	b.n	8003a06 <USB_DeactivateEndpoint+0x35e>
  }
#if (USE_USB_DOUBLE_BUFFER == 1U)
  /* Double Buffer */
  else
  {
    if (ep->is_in == 0U)
 80037ba:	683b      	ldr	r3, [r7, #0]
 80037bc:	785b      	ldrb	r3, [r3, #1]
 80037be:	2b00      	cmp	r3, #0
 80037c0:	d000      	beq.n	80037c4 <USB_DeactivateEndpoint+0x11c>
 80037c2:	e090      	b.n	80038e6 <USB_DeactivateEndpoint+0x23e>
    {
      /* Clear the data toggle bits for the endpoint IN/OUT*/
      PCD_CLEAR_RX_DTOG(USBx, ep->num);
 80037c4:	687a      	ldr	r2, [r7, #4]
 80037c6:	683b      	ldr	r3, [r7, #0]
 80037c8:	781b      	ldrb	r3, [r3, #0]
 80037ca:	009b      	lsls	r3, r3, #2
 80037cc:	18d2      	adds	r2, r2, r3
 80037ce:	2120      	movs	r1, #32
 80037d0:	187b      	adds	r3, r7, r1
 80037d2:	8812      	ldrh	r2, [r2, #0]
 80037d4:	801a      	strh	r2, [r3, #0]
 80037d6:	187b      	adds	r3, r7, r1
 80037d8:	881a      	ldrh	r2, [r3, #0]
 80037da:	2380      	movs	r3, #128	; 0x80
 80037dc:	01db      	lsls	r3, r3, #7
 80037de:	4013      	ands	r3, r2
 80037e0:	d016      	beq.n	8003810 <USB_DeactivateEndpoint+0x168>
 80037e2:	687a      	ldr	r2, [r7, #4]
 80037e4:	683b      	ldr	r3, [r7, #0]
 80037e6:	781b      	ldrb	r3, [r3, #0]
 80037e8:	009b      	lsls	r3, r3, #2
 80037ea:	18d3      	adds	r3, r2, r3
 80037ec:	881b      	ldrh	r3, [r3, #0]
 80037ee:	b29a      	uxth	r2, r3
 80037f0:	201e      	movs	r0, #30
 80037f2:	183b      	adds	r3, r7, r0
 80037f4:	4986      	ldr	r1, [pc, #536]	; (8003a10 <USB_DeactivateEndpoint+0x368>)
 80037f6:	400a      	ands	r2, r1
 80037f8:	801a      	strh	r2, [r3, #0]
 80037fa:	687a      	ldr	r2, [r7, #4]
 80037fc:	683b      	ldr	r3, [r7, #0]
 80037fe:	781b      	ldrb	r3, [r3, #0]
 8003800:	009b      	lsls	r3, r3, #2
 8003802:	18d3      	adds	r3, r2, r3
 8003804:	183a      	adds	r2, r7, r0
 8003806:	8812      	ldrh	r2, [r2, #0]
 8003808:	4985      	ldr	r1, [pc, #532]	; (8003a20 <USB_DeactivateEndpoint+0x378>)
 800380a:	430a      	orrs	r2, r1
 800380c:	b292      	uxth	r2, r2
 800380e:	801a      	strh	r2, [r3, #0]
      PCD_CLEAR_TX_DTOG(USBx, ep->num);
 8003810:	687a      	ldr	r2, [r7, #4]
 8003812:	683b      	ldr	r3, [r7, #0]
 8003814:	781b      	ldrb	r3, [r3, #0]
 8003816:	009b      	lsls	r3, r3, #2
 8003818:	18d2      	adds	r2, r2, r3
 800381a:	211c      	movs	r1, #28
 800381c:	187b      	adds	r3, r7, r1
 800381e:	8812      	ldrh	r2, [r2, #0]
 8003820:	801a      	strh	r2, [r3, #0]
 8003822:	187b      	adds	r3, r7, r1
 8003824:	881b      	ldrh	r3, [r3, #0]
 8003826:	2240      	movs	r2, #64	; 0x40
 8003828:	4013      	ands	r3, r2
 800382a:	d016      	beq.n	800385a <USB_DeactivateEndpoint+0x1b2>
 800382c:	687a      	ldr	r2, [r7, #4]
 800382e:	683b      	ldr	r3, [r7, #0]
 8003830:	781b      	ldrb	r3, [r3, #0]
 8003832:	009b      	lsls	r3, r3, #2
 8003834:	18d3      	adds	r3, r2, r3
 8003836:	881b      	ldrh	r3, [r3, #0]
 8003838:	b29a      	uxth	r2, r3
 800383a:	201a      	movs	r0, #26
 800383c:	183b      	adds	r3, r7, r0
 800383e:	4974      	ldr	r1, [pc, #464]	; (8003a10 <USB_DeactivateEndpoint+0x368>)
 8003840:	400a      	ands	r2, r1
 8003842:	801a      	strh	r2, [r3, #0]
 8003844:	687a      	ldr	r2, [r7, #4]
 8003846:	683b      	ldr	r3, [r7, #0]
 8003848:	781b      	ldrb	r3, [r3, #0]
 800384a:	009b      	lsls	r3, r3, #2
 800384c:	18d3      	adds	r3, r2, r3
 800384e:	183a      	adds	r2, r7, r0
 8003850:	8812      	ldrh	r2, [r2, #0]
 8003852:	4970      	ldr	r1, [pc, #448]	; (8003a14 <USB_DeactivateEndpoint+0x36c>)
 8003854:	430a      	orrs	r2, r1
 8003856:	b292      	uxth	r2, r2
 8003858:	801a      	strh	r2, [r3, #0]

      /* Reset value of the data toggle bits for the endpoint out*/
      PCD_TX_DTOG(USBx, ep->num);
 800385a:	687a      	ldr	r2, [r7, #4]
 800385c:	683b      	ldr	r3, [r7, #0]
 800385e:	781b      	ldrb	r3, [r3, #0]
 8003860:	009b      	lsls	r3, r3, #2
 8003862:	18d3      	adds	r3, r2, r3
 8003864:	881b      	ldrh	r3, [r3, #0]
 8003866:	b29a      	uxth	r2, r3
 8003868:	2018      	movs	r0, #24
 800386a:	183b      	adds	r3, r7, r0
 800386c:	4968      	ldr	r1, [pc, #416]	; (8003a10 <USB_DeactivateEndpoint+0x368>)
 800386e:	400a      	ands	r2, r1
 8003870:	801a      	strh	r2, [r3, #0]
 8003872:	687a      	ldr	r2, [r7, #4]
 8003874:	683b      	ldr	r3, [r7, #0]
 8003876:	781b      	ldrb	r3, [r3, #0]
 8003878:	009b      	lsls	r3, r3, #2
 800387a:	18d3      	adds	r3, r2, r3
 800387c:	183a      	adds	r2, r7, r0
 800387e:	8812      	ldrh	r2, [r2, #0]
 8003880:	4964      	ldr	r1, [pc, #400]	; (8003a14 <USB_DeactivateEndpoint+0x36c>)
 8003882:	430a      	orrs	r2, r1
 8003884:	b292      	uxth	r2, r2
 8003886:	801a      	strh	r2, [r3, #0]

      PCD_SET_EP_RX_STATUS(USBx, ep->num, USB_EP_RX_DIS);
 8003888:	687a      	ldr	r2, [r7, #4]
 800388a:	683b      	ldr	r3, [r7, #0]
 800388c:	781b      	ldrb	r3, [r3, #0]
 800388e:	009b      	lsls	r3, r3, #2
 8003890:	18d3      	adds	r3, r2, r3
 8003892:	881b      	ldrh	r3, [r3, #0]
 8003894:	b29a      	uxth	r2, r3
 8003896:	2016      	movs	r0, #22
 8003898:	183b      	adds	r3, r7, r0
 800389a:	4962      	ldr	r1, [pc, #392]	; (8003a24 <USB_DeactivateEndpoint+0x37c>)
 800389c:	400a      	ands	r2, r1
 800389e:	801a      	strh	r2, [r3, #0]
 80038a0:	687a      	ldr	r2, [r7, #4]
 80038a2:	683b      	ldr	r3, [r7, #0]
 80038a4:	781b      	ldrb	r3, [r3, #0]
 80038a6:	009b      	lsls	r3, r3, #2
 80038a8:	18d3      	adds	r3, r2, r3
 80038aa:	183a      	adds	r2, r7, r0
 80038ac:	8812      	ldrh	r2, [r2, #0]
 80038ae:	495b      	ldr	r1, [pc, #364]	; (8003a1c <USB_DeactivateEndpoint+0x374>)
 80038b0:	430a      	orrs	r2, r1
 80038b2:	b292      	uxth	r2, r2
 80038b4:	801a      	strh	r2, [r3, #0]
      PCD_SET_EP_TX_STATUS(USBx, ep->num, USB_EP_TX_DIS);
 80038b6:	687a      	ldr	r2, [r7, #4]
 80038b8:	683b      	ldr	r3, [r7, #0]
 80038ba:	781b      	ldrb	r3, [r3, #0]
 80038bc:	009b      	lsls	r3, r3, #2
 80038be:	18d3      	adds	r3, r2, r3
 80038c0:	881b      	ldrh	r3, [r3, #0]
 80038c2:	b29a      	uxth	r2, r3
 80038c4:	2014      	movs	r0, #20
 80038c6:	183b      	adds	r3, r7, r0
 80038c8:	4953      	ldr	r1, [pc, #332]	; (8003a18 <USB_DeactivateEndpoint+0x370>)
 80038ca:	400a      	ands	r2, r1
 80038cc:	801a      	strh	r2, [r3, #0]
 80038ce:	687a      	ldr	r2, [r7, #4]
 80038d0:	683b      	ldr	r3, [r7, #0]
 80038d2:	781b      	ldrb	r3, [r3, #0]
 80038d4:	009b      	lsls	r3, r3, #2
 80038d6:	18d3      	adds	r3, r2, r3
 80038d8:	183a      	adds	r2, r7, r0
 80038da:	8812      	ldrh	r2, [r2, #0]
 80038dc:	494f      	ldr	r1, [pc, #316]	; (8003a1c <USB_DeactivateEndpoint+0x374>)
 80038de:	430a      	orrs	r2, r1
 80038e0:	b292      	uxth	r2, r2
 80038e2:	801a      	strh	r2, [r3, #0]
 80038e4:	e08f      	b.n	8003a06 <USB_DeactivateEndpoint+0x35e>
    }
    else
    {
      /* Clear the data toggle bits for the endpoint IN/OUT*/
      PCD_CLEAR_RX_DTOG(USBx, ep->num);
 80038e6:	687a      	ldr	r2, [r7, #4]
 80038e8:	683b      	ldr	r3, [r7, #0]
 80038ea:	781b      	ldrb	r3, [r3, #0]
 80038ec:	009b      	lsls	r3, r3, #2
 80038ee:	18d2      	adds	r2, r2, r3
 80038f0:	212e      	movs	r1, #46	; 0x2e
 80038f2:	187b      	adds	r3, r7, r1
 80038f4:	8812      	ldrh	r2, [r2, #0]
 80038f6:	801a      	strh	r2, [r3, #0]
 80038f8:	187b      	adds	r3, r7, r1
 80038fa:	881a      	ldrh	r2, [r3, #0]
 80038fc:	2380      	movs	r3, #128	; 0x80
 80038fe:	01db      	lsls	r3, r3, #7
 8003900:	4013      	ands	r3, r2
 8003902:	d016      	beq.n	8003932 <USB_DeactivateEndpoint+0x28a>
 8003904:	687a      	ldr	r2, [r7, #4]
 8003906:	683b      	ldr	r3, [r7, #0]
 8003908:	781b      	ldrb	r3, [r3, #0]
 800390a:	009b      	lsls	r3, r3, #2
 800390c:	18d3      	adds	r3, r2, r3
 800390e:	881b      	ldrh	r3, [r3, #0]
 8003910:	b29a      	uxth	r2, r3
 8003912:	202c      	movs	r0, #44	; 0x2c
 8003914:	183b      	adds	r3, r7, r0
 8003916:	493e      	ldr	r1, [pc, #248]	; (8003a10 <USB_DeactivateEndpoint+0x368>)
 8003918:	400a      	ands	r2, r1
 800391a:	801a      	strh	r2, [r3, #0]
 800391c:	687a      	ldr	r2, [r7, #4]
 800391e:	683b      	ldr	r3, [r7, #0]
 8003920:	781b      	ldrb	r3, [r3, #0]
 8003922:	009b      	lsls	r3, r3, #2
 8003924:	18d3      	adds	r3, r2, r3
 8003926:	183a      	adds	r2, r7, r0
 8003928:	8812      	ldrh	r2, [r2, #0]
 800392a:	493d      	ldr	r1, [pc, #244]	; (8003a20 <USB_DeactivateEndpoint+0x378>)
 800392c:	430a      	orrs	r2, r1
 800392e:	b292      	uxth	r2, r2
 8003930:	801a      	strh	r2, [r3, #0]
      PCD_CLEAR_TX_DTOG(USBx, ep->num);
 8003932:	687a      	ldr	r2, [r7, #4]
 8003934:	683b      	ldr	r3, [r7, #0]
 8003936:	781b      	ldrb	r3, [r3, #0]
 8003938:	009b      	lsls	r3, r3, #2
 800393a:	18d2      	adds	r2, r2, r3
 800393c:	212a      	movs	r1, #42	; 0x2a
 800393e:	187b      	adds	r3, r7, r1
 8003940:	8812      	ldrh	r2, [r2, #0]
 8003942:	801a      	strh	r2, [r3, #0]
 8003944:	187b      	adds	r3, r7, r1
 8003946:	881b      	ldrh	r3, [r3, #0]
 8003948:	2240      	movs	r2, #64	; 0x40
 800394a:	4013      	ands	r3, r2
 800394c:	d016      	beq.n	800397c <USB_DeactivateEndpoint+0x2d4>
 800394e:	687a      	ldr	r2, [r7, #4]
 8003950:	683b      	ldr	r3, [r7, #0]
 8003952:	781b      	ldrb	r3, [r3, #0]
 8003954:	009b      	lsls	r3, r3, #2
 8003956:	18d3      	adds	r3, r2, r3
 8003958:	881b      	ldrh	r3, [r3, #0]
 800395a:	b29a      	uxth	r2, r3
 800395c:	2028      	movs	r0, #40	; 0x28
 800395e:	183b      	adds	r3, r7, r0
 8003960:	492b      	ldr	r1, [pc, #172]	; (8003a10 <USB_DeactivateEndpoint+0x368>)
 8003962:	400a      	ands	r2, r1
 8003964:	801a      	strh	r2, [r3, #0]
 8003966:	687a      	ldr	r2, [r7, #4]
 8003968:	683b      	ldr	r3, [r7, #0]
 800396a:	781b      	ldrb	r3, [r3, #0]
 800396c:	009b      	lsls	r3, r3, #2
 800396e:	18d3      	adds	r3, r2, r3
 8003970:	183a      	adds	r2, r7, r0
 8003972:	8812      	ldrh	r2, [r2, #0]
 8003974:	4927      	ldr	r1, [pc, #156]	; (8003a14 <USB_DeactivateEndpoint+0x36c>)
 8003976:	430a      	orrs	r2, r1
 8003978:	b292      	uxth	r2, r2
 800397a:	801a      	strh	r2, [r3, #0]
      PCD_RX_DTOG(USBx, ep->num);
 800397c:	687a      	ldr	r2, [r7, #4]
 800397e:	683b      	ldr	r3, [r7, #0]
 8003980:	781b      	ldrb	r3, [r3, #0]
 8003982:	009b      	lsls	r3, r3, #2
 8003984:	18d3      	adds	r3, r2, r3
 8003986:	881b      	ldrh	r3, [r3, #0]
 8003988:	b29a      	uxth	r2, r3
 800398a:	2026      	movs	r0, #38	; 0x26
 800398c:	183b      	adds	r3, r7, r0
 800398e:	4920      	ldr	r1, [pc, #128]	; (8003a10 <USB_DeactivateEndpoint+0x368>)
 8003990:	400a      	ands	r2, r1
 8003992:	801a      	strh	r2, [r3, #0]
 8003994:	687a      	ldr	r2, [r7, #4]
 8003996:	683b      	ldr	r3, [r7, #0]
 8003998:	781b      	ldrb	r3, [r3, #0]
 800399a:	009b      	lsls	r3, r3, #2
 800399c:	18d3      	adds	r3, r2, r3
 800399e:	183a      	adds	r2, r7, r0
 80039a0:	8812      	ldrh	r2, [r2, #0]
 80039a2:	491f      	ldr	r1, [pc, #124]	; (8003a20 <USB_DeactivateEndpoint+0x378>)
 80039a4:	430a      	orrs	r2, r1
 80039a6:	b292      	uxth	r2, r2
 80039a8:	801a      	strh	r2, [r3, #0]

      /* Configure DISABLE status for the Endpoint*/
      PCD_SET_EP_TX_STATUS(USBx, ep->num, USB_EP_TX_DIS);
 80039aa:	687a      	ldr	r2, [r7, #4]
 80039ac:	683b      	ldr	r3, [r7, #0]
 80039ae:	781b      	ldrb	r3, [r3, #0]
 80039b0:	009b      	lsls	r3, r3, #2
 80039b2:	18d3      	adds	r3, r2, r3
 80039b4:	881b      	ldrh	r3, [r3, #0]
 80039b6:	b29a      	uxth	r2, r3
 80039b8:	2024      	movs	r0, #36	; 0x24
 80039ba:	183b      	adds	r3, r7, r0
 80039bc:	4916      	ldr	r1, [pc, #88]	; (8003a18 <USB_DeactivateEndpoint+0x370>)
 80039be:	400a      	ands	r2, r1
 80039c0:	801a      	strh	r2, [r3, #0]
 80039c2:	687a      	ldr	r2, [r7, #4]
 80039c4:	683b      	ldr	r3, [r7, #0]
 80039c6:	781b      	ldrb	r3, [r3, #0]
 80039c8:	009b      	lsls	r3, r3, #2
 80039ca:	18d3      	adds	r3, r2, r3
 80039cc:	183a      	adds	r2, r7, r0
 80039ce:	8812      	ldrh	r2, [r2, #0]
 80039d0:	4912      	ldr	r1, [pc, #72]	; (8003a1c <USB_DeactivateEndpoint+0x374>)
 80039d2:	430a      	orrs	r2, r1
 80039d4:	b292      	uxth	r2, r2
 80039d6:	801a      	strh	r2, [r3, #0]
      PCD_SET_EP_RX_STATUS(USBx, ep->num, USB_EP_RX_DIS);
 80039d8:	687a      	ldr	r2, [r7, #4]
 80039da:	683b      	ldr	r3, [r7, #0]
 80039dc:	781b      	ldrb	r3, [r3, #0]
 80039de:	009b      	lsls	r3, r3, #2
 80039e0:	18d3      	adds	r3, r2, r3
 80039e2:	881b      	ldrh	r3, [r3, #0]
 80039e4:	b29a      	uxth	r2, r3
 80039e6:	2022      	movs	r0, #34	; 0x22
 80039e8:	183b      	adds	r3, r7, r0
 80039ea:	490e      	ldr	r1, [pc, #56]	; (8003a24 <USB_DeactivateEndpoint+0x37c>)
 80039ec:	400a      	ands	r2, r1
 80039ee:	801a      	strh	r2, [r3, #0]
 80039f0:	687a      	ldr	r2, [r7, #4]
 80039f2:	683b      	ldr	r3, [r7, #0]
 80039f4:	781b      	ldrb	r3, [r3, #0]
 80039f6:	009b      	lsls	r3, r3, #2
 80039f8:	18d3      	adds	r3, r2, r3
 80039fa:	183a      	adds	r2, r7, r0
 80039fc:	8812      	ldrh	r2, [r2, #0]
 80039fe:	4907      	ldr	r1, [pc, #28]	; (8003a1c <USB_DeactivateEndpoint+0x374>)
 8003a00:	430a      	orrs	r2, r1
 8003a02:	b292      	uxth	r2, r2
 8003a04:	801a      	strh	r2, [r3, #0]
    }
  }
#endif /* (USE_USB_DOUBLE_BUFFER == 1U) */

  return HAL_OK;
 8003a06:	2300      	movs	r3, #0
}
 8003a08:	0018      	movs	r0, r3
 8003a0a:	46bd      	mov	sp, r7
 8003a0c:	b00c      	add	sp, #48	; 0x30
 8003a0e:	bd80      	pop	{r7, pc}
 8003a10:	ffff8f8f 	.word	0xffff8f8f
 8003a14:	ffff80c0 	.word	0xffff80c0
 8003a18:	ffff8fbf 	.word	0xffff8fbf
 8003a1c:	ffff8080 	.word	0xffff8080
 8003a20:	ffffc080 	.word	0xffffc080
 8003a24:	ffffbf8f 	.word	0xffffbf8f

08003a28 <USB_EPStartXfer>:
  * @param  USBx Selected device
  * @param  ep pointer to endpoint structure
  * @retval HAL status
  */
HAL_StatusTypeDef USB_EPStartXfer(USB_TypeDef *USBx, USB_EPTypeDef *ep)
{
 8003a28:	b590      	push	{r4, r7, lr}
 8003a2a:	b0c3      	sub	sp, #268	; 0x10c
 8003a2c:	af00      	add	r7, sp, #0
 8003a2e:	6078      	str	r0, [r7, #4]
 8003a30:	6039      	str	r1, [r7, #0]
  uint16_t pmabuffer;
  uint16_t wEPVal;
#endif /* (USE_USB_DOUBLE_BUFFER == 1U) */

  /* IN endpoint */
  if (ep->is_in == 1U)
 8003a32:	683b      	ldr	r3, [r7, #0]
 8003a34:	785b      	ldrb	r3, [r3, #1]
 8003a36:	2b01      	cmp	r3, #1
 8003a38:	d001      	beq.n	8003a3e <USB_EPStartXfer+0x16>
 8003a3a:	f000 fd2d 	bl	8004498 <USB_EPStartXfer+0xa70>
  {
    /*Multi packet transfer*/
    if (ep->xfer_len > ep->maxpacket)
 8003a3e:	683b      	ldr	r3, [r7, #0]
 8003a40:	699a      	ldr	r2, [r3, #24]
 8003a42:	683b      	ldr	r3, [r7, #0]
 8003a44:	691b      	ldr	r3, [r3, #16]
 8003a46:	429a      	cmp	r2, r3
 8003a48:	d905      	bls.n	8003a56 <USB_EPStartXfer+0x2e>
    {
      len = ep->maxpacket;
 8003a4a:	683b      	ldr	r3, [r7, #0]
 8003a4c:	691b      	ldr	r3, [r3, #16]
 8003a4e:	1d7a      	adds	r2, r7, #5
 8003a50:	32ff      	adds	r2, #255	; 0xff
 8003a52:	6013      	str	r3, [r2, #0]
 8003a54:	e004      	b.n	8003a60 <USB_EPStartXfer+0x38>
    }
    else
    {
      len = ep->xfer_len;
 8003a56:	683b      	ldr	r3, [r7, #0]
 8003a58:	699b      	ldr	r3, [r3, #24]
 8003a5a:	1d7a      	adds	r2, r7, #5
 8003a5c:	32ff      	adds	r2, #255	; 0xff
 8003a5e:	6013      	str	r3, [r2, #0]
    }

    /* configure and validate Tx endpoint */
    if (ep->doublebuffer == 0U)
 8003a60:	683b      	ldr	r3, [r7, #0]
 8003a62:	7b1b      	ldrb	r3, [r3, #12]
 8003a64:	2b00      	cmp	r3, #0
 8003a66:	d125      	bne.n	8003ab4 <USB_EPStartXfer+0x8c>
    {
      USB_WritePMA(USBx, ep->xfer_buff, ep->pmaadress, (uint16_t)len);
 8003a68:	683b      	ldr	r3, [r7, #0]
 8003a6a:	6959      	ldr	r1, [r3, #20]
 8003a6c:	683b      	ldr	r3, [r7, #0]
 8003a6e:	88da      	ldrh	r2, [r3, #6]
 8003a70:	1d7b      	adds	r3, r7, #5
 8003a72:	33ff      	adds	r3, #255	; 0xff
 8003a74:	681b      	ldr	r3, [r3, #0]
 8003a76:	b29b      	uxth	r3, r3
 8003a78:	6878      	ldr	r0, [r7, #4]
 8003a7a:	f001 fa47 	bl	8004f0c <USB_WritePMA>
      PCD_SET_EP_TX_CNT(USBx, ep->num, len);
 8003a7e:	687b      	ldr	r3, [r7, #4]
 8003a80:	613b      	str	r3, [r7, #16]
 8003a82:	687b      	ldr	r3, [r7, #4]
 8003a84:	2250      	movs	r2, #80	; 0x50
 8003a86:	5a9b      	ldrh	r3, [r3, r2]
 8003a88:	b29b      	uxth	r3, r3
 8003a8a:	001a      	movs	r2, r3
 8003a8c:	693b      	ldr	r3, [r7, #16]
 8003a8e:	189b      	adds	r3, r3, r2
 8003a90:	613b      	str	r3, [r7, #16]
 8003a92:	683b      	ldr	r3, [r7, #0]
 8003a94:	781b      	ldrb	r3, [r3, #0]
 8003a96:	00da      	lsls	r2, r3, #3
 8003a98:	693b      	ldr	r3, [r7, #16]
 8003a9a:	18d3      	adds	r3, r2, r3
 8003a9c:	4ad7      	ldr	r2, [pc, #860]	; (8003dfc <USB_EPStartXfer+0x3d4>)
 8003a9e:	4694      	mov	ip, r2
 8003aa0:	4463      	add	r3, ip
 8003aa2:	60fb      	str	r3, [r7, #12]
 8003aa4:	1d7b      	adds	r3, r7, #5
 8003aa6:	33ff      	adds	r3, #255	; 0xff
 8003aa8:	681b      	ldr	r3, [r3, #0]
 8003aaa:	b29a      	uxth	r2, r3
 8003aac:	68fb      	ldr	r3, [r7, #12]
 8003aae:	801a      	strh	r2, [r3, #0]
 8003ab0:	f000 fccd 	bl	800444e <USB_EPStartXfer+0xa26>
    }
#if (USE_USB_DOUBLE_BUFFER == 1U)
    else
    {
      /* double buffer bulk management */
      if (ep->type == EP_TYPE_BULK)
 8003ab4:	683b      	ldr	r3, [r7, #0]
 8003ab6:	78db      	ldrb	r3, [r3, #3]
 8003ab8:	2b02      	cmp	r3, #2
 8003aba:	d000      	beq.n	8003abe <USB_EPStartXfer+0x96>
 8003abc:	e362      	b.n	8004184 <USB_EPStartXfer+0x75c>
      {
        if (ep->xfer_len_db > ep->maxpacket)
 8003abe:	683b      	ldr	r3, [r7, #0]
 8003ac0:	6a1a      	ldr	r2, [r3, #32]
 8003ac2:	683b      	ldr	r3, [r7, #0]
 8003ac4:	691b      	ldr	r3, [r3, #16]
 8003ac6:	429a      	cmp	r2, r3
 8003ac8:	d800      	bhi.n	8003acc <USB_EPStartXfer+0xa4>
 8003aca:	e309      	b.n	80040e0 <USB_EPStartXfer+0x6b8>
        {
          /* enable double buffer */
          PCD_SET_BULK_EP_DBUF(USBx, ep->num);
 8003acc:	687a      	ldr	r2, [r7, #4]
 8003ace:	683b      	ldr	r3, [r7, #0]
 8003ad0:	781b      	ldrb	r3, [r3, #0]
 8003ad2:	009b      	lsls	r3, r3, #2
 8003ad4:	18d3      	adds	r3, r2, r3
 8003ad6:	881b      	ldrh	r3, [r3, #0]
 8003ad8:	b29a      	uxth	r2, r3
 8003ada:	2056      	movs	r0, #86	; 0x56
 8003adc:	183b      	adds	r3, r7, r0
 8003ade:	49c8      	ldr	r1, [pc, #800]	; (8003e00 <USB_EPStartXfer+0x3d8>)
 8003ae0:	400a      	ands	r2, r1
 8003ae2:	801a      	strh	r2, [r3, #0]
 8003ae4:	687a      	ldr	r2, [r7, #4]
 8003ae6:	683b      	ldr	r3, [r7, #0]
 8003ae8:	781b      	ldrb	r3, [r3, #0]
 8003aea:	009b      	lsls	r3, r3, #2
 8003aec:	18d3      	adds	r3, r2, r3
 8003aee:	183a      	adds	r2, r7, r0
 8003af0:	8812      	ldrh	r2, [r2, #0]
 8003af2:	49c4      	ldr	r1, [pc, #784]	; (8003e04 <USB_EPStartXfer+0x3dc>)
 8003af4:	430a      	orrs	r2, r1
 8003af6:	b292      	uxth	r2, r2
 8003af8:	801a      	strh	r2, [r3, #0]

          /* each Time to write in PMA xfer_len_db will */
          ep->xfer_len_db -= len;
 8003afa:	683b      	ldr	r3, [r7, #0]
 8003afc:	6a1a      	ldr	r2, [r3, #32]
 8003afe:	1d7b      	adds	r3, r7, #5
 8003b00:	33ff      	adds	r3, #255	; 0xff
 8003b02:	681b      	ldr	r3, [r3, #0]
 8003b04:	1ad2      	subs	r2, r2, r3
 8003b06:	683b      	ldr	r3, [r7, #0]
 8003b08:	621a      	str	r2, [r3, #32]

          /* Fill the two first buffer in the Buffer0 & Buffer1 */
          if ((PCD_GET_ENDPOINT(USBx, ep->num) & USB_EP_DTOG_TX) != 0U)
 8003b0a:	687a      	ldr	r2, [r7, #4]
 8003b0c:	683b      	ldr	r3, [r7, #0]
 8003b0e:	781b      	ldrb	r3, [r3, #0]
 8003b10:	009b      	lsls	r3, r3, #2
 8003b12:	18d3      	adds	r3, r2, r3
 8003b14:	881b      	ldrh	r3, [r3, #0]
 8003b16:	b29b      	uxth	r3, r3
 8003b18:	001a      	movs	r2, r3
 8003b1a:	2340      	movs	r3, #64	; 0x40
 8003b1c:	4013      	ands	r3, r2
 8003b1e:	d100      	bne.n	8003b22 <USB_EPStartXfer+0xfa>
 8003b20:	e176      	b.n	8003e10 <USB_EPStartXfer+0x3e8>
          {
            /* Set the Double buffer counter for pmabuffer1 */
            PCD_SET_EP_DBUF1_CNT(USBx, ep->num, ep->is_in, len);
 8003b22:	687b      	ldr	r3, [r7, #4]
 8003b24:	633b      	str	r3, [r7, #48]	; 0x30
 8003b26:	683b      	ldr	r3, [r7, #0]
 8003b28:	785b      	ldrb	r3, [r3, #1]
 8003b2a:	2b00      	cmp	r3, #0
 8003b2c:	d000      	beq.n	8003b30 <USB_EPStartXfer+0x108>
 8003b2e:	e074      	b.n	8003c1a <USB_EPStartXfer+0x1f2>
 8003b30:	687b      	ldr	r3, [r7, #4]
 8003b32:	62bb      	str	r3, [r7, #40]	; 0x28
 8003b34:	687b      	ldr	r3, [r7, #4]
 8003b36:	2250      	movs	r2, #80	; 0x50
 8003b38:	5a9b      	ldrh	r3, [r3, r2]
 8003b3a:	b29b      	uxth	r3, r3
 8003b3c:	001a      	movs	r2, r3
 8003b3e:	6abb      	ldr	r3, [r7, #40]	; 0x28
 8003b40:	189b      	adds	r3, r3, r2
 8003b42:	62bb      	str	r3, [r7, #40]	; 0x28
 8003b44:	683b      	ldr	r3, [r7, #0]
 8003b46:	781b      	ldrb	r3, [r3, #0]
 8003b48:	00da      	lsls	r2, r3, #3
 8003b4a:	6abb      	ldr	r3, [r7, #40]	; 0x28
 8003b4c:	18d3      	adds	r3, r2, r3
 8003b4e:	4aae      	ldr	r2, [pc, #696]	; (8003e08 <USB_EPStartXfer+0x3e0>)
 8003b50:	4694      	mov	ip, r2
 8003b52:	4463      	add	r3, ip
 8003b54:	627b      	str	r3, [r7, #36]	; 0x24
 8003b56:	6a7b      	ldr	r3, [r7, #36]	; 0x24
 8003b58:	881b      	ldrh	r3, [r3, #0]
 8003b5a:	b29b      	uxth	r3, r3
 8003b5c:	059b      	lsls	r3, r3, #22
 8003b5e:	0d9b      	lsrs	r3, r3, #22
 8003b60:	b29a      	uxth	r2, r3
 8003b62:	6a7b      	ldr	r3, [r7, #36]	; 0x24
 8003b64:	801a      	strh	r2, [r3, #0]
 8003b66:	1d7b      	adds	r3, r7, #5
 8003b68:	33ff      	adds	r3, #255	; 0xff
 8003b6a:	681b      	ldr	r3, [r3, #0]
 8003b6c:	2b3e      	cmp	r3, #62	; 0x3e
 8003b6e:	d924      	bls.n	8003bba <USB_EPStartXfer+0x192>
 8003b70:	1d7b      	adds	r3, r7, #5
 8003b72:	33ff      	adds	r3, #255	; 0xff
 8003b74:	681b      	ldr	r3, [r3, #0]
 8003b76:	095b      	lsrs	r3, r3, #5
 8003b78:	1c7a      	adds	r2, r7, #1
 8003b7a:	32ff      	adds	r2, #255	; 0xff
 8003b7c:	6013      	str	r3, [r2, #0]
 8003b7e:	1d7b      	adds	r3, r7, #5
 8003b80:	33ff      	adds	r3, #255	; 0xff
 8003b82:	681b      	ldr	r3, [r3, #0]
 8003b84:	221f      	movs	r2, #31
 8003b86:	4013      	ands	r3, r2
 8003b88:	d106      	bne.n	8003b98 <USB_EPStartXfer+0x170>
 8003b8a:	1c7b      	adds	r3, r7, #1
 8003b8c:	33ff      	adds	r3, #255	; 0xff
 8003b8e:	681b      	ldr	r3, [r3, #0]
 8003b90:	3b01      	subs	r3, #1
 8003b92:	1c7a      	adds	r2, r7, #1
 8003b94:	32ff      	adds	r2, #255	; 0xff
 8003b96:	6013      	str	r3, [r2, #0]
 8003b98:	6a7b      	ldr	r3, [r7, #36]	; 0x24
 8003b9a:	881b      	ldrh	r3, [r3, #0]
 8003b9c:	b29a      	uxth	r2, r3
 8003b9e:	1c7b      	adds	r3, r7, #1
 8003ba0:	33ff      	adds	r3, #255	; 0xff
 8003ba2:	681b      	ldr	r3, [r3, #0]
 8003ba4:	b29b      	uxth	r3, r3
 8003ba6:	029b      	lsls	r3, r3, #10
 8003ba8:	b29b      	uxth	r3, r3
 8003baa:	4313      	orrs	r3, r2
 8003bac:	b29b      	uxth	r3, r3
 8003bae:	4a97      	ldr	r2, [pc, #604]	; (8003e0c <USB_EPStartXfer+0x3e4>)
 8003bb0:	4313      	orrs	r3, r2
 8003bb2:	b29a      	uxth	r2, r3
 8003bb4:	6a7b      	ldr	r3, [r7, #36]	; 0x24
 8003bb6:	801a      	strh	r2, [r3, #0]
 8003bb8:	e04a      	b.n	8003c50 <USB_EPStartXfer+0x228>
 8003bba:	1d7b      	adds	r3, r7, #5
 8003bbc:	33ff      	adds	r3, #255	; 0xff
 8003bbe:	681b      	ldr	r3, [r3, #0]
 8003bc0:	2b00      	cmp	r3, #0
 8003bc2:	d108      	bne.n	8003bd6 <USB_EPStartXfer+0x1ae>
 8003bc4:	6a7b      	ldr	r3, [r7, #36]	; 0x24
 8003bc6:	881b      	ldrh	r3, [r3, #0]
 8003bc8:	b29b      	uxth	r3, r3
 8003bca:	4a90      	ldr	r2, [pc, #576]	; (8003e0c <USB_EPStartXfer+0x3e4>)
 8003bcc:	4313      	orrs	r3, r2
 8003bce:	b29a      	uxth	r2, r3
 8003bd0:	6a7b      	ldr	r3, [r7, #36]	; 0x24
 8003bd2:	801a      	strh	r2, [r3, #0]
 8003bd4:	e03c      	b.n	8003c50 <USB_EPStartXfer+0x228>
 8003bd6:	1d7b      	adds	r3, r7, #5
 8003bd8:	33ff      	adds	r3, #255	; 0xff
 8003bda:	681b      	ldr	r3, [r3, #0]
 8003bdc:	085b      	lsrs	r3, r3, #1
 8003bde:	1c7a      	adds	r2, r7, #1
 8003be0:	32ff      	adds	r2, #255	; 0xff
 8003be2:	6013      	str	r3, [r2, #0]
 8003be4:	1d7b      	adds	r3, r7, #5
 8003be6:	33ff      	adds	r3, #255	; 0xff
 8003be8:	681b      	ldr	r3, [r3, #0]
 8003bea:	2201      	movs	r2, #1
 8003bec:	4013      	ands	r3, r2
 8003bee:	d006      	beq.n	8003bfe <USB_EPStartXfer+0x1d6>
 8003bf0:	1c7b      	adds	r3, r7, #1
 8003bf2:	33ff      	adds	r3, #255	; 0xff
 8003bf4:	681b      	ldr	r3, [r3, #0]
 8003bf6:	3301      	adds	r3, #1
 8003bf8:	1c7a      	adds	r2, r7, #1
 8003bfa:	32ff      	adds	r2, #255	; 0xff
 8003bfc:	6013      	str	r3, [r2, #0]
 8003bfe:	6a7b      	ldr	r3, [r7, #36]	; 0x24
 8003c00:	881b      	ldrh	r3, [r3, #0]
 8003c02:	b29a      	uxth	r2, r3
 8003c04:	1c7b      	adds	r3, r7, #1
 8003c06:	33ff      	adds	r3, #255	; 0xff
 8003c08:	681b      	ldr	r3, [r3, #0]
 8003c0a:	b29b      	uxth	r3, r3
 8003c0c:	029b      	lsls	r3, r3, #10
 8003c0e:	b29b      	uxth	r3, r3
 8003c10:	4313      	orrs	r3, r2
 8003c12:	b29a      	uxth	r2, r3
 8003c14:	6a7b      	ldr	r3, [r7, #36]	; 0x24
 8003c16:	801a      	strh	r2, [r3, #0]
 8003c18:	e01a      	b.n	8003c50 <USB_EPStartXfer+0x228>
 8003c1a:	683b      	ldr	r3, [r7, #0]
 8003c1c:	785b      	ldrb	r3, [r3, #1]
 8003c1e:	2b01      	cmp	r3, #1
 8003c20:	d116      	bne.n	8003c50 <USB_EPStartXfer+0x228>
 8003c22:	687b      	ldr	r3, [r7, #4]
 8003c24:	2250      	movs	r2, #80	; 0x50
 8003c26:	5a9b      	ldrh	r3, [r3, r2]
 8003c28:	b29b      	uxth	r3, r3
 8003c2a:	001a      	movs	r2, r3
 8003c2c:	6b3b      	ldr	r3, [r7, #48]	; 0x30
 8003c2e:	189b      	adds	r3, r3, r2
 8003c30:	633b      	str	r3, [r7, #48]	; 0x30
 8003c32:	683b      	ldr	r3, [r7, #0]
 8003c34:	781b      	ldrb	r3, [r3, #0]
 8003c36:	00da      	lsls	r2, r3, #3
 8003c38:	6b3b      	ldr	r3, [r7, #48]	; 0x30
 8003c3a:	18d3      	adds	r3, r2, r3
 8003c3c:	4a72      	ldr	r2, [pc, #456]	; (8003e08 <USB_EPStartXfer+0x3e0>)
 8003c3e:	4694      	mov	ip, r2
 8003c40:	4463      	add	r3, ip
 8003c42:	62fb      	str	r3, [r7, #44]	; 0x2c
 8003c44:	1d7b      	adds	r3, r7, #5
 8003c46:	33ff      	adds	r3, #255	; 0xff
 8003c48:	681b      	ldr	r3, [r3, #0]
 8003c4a:	b29a      	uxth	r2, r3
 8003c4c:	6afb      	ldr	r3, [r7, #44]	; 0x2c
 8003c4e:	801a      	strh	r2, [r3, #0]
            pmabuffer = ep->pmaaddr1;
 8003c50:	2076      	movs	r0, #118	; 0x76
 8003c52:	183b      	adds	r3, r7, r0
 8003c54:	683a      	ldr	r2, [r7, #0]
 8003c56:	8952      	ldrh	r2, [r2, #10]
 8003c58:	801a      	strh	r2, [r3, #0]

            /* Write the user buffer to USB PMA */
            USB_WritePMA(USBx, ep->xfer_buff, pmabuffer, (uint16_t)len);
 8003c5a:	683b      	ldr	r3, [r7, #0]
 8003c5c:	6959      	ldr	r1, [r3, #20]
 8003c5e:	1d7b      	adds	r3, r7, #5
 8003c60:	33ff      	adds	r3, #255	; 0xff
 8003c62:	681b      	ldr	r3, [r3, #0]
 8003c64:	b29c      	uxth	r4, r3
 8003c66:	183b      	adds	r3, r7, r0
 8003c68:	881a      	ldrh	r2, [r3, #0]
 8003c6a:	6878      	ldr	r0, [r7, #4]
 8003c6c:	0023      	movs	r3, r4
 8003c6e:	f001 f94d 	bl	8004f0c <USB_WritePMA>
            ep->xfer_buff += len;
 8003c72:	683b      	ldr	r3, [r7, #0]
 8003c74:	695a      	ldr	r2, [r3, #20]
 8003c76:	1d7b      	adds	r3, r7, #5
 8003c78:	33ff      	adds	r3, #255	; 0xff
 8003c7a:	681b      	ldr	r3, [r3, #0]
 8003c7c:	18d2      	adds	r2, r2, r3
 8003c7e:	683b      	ldr	r3, [r7, #0]
 8003c80:	615a      	str	r2, [r3, #20]

            if (ep->xfer_len_db > ep->maxpacket)
 8003c82:	683b      	ldr	r3, [r7, #0]
 8003c84:	6a1a      	ldr	r2, [r3, #32]
 8003c86:	683b      	ldr	r3, [r7, #0]
 8003c88:	691b      	ldr	r3, [r3, #16]
 8003c8a:	429a      	cmp	r2, r3
 8003c8c:	d908      	bls.n	8003ca0 <USB_EPStartXfer+0x278>
            {
              ep->xfer_len_db -= len;
 8003c8e:	683b      	ldr	r3, [r7, #0]
 8003c90:	6a1a      	ldr	r2, [r3, #32]
 8003c92:	1d7b      	adds	r3, r7, #5
 8003c94:	33ff      	adds	r3, #255	; 0xff
 8003c96:	681b      	ldr	r3, [r3, #0]
 8003c98:	1ad2      	subs	r2, r2, r3
 8003c9a:	683b      	ldr	r3, [r7, #0]
 8003c9c:	621a      	str	r2, [r3, #32]
 8003c9e:	e007      	b.n	8003cb0 <USB_EPStartXfer+0x288>
            }
            else
            {
              len = ep->xfer_len_db;
 8003ca0:	683b      	ldr	r3, [r7, #0]
 8003ca2:	6a1b      	ldr	r3, [r3, #32]
 8003ca4:	1d7a      	adds	r2, r7, #5
 8003ca6:	32ff      	adds	r2, #255	; 0xff
 8003ca8:	6013      	str	r3, [r2, #0]
              ep->xfer_len_db = 0U;
 8003caa:	683b      	ldr	r3, [r7, #0]
 8003cac:	2200      	movs	r2, #0
 8003cae:	621a      	str	r2, [r3, #32]
            }

            /* Set the Double buffer counter for pmabuffer0 */
            PCD_SET_EP_DBUF0_CNT(USBx, ep->num, ep->is_in, len);
 8003cb0:	683b      	ldr	r3, [r7, #0]
 8003cb2:	785b      	ldrb	r3, [r3, #1]
 8003cb4:	2b00      	cmp	r3, #0
 8003cb6:	d000      	beq.n	8003cba <USB_EPStartXfer+0x292>
 8003cb8:	e070      	b.n	8003d9c <USB_EPStartXfer+0x374>
 8003cba:	687b      	ldr	r3, [r7, #4]
 8003cbc:	61bb      	str	r3, [r7, #24]
 8003cbe:	687b      	ldr	r3, [r7, #4]
 8003cc0:	2250      	movs	r2, #80	; 0x50
 8003cc2:	5a9b      	ldrh	r3, [r3, r2]
 8003cc4:	b29b      	uxth	r3, r3
 8003cc6:	001a      	movs	r2, r3
 8003cc8:	69bb      	ldr	r3, [r7, #24]
 8003cca:	189b      	adds	r3, r3, r2
 8003ccc:	61bb      	str	r3, [r7, #24]
 8003cce:	683b      	ldr	r3, [r7, #0]
 8003cd0:	781b      	ldrb	r3, [r3, #0]
 8003cd2:	00da      	lsls	r2, r3, #3
 8003cd4:	69bb      	ldr	r3, [r7, #24]
 8003cd6:	18d3      	adds	r3, r2, r3
 8003cd8:	4a48      	ldr	r2, [pc, #288]	; (8003dfc <USB_EPStartXfer+0x3d4>)
 8003cda:	4694      	mov	ip, r2
 8003cdc:	4463      	add	r3, ip
 8003cde:	617b      	str	r3, [r7, #20]
 8003ce0:	697b      	ldr	r3, [r7, #20]
 8003ce2:	881b      	ldrh	r3, [r3, #0]
 8003ce4:	b29b      	uxth	r3, r3
 8003ce6:	059b      	lsls	r3, r3, #22
 8003ce8:	0d9b      	lsrs	r3, r3, #22
 8003cea:	b29a      	uxth	r2, r3
 8003cec:	697b      	ldr	r3, [r7, #20]
 8003cee:	801a      	strh	r2, [r3, #0]
 8003cf0:	1d7b      	adds	r3, r7, #5
 8003cf2:	33ff      	adds	r3, #255	; 0xff
 8003cf4:	681b      	ldr	r3, [r3, #0]
 8003cf6:	2b3e      	cmp	r3, #62	; 0x3e
 8003cf8:	d922      	bls.n	8003d40 <USB_EPStartXfer+0x318>
 8003cfa:	1d7b      	adds	r3, r7, #5
 8003cfc:	33ff      	adds	r3, #255	; 0xff
 8003cfe:	681b      	ldr	r3, [r3, #0]
 8003d00:	095b      	lsrs	r3, r3, #5
 8003d02:	21fc      	movs	r1, #252	; 0xfc
 8003d04:	187a      	adds	r2, r7, r1
 8003d06:	6013      	str	r3, [r2, #0]
 8003d08:	1d7b      	adds	r3, r7, #5
 8003d0a:	33ff      	adds	r3, #255	; 0xff
 8003d0c:	681b      	ldr	r3, [r3, #0]
 8003d0e:	221f      	movs	r2, #31
 8003d10:	4013      	ands	r3, r2
 8003d12:	d104      	bne.n	8003d1e <USB_EPStartXfer+0x2f6>
 8003d14:	187b      	adds	r3, r7, r1
 8003d16:	681b      	ldr	r3, [r3, #0]
 8003d18:	3b01      	subs	r3, #1
 8003d1a:	187a      	adds	r2, r7, r1
 8003d1c:	6013      	str	r3, [r2, #0]
 8003d1e:	697b      	ldr	r3, [r7, #20]
 8003d20:	881b      	ldrh	r3, [r3, #0]
 8003d22:	b29a      	uxth	r2, r3
 8003d24:	23fc      	movs	r3, #252	; 0xfc
 8003d26:	18fb      	adds	r3, r7, r3
 8003d28:	681b      	ldr	r3, [r3, #0]
 8003d2a:	b29b      	uxth	r3, r3
 8003d2c:	029b      	lsls	r3, r3, #10
 8003d2e:	b29b      	uxth	r3, r3
 8003d30:	4313      	orrs	r3, r2
 8003d32:	b29b      	uxth	r3, r3
 8003d34:	4a35      	ldr	r2, [pc, #212]	; (8003e0c <USB_EPStartXfer+0x3e4>)
 8003d36:	4313      	orrs	r3, r2
 8003d38:	b29a      	uxth	r2, r3
 8003d3a:	697b      	ldr	r3, [r7, #20]
 8003d3c:	801a      	strh	r2, [r3, #0]
 8003d3e:	e04a      	b.n	8003dd6 <USB_EPStartXfer+0x3ae>
 8003d40:	1d7b      	adds	r3, r7, #5
 8003d42:	33ff      	adds	r3, #255	; 0xff
 8003d44:	681b      	ldr	r3, [r3, #0]
 8003d46:	2b00      	cmp	r3, #0
 8003d48:	d108      	bne.n	8003d5c <USB_EPStartXfer+0x334>
 8003d4a:	697b      	ldr	r3, [r7, #20]
 8003d4c:	881b      	ldrh	r3, [r3, #0]
 8003d4e:	b29b      	uxth	r3, r3
 8003d50:	4a2e      	ldr	r2, [pc, #184]	; (8003e0c <USB_EPStartXfer+0x3e4>)
 8003d52:	4313      	orrs	r3, r2
 8003d54:	b29a      	uxth	r2, r3
 8003d56:	697b      	ldr	r3, [r7, #20]
 8003d58:	801a      	strh	r2, [r3, #0]
 8003d5a:	e03c      	b.n	8003dd6 <USB_EPStartXfer+0x3ae>
 8003d5c:	1d7b      	adds	r3, r7, #5
 8003d5e:	33ff      	adds	r3, #255	; 0xff
 8003d60:	681b      	ldr	r3, [r3, #0]
 8003d62:	085b      	lsrs	r3, r3, #1
 8003d64:	21fc      	movs	r1, #252	; 0xfc
 8003d66:	187a      	adds	r2, r7, r1
 8003d68:	6013      	str	r3, [r2, #0]
 8003d6a:	1d7b      	adds	r3, r7, #5
 8003d6c:	33ff      	adds	r3, #255	; 0xff
 8003d6e:	681b      	ldr	r3, [r3, #0]
 8003d70:	2201      	movs	r2, #1
 8003d72:	4013      	ands	r3, r2
 8003d74:	d004      	beq.n	8003d80 <USB_EPStartXfer+0x358>
 8003d76:	187b      	adds	r3, r7, r1
 8003d78:	681b      	ldr	r3, [r3, #0]
 8003d7a:	3301      	adds	r3, #1
 8003d7c:	187a      	adds	r2, r7, r1
 8003d7e:	6013      	str	r3, [r2, #0]
 8003d80:	697b      	ldr	r3, [r7, #20]
 8003d82:	881b      	ldrh	r3, [r3, #0]
 8003d84:	b29a      	uxth	r2, r3
 8003d86:	23fc      	movs	r3, #252	; 0xfc
 8003d88:	18fb      	adds	r3, r7, r3
 8003d8a:	681b      	ldr	r3, [r3, #0]
 8003d8c:	b29b      	uxth	r3, r3
 8003d8e:	029b      	lsls	r3, r3, #10
 8003d90:	b29b      	uxth	r3, r3
 8003d92:	4313      	orrs	r3, r2
 8003d94:	b29a      	uxth	r2, r3
 8003d96:	697b      	ldr	r3, [r7, #20]
 8003d98:	801a      	strh	r2, [r3, #0]
 8003d9a:	e01c      	b.n	8003dd6 <USB_EPStartXfer+0x3ae>
 8003d9c:	683b      	ldr	r3, [r7, #0]
 8003d9e:	785b      	ldrb	r3, [r3, #1]
 8003da0:	2b01      	cmp	r3, #1
 8003da2:	d118      	bne.n	8003dd6 <USB_EPStartXfer+0x3ae>
 8003da4:	687b      	ldr	r3, [r7, #4]
 8003da6:	623b      	str	r3, [r7, #32]
 8003da8:	687b      	ldr	r3, [r7, #4]
 8003daa:	2250      	movs	r2, #80	; 0x50
 8003dac:	5a9b      	ldrh	r3, [r3, r2]
 8003dae:	b29b      	uxth	r3, r3
 8003db0:	001a      	movs	r2, r3
 8003db2:	6a3b      	ldr	r3, [r7, #32]
 8003db4:	189b      	adds	r3, r3, r2
 8003db6:	623b      	str	r3, [r7, #32]
 8003db8:	683b      	ldr	r3, [r7, #0]
 8003dba:	781b      	ldrb	r3, [r3, #0]
 8003dbc:	00da      	lsls	r2, r3, #3
 8003dbe:	6a3b      	ldr	r3, [r7, #32]
 8003dc0:	18d3      	adds	r3, r2, r3
 8003dc2:	4a0e      	ldr	r2, [pc, #56]	; (8003dfc <USB_EPStartXfer+0x3d4>)
 8003dc4:	4694      	mov	ip, r2
 8003dc6:	4463      	add	r3, ip
 8003dc8:	61fb      	str	r3, [r7, #28]
 8003dca:	1d7b      	adds	r3, r7, #5
 8003dcc:	33ff      	adds	r3, #255	; 0xff
 8003dce:	681b      	ldr	r3, [r3, #0]
 8003dd0:	b29a      	uxth	r2, r3
 8003dd2:	69fb      	ldr	r3, [r7, #28]
 8003dd4:	801a      	strh	r2, [r3, #0]
            pmabuffer = ep->pmaaddr0;
 8003dd6:	2076      	movs	r0, #118	; 0x76
 8003dd8:	183b      	adds	r3, r7, r0
 8003dda:	683a      	ldr	r2, [r7, #0]
 8003ddc:	8912      	ldrh	r2, [r2, #8]
 8003dde:	801a      	strh	r2, [r3, #0]

            /* Write the user buffer to USB PMA */
            USB_WritePMA(USBx, ep->xfer_buff, pmabuffer, (uint16_t)len);
 8003de0:	683b      	ldr	r3, [r7, #0]
 8003de2:	6959      	ldr	r1, [r3, #20]
 8003de4:	1d7b      	adds	r3, r7, #5
 8003de6:	33ff      	adds	r3, #255	; 0xff
 8003de8:	681b      	ldr	r3, [r3, #0]
 8003dea:	b29c      	uxth	r4, r3
 8003dec:	183b      	adds	r3, r7, r0
 8003dee:	881a      	ldrh	r2, [r3, #0]
 8003df0:	6878      	ldr	r0, [r7, #4]
 8003df2:	0023      	movs	r3, r4
 8003df4:	f001 f88a 	bl	8004f0c <USB_WritePMA>
 8003df8:	e329      	b.n	800444e <USB_EPStartXfer+0xa26>
 8003dfa:	46c0      	nop			; (mov r8, r8)
 8003dfc:	00000402 	.word	0x00000402
 8003e00:	ffff8f8f 	.word	0xffff8f8f
 8003e04:	ffff8180 	.word	0xffff8180
 8003e08:	00000406 	.word	0x00000406
 8003e0c:	ffff8000 	.word	0xffff8000
          }
          else
          {
            /* Set the Double buffer counter for pmabuffer0 */
            PCD_SET_EP_DBUF0_CNT(USBx, ep->num, ep->is_in, len);
 8003e10:	683b      	ldr	r3, [r7, #0]
 8003e12:	785b      	ldrb	r3, [r3, #1]
 8003e14:	2b00      	cmp	r3, #0
 8003e16:	d000      	beq.n	8003e1a <USB_EPStartXfer+0x3f2>
 8003e18:	e070      	b.n	8003efc <USB_EPStartXfer+0x4d4>
 8003e1a:	687b      	ldr	r3, [r7, #4]
 8003e1c:	64bb      	str	r3, [r7, #72]	; 0x48
 8003e1e:	687b      	ldr	r3, [r7, #4]
 8003e20:	2250      	movs	r2, #80	; 0x50
 8003e22:	5a9b      	ldrh	r3, [r3, r2]
 8003e24:	b29b      	uxth	r3, r3
 8003e26:	001a      	movs	r2, r3
 8003e28:	6cbb      	ldr	r3, [r7, #72]	; 0x48
 8003e2a:	189b      	adds	r3, r3, r2
 8003e2c:	64bb      	str	r3, [r7, #72]	; 0x48
 8003e2e:	683b      	ldr	r3, [r7, #0]
 8003e30:	781b      	ldrb	r3, [r3, #0]
 8003e32:	00da      	lsls	r2, r3, #3
 8003e34:	6cbb      	ldr	r3, [r7, #72]	; 0x48
 8003e36:	18d3      	adds	r3, r2, r3
 8003e38:	4acd      	ldr	r2, [pc, #820]	; (8004170 <USB_EPStartXfer+0x748>)
 8003e3a:	4694      	mov	ip, r2
 8003e3c:	4463      	add	r3, ip
 8003e3e:	647b      	str	r3, [r7, #68]	; 0x44
 8003e40:	6c7b      	ldr	r3, [r7, #68]	; 0x44
 8003e42:	881b      	ldrh	r3, [r3, #0]
 8003e44:	b29b      	uxth	r3, r3
 8003e46:	059b      	lsls	r3, r3, #22
 8003e48:	0d9b      	lsrs	r3, r3, #22
 8003e4a:	b29a      	uxth	r2, r3
 8003e4c:	6c7b      	ldr	r3, [r7, #68]	; 0x44
 8003e4e:	801a      	strh	r2, [r3, #0]
 8003e50:	1d7b      	adds	r3, r7, #5
 8003e52:	33ff      	adds	r3, #255	; 0xff
 8003e54:	681b      	ldr	r3, [r3, #0]
 8003e56:	2b3e      	cmp	r3, #62	; 0x3e
 8003e58:	d922      	bls.n	8003ea0 <USB_EPStartXfer+0x478>
 8003e5a:	1d7b      	adds	r3, r7, #5
 8003e5c:	33ff      	adds	r3, #255	; 0xff
 8003e5e:	681b      	ldr	r3, [r3, #0]
 8003e60:	095b      	lsrs	r3, r3, #5
 8003e62:	21f8      	movs	r1, #248	; 0xf8
 8003e64:	187a      	adds	r2, r7, r1
 8003e66:	6013      	str	r3, [r2, #0]
 8003e68:	1d7b      	adds	r3, r7, #5
 8003e6a:	33ff      	adds	r3, #255	; 0xff
 8003e6c:	681b      	ldr	r3, [r3, #0]
 8003e6e:	221f      	movs	r2, #31
 8003e70:	4013      	ands	r3, r2
 8003e72:	d104      	bne.n	8003e7e <USB_EPStartXfer+0x456>
 8003e74:	187b      	adds	r3, r7, r1
 8003e76:	681b      	ldr	r3, [r3, #0]
 8003e78:	3b01      	subs	r3, #1
 8003e7a:	187a      	adds	r2, r7, r1
 8003e7c:	6013      	str	r3, [r2, #0]
 8003e7e:	6c7b      	ldr	r3, [r7, #68]	; 0x44
 8003e80:	881b      	ldrh	r3, [r3, #0]
 8003e82:	b29a      	uxth	r2, r3
 8003e84:	23f8      	movs	r3, #248	; 0xf8
 8003e86:	18fb      	adds	r3, r7, r3
 8003e88:	681b      	ldr	r3, [r3, #0]
 8003e8a:	b29b      	uxth	r3, r3
 8003e8c:	029b      	lsls	r3, r3, #10
 8003e8e:	b29b      	uxth	r3, r3
 8003e90:	4313      	orrs	r3, r2
 8003e92:	b29b      	uxth	r3, r3
 8003e94:	4ab7      	ldr	r2, [pc, #732]	; (8004174 <USB_EPStartXfer+0x74c>)
 8003e96:	4313      	orrs	r3, r2
 8003e98:	b29a      	uxth	r2, r3
 8003e9a:	6c7b      	ldr	r3, [r7, #68]	; 0x44
 8003e9c:	801a      	strh	r2, [r3, #0]
 8003e9e:	e04a      	b.n	8003f36 <USB_EPStartXfer+0x50e>
 8003ea0:	1d7b      	adds	r3, r7, #5
 8003ea2:	33ff      	adds	r3, #255	; 0xff
 8003ea4:	681b      	ldr	r3, [r3, #0]
 8003ea6:	2b00      	cmp	r3, #0
 8003ea8:	d108      	bne.n	8003ebc <USB_EPStartXfer+0x494>
 8003eaa:	6c7b      	ldr	r3, [r7, #68]	; 0x44
 8003eac:	881b      	ldrh	r3, [r3, #0]
 8003eae:	b29b      	uxth	r3, r3
 8003eb0:	4ab0      	ldr	r2, [pc, #704]	; (8004174 <USB_EPStartXfer+0x74c>)
 8003eb2:	4313      	orrs	r3, r2
 8003eb4:	b29a      	uxth	r2, r3
 8003eb6:	6c7b      	ldr	r3, [r7, #68]	; 0x44
 8003eb8:	801a      	strh	r2, [r3, #0]
 8003eba:	e03c      	b.n	8003f36 <USB_EPStartXfer+0x50e>
 8003ebc:	1d7b      	adds	r3, r7, #5
 8003ebe:	33ff      	adds	r3, #255	; 0xff
 8003ec0:	681b      	ldr	r3, [r3, #0]
 8003ec2:	085b      	lsrs	r3, r3, #1
 8003ec4:	21f8      	movs	r1, #248	; 0xf8
 8003ec6:	187a      	adds	r2, r7, r1
 8003ec8:	6013      	str	r3, [r2, #0]
 8003eca:	1d7b      	adds	r3, r7, #5
 8003ecc:	33ff      	adds	r3, #255	; 0xff
 8003ece:	681b      	ldr	r3, [r3, #0]
 8003ed0:	2201      	movs	r2, #1
 8003ed2:	4013      	ands	r3, r2
 8003ed4:	d004      	beq.n	8003ee0 <USB_EPStartXfer+0x4b8>
 8003ed6:	187b      	adds	r3, r7, r1
 8003ed8:	681b      	ldr	r3, [r3, #0]
 8003eda:	3301      	adds	r3, #1
 8003edc:	187a      	adds	r2, r7, r1
 8003ede:	6013      	str	r3, [r2, #0]
 8003ee0:	6c7b      	ldr	r3, [r7, #68]	; 0x44
 8003ee2:	881b      	ldrh	r3, [r3, #0]
 8003ee4:	b29a      	uxth	r2, r3
 8003ee6:	23f8      	movs	r3, #248	; 0xf8
 8003ee8:	18fb      	adds	r3, r7, r3
 8003eea:	681b      	ldr	r3, [r3, #0]
 8003eec:	b29b      	uxth	r3, r3
 8003eee:	029b      	lsls	r3, r3, #10
 8003ef0:	b29b      	uxth	r3, r3
 8003ef2:	4313      	orrs	r3, r2
 8003ef4:	b29a      	uxth	r2, r3
 8003ef6:	6c7b      	ldr	r3, [r7, #68]	; 0x44
 8003ef8:	801a      	strh	r2, [r3, #0]
 8003efa:	e01c      	b.n	8003f36 <USB_EPStartXfer+0x50e>
 8003efc:	683b      	ldr	r3, [r7, #0]
 8003efe:	785b      	ldrb	r3, [r3, #1]
 8003f00:	2b01      	cmp	r3, #1
 8003f02:	d118      	bne.n	8003f36 <USB_EPStartXfer+0x50e>
 8003f04:	687b      	ldr	r3, [r7, #4]
 8003f06:	653b      	str	r3, [r7, #80]	; 0x50
 8003f08:	687b      	ldr	r3, [r7, #4]
 8003f0a:	2250      	movs	r2, #80	; 0x50
 8003f0c:	5a9b      	ldrh	r3, [r3, r2]
 8003f0e:	b29b      	uxth	r3, r3
 8003f10:	001a      	movs	r2, r3
 8003f12:	6d3b      	ldr	r3, [r7, #80]	; 0x50
 8003f14:	189b      	adds	r3, r3, r2
 8003f16:	653b      	str	r3, [r7, #80]	; 0x50
 8003f18:	683b      	ldr	r3, [r7, #0]
 8003f1a:	781b      	ldrb	r3, [r3, #0]
 8003f1c:	00da      	lsls	r2, r3, #3
 8003f1e:	6d3b      	ldr	r3, [r7, #80]	; 0x50
 8003f20:	18d3      	adds	r3, r2, r3
 8003f22:	4a93      	ldr	r2, [pc, #588]	; (8004170 <USB_EPStartXfer+0x748>)
 8003f24:	4694      	mov	ip, r2
 8003f26:	4463      	add	r3, ip
 8003f28:	64fb      	str	r3, [r7, #76]	; 0x4c
 8003f2a:	1d7b      	adds	r3, r7, #5
 8003f2c:	33ff      	adds	r3, #255	; 0xff
 8003f2e:	681b      	ldr	r3, [r3, #0]
 8003f30:	b29a      	uxth	r2, r3
 8003f32:	6cfb      	ldr	r3, [r7, #76]	; 0x4c
 8003f34:	801a      	strh	r2, [r3, #0]
            pmabuffer = ep->pmaaddr0;
 8003f36:	2076      	movs	r0, #118	; 0x76
 8003f38:	183b      	adds	r3, r7, r0
 8003f3a:	683a      	ldr	r2, [r7, #0]
 8003f3c:	8912      	ldrh	r2, [r2, #8]
 8003f3e:	801a      	strh	r2, [r3, #0]

            /* Write the user buffer to USB PMA */
            USB_WritePMA(USBx, ep->xfer_buff, pmabuffer, (uint16_t)len);
 8003f40:	683b      	ldr	r3, [r7, #0]
 8003f42:	6959      	ldr	r1, [r3, #20]
 8003f44:	1d7b      	adds	r3, r7, #5
 8003f46:	33ff      	adds	r3, #255	; 0xff
 8003f48:	681b      	ldr	r3, [r3, #0]
 8003f4a:	b29c      	uxth	r4, r3
 8003f4c:	183b      	adds	r3, r7, r0
 8003f4e:	881a      	ldrh	r2, [r3, #0]
 8003f50:	6878      	ldr	r0, [r7, #4]
 8003f52:	0023      	movs	r3, r4
 8003f54:	f000 ffda 	bl	8004f0c <USB_WritePMA>
            ep->xfer_buff += len;
 8003f58:	683b      	ldr	r3, [r7, #0]
 8003f5a:	695a      	ldr	r2, [r3, #20]
 8003f5c:	1d7b      	adds	r3, r7, #5
 8003f5e:	33ff      	adds	r3, #255	; 0xff
 8003f60:	681b      	ldr	r3, [r3, #0]
 8003f62:	18d2      	adds	r2, r2, r3
 8003f64:	683b      	ldr	r3, [r7, #0]
 8003f66:	615a      	str	r2, [r3, #20]

            if (ep->xfer_len_db > ep->maxpacket)
 8003f68:	683b      	ldr	r3, [r7, #0]
 8003f6a:	6a1a      	ldr	r2, [r3, #32]
 8003f6c:	683b      	ldr	r3, [r7, #0]
 8003f6e:	691b      	ldr	r3, [r3, #16]
 8003f70:	429a      	cmp	r2, r3
 8003f72:	d908      	bls.n	8003f86 <USB_EPStartXfer+0x55e>
            {
              ep->xfer_len_db -= len;
 8003f74:	683b      	ldr	r3, [r7, #0]
 8003f76:	6a1a      	ldr	r2, [r3, #32]
 8003f78:	1d7b      	adds	r3, r7, #5
 8003f7a:	33ff      	adds	r3, #255	; 0xff
 8003f7c:	681b      	ldr	r3, [r3, #0]
 8003f7e:	1ad2      	subs	r2, r2, r3
 8003f80:	683b      	ldr	r3, [r7, #0]
 8003f82:	621a      	str	r2, [r3, #32]
 8003f84:	e007      	b.n	8003f96 <USB_EPStartXfer+0x56e>
            }
            else
            {
              len = ep->xfer_len_db;
 8003f86:	683b      	ldr	r3, [r7, #0]
 8003f88:	6a1b      	ldr	r3, [r3, #32]
 8003f8a:	1d7a      	adds	r2, r7, #5
 8003f8c:	32ff      	adds	r2, #255	; 0xff
 8003f8e:	6013      	str	r3, [r2, #0]
              ep->xfer_len_db = 0U;
 8003f90:	683b      	ldr	r3, [r7, #0]
 8003f92:	2200      	movs	r2, #0
 8003f94:	621a      	str	r2, [r3, #32]
            }

            /* Set the Double buffer counter for pmabuffer1 */
            PCD_SET_EP_DBUF1_CNT(USBx, ep->num, ep->is_in, len);
 8003f96:	687b      	ldr	r3, [r7, #4]
 8003f98:	643b      	str	r3, [r7, #64]	; 0x40
 8003f9a:	683b      	ldr	r3, [r7, #0]
 8003f9c:	785b      	ldrb	r3, [r3, #1]
 8003f9e:	2b00      	cmp	r3, #0
 8003fa0:	d000      	beq.n	8003fa4 <USB_EPStartXfer+0x57c>
 8003fa2:	e070      	b.n	8004086 <USB_EPStartXfer+0x65e>
 8003fa4:	687b      	ldr	r3, [r7, #4]
 8003fa6:	63bb      	str	r3, [r7, #56]	; 0x38
 8003fa8:	687b      	ldr	r3, [r7, #4]
 8003faa:	2250      	movs	r2, #80	; 0x50
 8003fac:	5a9b      	ldrh	r3, [r3, r2]
 8003fae:	b29b      	uxth	r3, r3
 8003fb0:	001a      	movs	r2, r3
 8003fb2:	6bbb      	ldr	r3, [r7, #56]	; 0x38
 8003fb4:	189b      	adds	r3, r3, r2
 8003fb6:	63bb      	str	r3, [r7, #56]	; 0x38
 8003fb8:	683b      	ldr	r3, [r7, #0]
 8003fba:	781b      	ldrb	r3, [r3, #0]
 8003fbc:	00da      	lsls	r2, r3, #3
 8003fbe:	6bbb      	ldr	r3, [r7, #56]	; 0x38
 8003fc0:	18d3      	adds	r3, r2, r3
 8003fc2:	4a6d      	ldr	r2, [pc, #436]	; (8004178 <USB_EPStartXfer+0x750>)
 8003fc4:	4694      	mov	ip, r2
 8003fc6:	4463      	add	r3, ip
 8003fc8:	637b      	str	r3, [r7, #52]	; 0x34
 8003fca:	6b7b      	ldr	r3, [r7, #52]	; 0x34
 8003fcc:	881b      	ldrh	r3, [r3, #0]
 8003fce:	b29b      	uxth	r3, r3
 8003fd0:	059b      	lsls	r3, r3, #22
 8003fd2:	0d9b      	lsrs	r3, r3, #22
 8003fd4:	b29a      	uxth	r2, r3
 8003fd6:	6b7b      	ldr	r3, [r7, #52]	; 0x34
 8003fd8:	801a      	strh	r2, [r3, #0]
 8003fda:	1d7b      	adds	r3, r7, #5
 8003fdc:	33ff      	adds	r3, #255	; 0xff
 8003fde:	681b      	ldr	r3, [r3, #0]
 8003fe0:	2b3e      	cmp	r3, #62	; 0x3e
 8003fe2:	d922      	bls.n	800402a <USB_EPStartXfer+0x602>
 8003fe4:	1d7b      	adds	r3, r7, #5
 8003fe6:	33ff      	adds	r3, #255	; 0xff
 8003fe8:	681b      	ldr	r3, [r3, #0]
 8003fea:	095b      	lsrs	r3, r3, #5
 8003fec:	21f4      	movs	r1, #244	; 0xf4
 8003fee:	187a      	adds	r2, r7, r1
 8003ff0:	6013      	str	r3, [r2, #0]
 8003ff2:	1d7b      	adds	r3, r7, #5
 8003ff4:	33ff      	adds	r3, #255	; 0xff
 8003ff6:	681b      	ldr	r3, [r3, #0]
 8003ff8:	221f      	movs	r2, #31
 8003ffa:	4013      	ands	r3, r2
 8003ffc:	d104      	bne.n	8004008 <USB_EPStartXfer+0x5e0>
 8003ffe:	187b      	adds	r3, r7, r1
 8004000:	681b      	ldr	r3, [r3, #0]
 8004002:	3b01      	subs	r3, #1
 8004004:	187a      	adds	r2, r7, r1
 8004006:	6013      	str	r3, [r2, #0]
 8004008:	6b7b      	ldr	r3, [r7, #52]	; 0x34
 800400a:	881b      	ldrh	r3, [r3, #0]
 800400c:	b29a      	uxth	r2, r3
 800400e:	23f4      	movs	r3, #244	; 0xf4
 8004010:	18fb      	adds	r3, r7, r3
 8004012:	681b      	ldr	r3, [r3, #0]
 8004014:	b29b      	uxth	r3, r3
 8004016:	029b      	lsls	r3, r3, #10
 8004018:	b29b      	uxth	r3, r3
 800401a:	4313      	orrs	r3, r2
 800401c:	b29b      	uxth	r3, r3
 800401e:	4a55      	ldr	r2, [pc, #340]	; (8004174 <USB_EPStartXfer+0x74c>)
 8004020:	4313      	orrs	r3, r2
 8004022:	b29a      	uxth	r2, r3
 8004024:	6b7b      	ldr	r3, [r7, #52]	; 0x34
 8004026:	801a      	strh	r2, [r3, #0]
 8004028:	e048      	b.n	80040bc <USB_EPStartXfer+0x694>
 800402a:	1d7b      	adds	r3, r7, #5
 800402c:	33ff      	adds	r3, #255	; 0xff
 800402e:	681b      	ldr	r3, [r3, #0]
 8004030:	2b00      	cmp	r3, #0
 8004032:	d108      	bne.n	8004046 <USB_EPStartXfer+0x61e>
 8004034:	6b7b      	ldr	r3, [r7, #52]	; 0x34
 8004036:	881b      	ldrh	r3, [r3, #0]
 8004038:	b29b      	uxth	r3, r3
 800403a:	4a4e      	ldr	r2, [pc, #312]	; (8004174 <USB_EPStartXfer+0x74c>)
 800403c:	4313      	orrs	r3, r2
 800403e:	b29a      	uxth	r2, r3
 8004040:	6b7b      	ldr	r3, [r7, #52]	; 0x34
 8004042:	801a      	strh	r2, [r3, #0]
 8004044:	e03a      	b.n	80040bc <USB_EPStartXfer+0x694>
 8004046:	1d7b      	adds	r3, r7, #5
 8004048:	33ff      	adds	r3, #255	; 0xff
 800404a:	681b      	ldr	r3, [r3, #0]
 800404c:	085b      	lsrs	r3, r3, #1
 800404e:	21f4      	movs	r1, #244	; 0xf4
 8004050:	187a      	adds	r2, r7, r1
 8004052:	6013      	str	r3, [r2, #0]
 8004054:	1d7b      	adds	r3, r7, #5
 8004056:	33ff      	adds	r3, #255	; 0xff
 8004058:	681b      	ldr	r3, [r3, #0]
 800405a:	2201      	movs	r2, #1
 800405c:	4013      	ands	r3, r2
 800405e:	d004      	beq.n	800406a <USB_EPStartXfer+0x642>
 8004060:	187b      	adds	r3, r7, r1
 8004062:	681b      	ldr	r3, [r3, #0]
 8004064:	3301      	adds	r3, #1
 8004066:	187a      	adds	r2, r7, r1
 8004068:	6013      	str	r3, [r2, #0]
 800406a:	6b7b      	ldr	r3, [r7, #52]	; 0x34
 800406c:	881b      	ldrh	r3, [r3, #0]
 800406e:	b29a      	uxth	r2, r3
 8004070:	23f4      	movs	r3, #244	; 0xf4
 8004072:	18fb      	adds	r3, r7, r3
 8004074:	681b      	ldr	r3, [r3, #0]
 8004076:	b29b      	uxth	r3, r3
 8004078:	029b      	lsls	r3, r3, #10
 800407a:	b29b      	uxth	r3, r3
 800407c:	4313      	orrs	r3, r2
 800407e:	b29a      	uxth	r2, r3
 8004080:	6b7b      	ldr	r3, [r7, #52]	; 0x34
 8004082:	801a      	strh	r2, [r3, #0]
 8004084:	e01a      	b.n	80040bc <USB_EPStartXfer+0x694>
 8004086:	683b      	ldr	r3, [r7, #0]
 8004088:	785b      	ldrb	r3, [r3, #1]
 800408a:	2b01      	cmp	r3, #1
 800408c:	d116      	bne.n	80040bc <USB_EPStartXfer+0x694>
 800408e:	687b      	ldr	r3, [r7, #4]
 8004090:	2250      	movs	r2, #80	; 0x50
 8004092:	5a9b      	ldrh	r3, [r3, r2]
 8004094:	b29b      	uxth	r3, r3
 8004096:	001a      	movs	r2, r3
 8004098:	6c3b      	ldr	r3, [r7, #64]	; 0x40
 800409a:	189b      	adds	r3, r3, r2
 800409c:	643b      	str	r3, [r7, #64]	; 0x40
 800409e:	683b      	ldr	r3, [r7, #0]
 80040a0:	781b      	ldrb	r3, [r3, #0]
 80040a2:	00da      	lsls	r2, r3, #3
 80040a4:	6c3b      	ldr	r3, [r7, #64]	; 0x40
 80040a6:	18d3      	adds	r3, r2, r3
 80040a8:	4a33      	ldr	r2, [pc, #204]	; (8004178 <USB_EPStartXfer+0x750>)
 80040aa:	4694      	mov	ip, r2
 80040ac:	4463      	add	r3, ip
 80040ae:	63fb      	str	r3, [r7, #60]	; 0x3c
 80040b0:	1d7b      	adds	r3, r7, #5
 80040b2:	33ff      	adds	r3, #255	; 0xff
 80040b4:	681b      	ldr	r3, [r3, #0]
 80040b6:	b29a      	uxth	r2, r3
 80040b8:	6bfb      	ldr	r3, [r7, #60]	; 0x3c
 80040ba:	801a      	strh	r2, [r3, #0]
            pmabuffer = ep->pmaaddr1;
 80040bc:	2076      	movs	r0, #118	; 0x76
 80040be:	183b      	adds	r3, r7, r0
 80040c0:	683a      	ldr	r2, [r7, #0]
 80040c2:	8952      	ldrh	r2, [r2, #10]
 80040c4:	801a      	strh	r2, [r3, #0]

            /* Write the user buffer to USB PMA */
            USB_WritePMA(USBx, ep->xfer_buff, pmabuffer, (uint16_t)len);
 80040c6:	683b      	ldr	r3, [r7, #0]
 80040c8:	6959      	ldr	r1, [r3, #20]
 80040ca:	1d7b      	adds	r3, r7, #5
 80040cc:	33ff      	adds	r3, #255	; 0xff
 80040ce:	681b      	ldr	r3, [r3, #0]
 80040d0:	b29c      	uxth	r4, r3
 80040d2:	183b      	adds	r3, r7, r0
 80040d4:	881a      	ldrh	r2, [r3, #0]
 80040d6:	6878      	ldr	r0, [r7, #4]
 80040d8:	0023      	movs	r3, r4
 80040da:	f000 ff17 	bl	8004f0c <USB_WritePMA>
 80040de:	e1b6      	b.n	800444e <USB_EPStartXfer+0xa26>
          }
        }
        /* auto Switch to single buffer mode when transfer <Mps no need to manage in double buffer */
        else
        {
          len = ep->xfer_len_db;
 80040e0:	683b      	ldr	r3, [r7, #0]
 80040e2:	6a1b      	ldr	r3, [r3, #32]
 80040e4:	1d7a      	adds	r2, r7, #5
 80040e6:	32ff      	adds	r2, #255	; 0xff
 80040e8:	6013      	str	r3, [r2, #0]

          /* disable double buffer mode for Bulk endpoint */
          PCD_CLEAR_BULK_EP_DBUF(USBx, ep->num);
 80040ea:	687a      	ldr	r2, [r7, #4]
 80040ec:	683b      	ldr	r3, [r7, #0]
 80040ee:	781b      	ldrb	r3, [r3, #0]
 80040f0:	009b      	lsls	r3, r3, #2
 80040f2:	18d3      	adds	r3, r2, r3
 80040f4:	881b      	ldrh	r3, [r3, #0]
 80040f6:	b29a      	uxth	r2, r3
 80040f8:	2062      	movs	r0, #98	; 0x62
 80040fa:	183b      	adds	r3, r7, r0
 80040fc:	491f      	ldr	r1, [pc, #124]	; (800417c <USB_EPStartXfer+0x754>)
 80040fe:	400a      	ands	r2, r1
 8004100:	801a      	strh	r2, [r3, #0]
 8004102:	687a      	ldr	r2, [r7, #4]
 8004104:	683b      	ldr	r3, [r7, #0]
 8004106:	781b      	ldrb	r3, [r3, #0]
 8004108:	009b      	lsls	r3, r3, #2
 800410a:	18d3      	adds	r3, r2, r3
 800410c:	183a      	adds	r2, r7, r0
 800410e:	8812      	ldrh	r2, [r2, #0]
 8004110:	491b      	ldr	r1, [pc, #108]	; (8004180 <USB_EPStartXfer+0x758>)
 8004112:	430a      	orrs	r2, r1
 8004114:	b292      	uxth	r2, r2
 8004116:	801a      	strh	r2, [r3, #0]

          /* Set Tx count with nbre of byte to be transmitted */
          PCD_SET_EP_TX_CNT(USBx, ep->num, len);
 8004118:	687b      	ldr	r3, [r7, #4]
 800411a:	65fb      	str	r3, [r7, #92]	; 0x5c
 800411c:	687b      	ldr	r3, [r7, #4]
 800411e:	2250      	movs	r2, #80	; 0x50
 8004120:	5a9b      	ldrh	r3, [r3, r2]
 8004122:	b29b      	uxth	r3, r3
 8004124:	001a      	movs	r2, r3
 8004126:	6dfb      	ldr	r3, [r7, #92]	; 0x5c
 8004128:	189b      	adds	r3, r3, r2
 800412a:	65fb      	str	r3, [r7, #92]	; 0x5c
 800412c:	683b      	ldr	r3, [r7, #0]
 800412e:	781b      	ldrb	r3, [r3, #0]
 8004130:	00da      	lsls	r2, r3, #3
 8004132:	6dfb      	ldr	r3, [r7, #92]	; 0x5c
 8004134:	18d3      	adds	r3, r2, r3
 8004136:	4a0e      	ldr	r2, [pc, #56]	; (8004170 <USB_EPStartXfer+0x748>)
 8004138:	4694      	mov	ip, r2
 800413a:	4463      	add	r3, ip
 800413c:	65bb      	str	r3, [r7, #88]	; 0x58
 800413e:	1d7b      	adds	r3, r7, #5
 8004140:	33ff      	adds	r3, #255	; 0xff
 8004142:	681b      	ldr	r3, [r3, #0]
 8004144:	b29a      	uxth	r2, r3
 8004146:	6dbb      	ldr	r3, [r7, #88]	; 0x58
 8004148:	801a      	strh	r2, [r3, #0]
          pmabuffer = ep->pmaaddr0;
 800414a:	2076      	movs	r0, #118	; 0x76
 800414c:	183b      	adds	r3, r7, r0
 800414e:	683a      	ldr	r2, [r7, #0]
 8004150:	8912      	ldrh	r2, [r2, #8]
 8004152:	801a      	strh	r2, [r3, #0]

          /* Write the user buffer to USB PMA */
          USB_WritePMA(USBx, ep->xfer_buff, pmabuffer, (uint16_t)len);
 8004154:	683b      	ldr	r3, [r7, #0]
 8004156:	6959      	ldr	r1, [r3, #20]
 8004158:	1d7b      	adds	r3, r7, #5
 800415a:	33ff      	adds	r3, #255	; 0xff
 800415c:	681b      	ldr	r3, [r3, #0]
 800415e:	b29c      	uxth	r4, r3
 8004160:	183b      	adds	r3, r7, r0
 8004162:	881a      	ldrh	r2, [r3, #0]
 8004164:	6878      	ldr	r0, [r7, #4]
 8004166:	0023      	movs	r3, r4
 8004168:	f000 fed0 	bl	8004f0c <USB_WritePMA>
 800416c:	e16f      	b.n	800444e <USB_EPStartXfer+0xa26>
 800416e:	46c0      	nop			; (mov r8, r8)
 8004170:	00000402 	.word	0x00000402
 8004174:	ffff8000 	.word	0xffff8000
 8004178:	00000406 	.word	0x00000406
 800417c:	ffff8e8f 	.word	0xffff8e8f
 8004180:	ffff8080 	.word	0xffff8080
        }
      }
      else /* manage isochronous double buffer IN mode */
      {
        /* each Time to write in PMA xfer_len_db will */
        ep->xfer_len_db -= len;
 8004184:	683b      	ldr	r3, [r7, #0]
 8004186:	6a1a      	ldr	r2, [r3, #32]
 8004188:	1d7b      	adds	r3, r7, #5
 800418a:	33ff      	adds	r3, #255	; 0xff
 800418c:	681b      	ldr	r3, [r3, #0]
 800418e:	1ad2      	subs	r2, r2, r3
 8004190:	683b      	ldr	r3, [r7, #0]
 8004192:	621a      	str	r2, [r3, #32]

        /* Fill the data buffer */
        if ((PCD_GET_ENDPOINT(USBx, ep->num) & USB_EP_DTOG_TX) != 0U)
 8004194:	687a      	ldr	r2, [r7, #4]
 8004196:	683b      	ldr	r3, [r7, #0]
 8004198:	781b      	ldrb	r3, [r3, #0]
 800419a:	009b      	lsls	r3, r3, #2
 800419c:	18d3      	adds	r3, r2, r3
 800419e:	881b      	ldrh	r3, [r3, #0]
 80041a0:	b29b      	uxth	r3, r3
 80041a2:	001a      	movs	r2, r3
 80041a4:	2340      	movs	r3, #64	; 0x40
 80041a6:	4013      	ands	r3, r2
 80041a8:	d100      	bne.n	80041ac <USB_EPStartXfer+0x784>
 80041aa:	e0a4      	b.n	80042f6 <USB_EPStartXfer+0x8ce>
        {
          /* Set the Double buffer counter for pmabuffer1 */
          PCD_SET_EP_DBUF1_CNT(USBx, ep->num, ep->is_in, len);
 80041ac:	687b      	ldr	r3, [r7, #4]
 80041ae:	673b      	str	r3, [r7, #112]	; 0x70
 80041b0:	683b      	ldr	r3, [r7, #0]
 80041b2:	785b      	ldrb	r3, [r3, #1]
 80041b4:	2b00      	cmp	r3, #0
 80041b6:	d000      	beq.n	80041ba <USB_EPStartXfer+0x792>
 80041b8:	e070      	b.n	800429c <USB_EPStartXfer+0x874>
 80041ba:	687b      	ldr	r3, [r7, #4]
 80041bc:	66bb      	str	r3, [r7, #104]	; 0x68
 80041be:	687b      	ldr	r3, [r7, #4]
 80041c0:	2250      	movs	r2, #80	; 0x50
 80041c2:	5a9b      	ldrh	r3, [r3, r2]
 80041c4:	b29b      	uxth	r3, r3
 80041c6:	001a      	movs	r2, r3
 80041c8:	6ebb      	ldr	r3, [r7, #104]	; 0x68
 80041ca:	189b      	adds	r3, r3, r2
 80041cc:	66bb      	str	r3, [r7, #104]	; 0x68
 80041ce:	683b      	ldr	r3, [r7, #0]
 80041d0:	781b      	ldrb	r3, [r3, #0]
 80041d2:	00da      	lsls	r2, r3, #3
 80041d4:	6ebb      	ldr	r3, [r7, #104]	; 0x68
 80041d6:	18d3      	adds	r3, r2, r3
 80041d8:	4abc      	ldr	r2, [pc, #752]	; (80044cc <USB_EPStartXfer+0xaa4>)
 80041da:	4694      	mov	ip, r2
 80041dc:	4463      	add	r3, ip
 80041de:	667b      	str	r3, [r7, #100]	; 0x64
 80041e0:	6e7b      	ldr	r3, [r7, #100]	; 0x64
 80041e2:	881b      	ldrh	r3, [r3, #0]
 80041e4:	b29b      	uxth	r3, r3
 80041e6:	059b      	lsls	r3, r3, #22
 80041e8:	0d9b      	lsrs	r3, r3, #22
 80041ea:	b29a      	uxth	r2, r3
 80041ec:	6e7b      	ldr	r3, [r7, #100]	; 0x64
 80041ee:	801a      	strh	r2, [r3, #0]
 80041f0:	1d7b      	adds	r3, r7, #5
 80041f2:	33ff      	adds	r3, #255	; 0xff
 80041f4:	681b      	ldr	r3, [r3, #0]
 80041f6:	2b3e      	cmp	r3, #62	; 0x3e
 80041f8:	d922      	bls.n	8004240 <USB_EPStartXfer+0x818>
 80041fa:	1d7b      	adds	r3, r7, #5
 80041fc:	33ff      	adds	r3, #255	; 0xff
 80041fe:	681b      	ldr	r3, [r3, #0]
 8004200:	095b      	lsrs	r3, r3, #5
 8004202:	21f0      	movs	r1, #240	; 0xf0
 8004204:	187a      	adds	r2, r7, r1
 8004206:	6013      	str	r3, [r2, #0]
 8004208:	1d7b      	adds	r3, r7, #5
 800420a:	33ff      	adds	r3, #255	; 0xff
 800420c:	681b      	ldr	r3, [r3, #0]
 800420e:	221f      	movs	r2, #31
 8004210:	4013      	ands	r3, r2
 8004212:	d104      	bne.n	800421e <USB_EPStartXfer+0x7f6>
 8004214:	187b      	adds	r3, r7, r1
 8004216:	681b      	ldr	r3, [r3, #0]
 8004218:	3b01      	subs	r3, #1
 800421a:	187a      	adds	r2, r7, r1
 800421c:	6013      	str	r3, [r2, #0]
 800421e:	6e7b      	ldr	r3, [r7, #100]	; 0x64
 8004220:	881b      	ldrh	r3, [r3, #0]
 8004222:	b29a      	uxth	r2, r3
 8004224:	23f0      	movs	r3, #240	; 0xf0
 8004226:	18fb      	adds	r3, r7, r3
 8004228:	681b      	ldr	r3, [r3, #0]
 800422a:	b29b      	uxth	r3, r3
 800422c:	029b      	lsls	r3, r3, #10
 800422e:	b29b      	uxth	r3, r3
 8004230:	4313      	orrs	r3, r2
 8004232:	b29b      	uxth	r3, r3
 8004234:	4aa6      	ldr	r2, [pc, #664]	; (80044d0 <USB_EPStartXfer+0xaa8>)
 8004236:	4313      	orrs	r3, r2
 8004238:	b29a      	uxth	r2, r3
 800423a:	6e7b      	ldr	r3, [r7, #100]	; 0x64
 800423c:	801a      	strh	r2, [r3, #0]
 800423e:	e048      	b.n	80042d2 <USB_EPStartXfer+0x8aa>
 8004240:	1d7b      	adds	r3, r7, #5
 8004242:	33ff      	adds	r3, #255	; 0xff
 8004244:	681b      	ldr	r3, [r3, #0]
 8004246:	2b00      	cmp	r3, #0
 8004248:	d108      	bne.n	800425c <USB_EPStartXfer+0x834>
 800424a:	6e7b      	ldr	r3, [r7, #100]	; 0x64
 800424c:	881b      	ldrh	r3, [r3, #0]
 800424e:	b29b      	uxth	r3, r3
 8004250:	4a9f      	ldr	r2, [pc, #636]	; (80044d0 <USB_EPStartXfer+0xaa8>)
 8004252:	4313      	orrs	r3, r2
 8004254:	b29a      	uxth	r2, r3
 8004256:	6e7b      	ldr	r3, [r7, #100]	; 0x64
 8004258:	801a      	strh	r2, [r3, #0]
 800425a:	e03a      	b.n	80042d2 <USB_EPStartXfer+0x8aa>
 800425c:	1d7b      	adds	r3, r7, #5
 800425e:	33ff      	adds	r3, #255	; 0xff
 8004260:	681b      	ldr	r3, [r3, #0]
 8004262:	085b      	lsrs	r3, r3, #1
 8004264:	21f0      	movs	r1, #240	; 0xf0
 8004266:	187a      	adds	r2, r7, r1
 8004268:	6013      	str	r3, [r2, #0]
 800426a:	1d7b      	adds	r3, r7, #5
 800426c:	33ff      	adds	r3, #255	; 0xff
 800426e:	681b      	ldr	r3, [r3, #0]
 8004270:	2201      	movs	r2, #1
 8004272:	4013      	ands	r3, r2
 8004274:	d004      	beq.n	8004280 <USB_EPStartXfer+0x858>
 8004276:	187b      	adds	r3, r7, r1
 8004278:	681b      	ldr	r3, [r3, #0]
 800427a:	3301      	adds	r3, #1
 800427c:	187a      	adds	r2, r7, r1
 800427e:	6013      	str	r3, [r2, #0]
 8004280:	6e7b      	ldr	r3, [r7, #100]	; 0x64
 8004282:	881b      	ldrh	r3, [r3, #0]
 8004284:	b29a      	uxth	r2, r3
 8004286:	23f0      	movs	r3, #240	; 0xf0
 8004288:	18fb      	adds	r3, r7, r3
 800428a:	681b      	ldr	r3, [r3, #0]
 800428c:	b29b      	uxth	r3, r3
 800428e:	029b      	lsls	r3, r3, #10
 8004290:	b29b      	uxth	r3, r3
 8004292:	4313      	orrs	r3, r2
 8004294:	b29a      	uxth	r2, r3
 8004296:	6e7b      	ldr	r3, [r7, #100]	; 0x64
 8004298:	801a      	strh	r2, [r3, #0]
 800429a:	e01a      	b.n	80042d2 <USB_EPStartXfer+0x8aa>
 800429c:	683b      	ldr	r3, [r7, #0]
 800429e:	785b      	ldrb	r3, [r3, #1]
 80042a0:	2b01      	cmp	r3, #1
 80042a2:	d116      	bne.n	80042d2 <USB_EPStartXfer+0x8aa>
 80042a4:	687b      	ldr	r3, [r7, #4]
 80042a6:	2250      	movs	r2, #80	; 0x50
 80042a8:	5a9b      	ldrh	r3, [r3, r2]
 80042aa:	b29b      	uxth	r3, r3
 80042ac:	001a      	movs	r2, r3
 80042ae:	6f3b      	ldr	r3, [r7, #112]	; 0x70
 80042b0:	189b      	adds	r3, r3, r2
 80042b2:	673b      	str	r3, [r7, #112]	; 0x70
 80042b4:	683b      	ldr	r3, [r7, #0]
 80042b6:	781b      	ldrb	r3, [r3, #0]
 80042b8:	00da      	lsls	r2, r3, #3
 80042ba:	6f3b      	ldr	r3, [r7, #112]	; 0x70
 80042bc:	18d3      	adds	r3, r2, r3
 80042be:	4a83      	ldr	r2, [pc, #524]	; (80044cc <USB_EPStartXfer+0xaa4>)
 80042c0:	4694      	mov	ip, r2
 80042c2:	4463      	add	r3, ip
 80042c4:	66fb      	str	r3, [r7, #108]	; 0x6c
 80042c6:	1d7b      	adds	r3, r7, #5
 80042c8:	33ff      	adds	r3, #255	; 0xff
 80042ca:	681b      	ldr	r3, [r3, #0]
 80042cc:	b29a      	uxth	r2, r3
 80042ce:	6efb      	ldr	r3, [r7, #108]	; 0x6c
 80042d0:	801a      	strh	r2, [r3, #0]
          pmabuffer = ep->pmaaddr1;
 80042d2:	2076      	movs	r0, #118	; 0x76
 80042d4:	183b      	adds	r3, r7, r0
 80042d6:	683a      	ldr	r2, [r7, #0]
 80042d8:	8952      	ldrh	r2, [r2, #10]
 80042da:	801a      	strh	r2, [r3, #0]

          /* Write the user buffer to USB PMA */
          USB_WritePMA(USBx, ep->xfer_buff, pmabuffer, (uint16_t)len);
 80042dc:	683b      	ldr	r3, [r7, #0]
 80042de:	6959      	ldr	r1, [r3, #20]
 80042e0:	1d7b      	adds	r3, r7, #5
 80042e2:	33ff      	adds	r3, #255	; 0xff
 80042e4:	681b      	ldr	r3, [r3, #0]
 80042e6:	b29c      	uxth	r4, r3
 80042e8:	183b      	adds	r3, r7, r0
 80042ea:	881a      	ldrh	r2, [r3, #0]
 80042ec:	6878      	ldr	r0, [r7, #4]
 80042ee:	0023      	movs	r3, r4
 80042f0:	f000 fe0c 	bl	8004f0c <USB_WritePMA>
 80042f4:	e0ab      	b.n	800444e <USB_EPStartXfer+0xa26>
        }
        else
        {
          /* Set the Double buffer counter for pmabuffer0 */
          PCD_SET_EP_DBUF0_CNT(USBx, ep->num, ep->is_in, len);
 80042f6:	683b      	ldr	r3, [r7, #0]
 80042f8:	785b      	ldrb	r3, [r3, #1]
 80042fa:	2b00      	cmp	r3, #0
 80042fc:	d000      	beq.n	8004300 <USB_EPStartXfer+0x8d8>
 80042fe:	e070      	b.n	80043e2 <USB_EPStartXfer+0x9ba>
 8004300:	687b      	ldr	r3, [r7, #4]
 8004302:	67fb      	str	r3, [r7, #124]	; 0x7c
 8004304:	687b      	ldr	r3, [r7, #4]
 8004306:	2250      	movs	r2, #80	; 0x50
 8004308:	5a9b      	ldrh	r3, [r3, r2]
 800430a:	b29b      	uxth	r3, r3
 800430c:	001a      	movs	r2, r3
 800430e:	6ffb      	ldr	r3, [r7, #124]	; 0x7c
 8004310:	189b      	adds	r3, r3, r2
 8004312:	67fb      	str	r3, [r7, #124]	; 0x7c
 8004314:	683b      	ldr	r3, [r7, #0]
 8004316:	781b      	ldrb	r3, [r3, #0]
 8004318:	00da      	lsls	r2, r3, #3
 800431a:	6ffb      	ldr	r3, [r7, #124]	; 0x7c
 800431c:	18d3      	adds	r3, r2, r3
 800431e:	4a6d      	ldr	r2, [pc, #436]	; (80044d4 <USB_EPStartXfer+0xaac>)
 8004320:	4694      	mov	ip, r2
 8004322:	4463      	add	r3, ip
 8004324:	67bb      	str	r3, [r7, #120]	; 0x78
 8004326:	6fbb      	ldr	r3, [r7, #120]	; 0x78
 8004328:	881b      	ldrh	r3, [r3, #0]
 800432a:	b29b      	uxth	r3, r3
 800432c:	059b      	lsls	r3, r3, #22
 800432e:	0d9b      	lsrs	r3, r3, #22
 8004330:	b29a      	uxth	r2, r3
 8004332:	6fbb      	ldr	r3, [r7, #120]	; 0x78
 8004334:	801a      	strh	r2, [r3, #0]
 8004336:	1d7b      	adds	r3, r7, #5
 8004338:	33ff      	adds	r3, #255	; 0xff
 800433a:	681b      	ldr	r3, [r3, #0]
 800433c:	2b3e      	cmp	r3, #62	; 0x3e
 800433e:	d922      	bls.n	8004386 <USB_EPStartXfer+0x95e>
 8004340:	1d7b      	adds	r3, r7, #5
 8004342:	33ff      	adds	r3, #255	; 0xff
 8004344:	681b      	ldr	r3, [r3, #0]
 8004346:	095b      	lsrs	r3, r3, #5
 8004348:	21ec      	movs	r1, #236	; 0xec
 800434a:	187a      	adds	r2, r7, r1
 800434c:	6013      	str	r3, [r2, #0]
 800434e:	1d7b      	adds	r3, r7, #5
 8004350:	33ff      	adds	r3, #255	; 0xff
 8004352:	681b      	ldr	r3, [r3, #0]
 8004354:	221f      	movs	r2, #31
 8004356:	4013      	ands	r3, r2
 8004358:	d104      	bne.n	8004364 <USB_EPStartXfer+0x93c>
 800435a:	187b      	adds	r3, r7, r1
 800435c:	681b      	ldr	r3, [r3, #0]
 800435e:	3b01      	subs	r3, #1
 8004360:	187a      	adds	r2, r7, r1
 8004362:	6013      	str	r3, [r2, #0]
 8004364:	6fbb      	ldr	r3, [r7, #120]	; 0x78
 8004366:	881b      	ldrh	r3, [r3, #0]
 8004368:	b29a      	uxth	r2, r3
 800436a:	23ec      	movs	r3, #236	; 0xec
 800436c:	18fb      	adds	r3, r7, r3
 800436e:	681b      	ldr	r3, [r3, #0]
 8004370:	b29b      	uxth	r3, r3
 8004372:	029b      	lsls	r3, r3, #10
 8004374:	b29b      	uxth	r3, r3
 8004376:	4313      	orrs	r3, r2
 8004378:	b29b      	uxth	r3, r3
 800437a:	4a55      	ldr	r2, [pc, #340]	; (80044d0 <USB_EPStartXfer+0xaa8>)
 800437c:	4313      	orrs	r3, r2
 800437e:	b29a      	uxth	r2, r3
 8004380:	6fbb      	ldr	r3, [r7, #120]	; 0x78
 8004382:	801a      	strh	r2, [r3, #0]
 8004384:	e052      	b.n	800442c <USB_EPStartXfer+0xa04>
 8004386:	1d7b      	adds	r3, r7, #5
 8004388:	33ff      	adds	r3, #255	; 0xff
 800438a:	681b      	ldr	r3, [r3, #0]
 800438c:	2b00      	cmp	r3, #0
 800438e:	d108      	bne.n	80043a2 <USB_EPStartXfer+0x97a>
 8004390:	6fbb      	ldr	r3, [r7, #120]	; 0x78
 8004392:	881b      	ldrh	r3, [r3, #0]
 8004394:	b29b      	uxth	r3, r3
 8004396:	4a4e      	ldr	r2, [pc, #312]	; (80044d0 <USB_EPStartXfer+0xaa8>)
 8004398:	4313      	orrs	r3, r2
 800439a:	b29a      	uxth	r2, r3
 800439c:	6fbb      	ldr	r3, [r7, #120]	; 0x78
 800439e:	801a      	strh	r2, [r3, #0]
 80043a0:	e044      	b.n	800442c <USB_EPStartXfer+0xa04>
 80043a2:	1d7b      	adds	r3, r7, #5
 80043a4:	33ff      	adds	r3, #255	; 0xff
 80043a6:	681b      	ldr	r3, [r3, #0]
 80043a8:	085b      	lsrs	r3, r3, #1
 80043aa:	21ec      	movs	r1, #236	; 0xec
 80043ac:	187a      	adds	r2, r7, r1
 80043ae:	6013      	str	r3, [r2, #0]
 80043b0:	1d7b      	adds	r3, r7, #5
 80043b2:	33ff      	adds	r3, #255	; 0xff
 80043b4:	681b      	ldr	r3, [r3, #0]
 80043b6:	2201      	movs	r2, #1
 80043b8:	4013      	ands	r3, r2
 80043ba:	d004      	beq.n	80043c6 <USB_EPStartXfer+0x99e>
 80043bc:	187b      	adds	r3, r7, r1
 80043be:	681b      	ldr	r3, [r3, #0]
 80043c0:	3301      	adds	r3, #1
 80043c2:	187a      	adds	r2, r7, r1
 80043c4:	6013      	str	r3, [r2, #0]
 80043c6:	6fbb      	ldr	r3, [r7, #120]	; 0x78
 80043c8:	881b      	ldrh	r3, [r3, #0]
 80043ca:	b29a      	uxth	r2, r3
 80043cc:	23ec      	movs	r3, #236	; 0xec
 80043ce:	18fb      	adds	r3, r7, r3
 80043d0:	681b      	ldr	r3, [r3, #0]
 80043d2:	b29b      	uxth	r3, r3
 80043d4:	029b      	lsls	r3, r3, #10
 80043d6:	b29b      	uxth	r3, r3
 80043d8:	4313      	orrs	r3, r2
 80043da:	b29a      	uxth	r2, r3
 80043dc:	6fbb      	ldr	r3, [r7, #120]	; 0x78
 80043de:	801a      	strh	r2, [r3, #0]
 80043e0:	e024      	b.n	800442c <USB_EPStartXfer+0xa04>
 80043e2:	683b      	ldr	r3, [r7, #0]
 80043e4:	785b      	ldrb	r3, [r3, #1]
 80043e6:	2b01      	cmp	r3, #1
 80043e8:	d120      	bne.n	800442c <USB_EPStartXfer+0xa04>
 80043ea:	687b      	ldr	r3, [r7, #4]
 80043ec:	2184      	movs	r1, #132	; 0x84
 80043ee:	187a      	adds	r2, r7, r1
 80043f0:	6013      	str	r3, [r2, #0]
 80043f2:	687b      	ldr	r3, [r7, #4]
 80043f4:	2250      	movs	r2, #80	; 0x50
 80043f6:	5a9b      	ldrh	r3, [r3, r2]
 80043f8:	b29b      	uxth	r3, r3
 80043fa:	001a      	movs	r2, r3
 80043fc:	187b      	adds	r3, r7, r1
 80043fe:	681b      	ldr	r3, [r3, #0]
 8004400:	189b      	adds	r3, r3, r2
 8004402:	187a      	adds	r2, r7, r1
 8004404:	6013      	str	r3, [r2, #0]
 8004406:	683b      	ldr	r3, [r7, #0]
 8004408:	781b      	ldrb	r3, [r3, #0]
 800440a:	00da      	lsls	r2, r3, #3
 800440c:	187b      	adds	r3, r7, r1
 800440e:	681b      	ldr	r3, [r3, #0]
 8004410:	18d3      	adds	r3, r2, r3
 8004412:	4a30      	ldr	r2, [pc, #192]	; (80044d4 <USB_EPStartXfer+0xaac>)
 8004414:	4694      	mov	ip, r2
 8004416:	4463      	add	r3, ip
 8004418:	2180      	movs	r1, #128	; 0x80
 800441a:	187a      	adds	r2, r7, r1
 800441c:	6013      	str	r3, [r2, #0]
 800441e:	1d7b      	adds	r3, r7, #5
 8004420:	33ff      	adds	r3, #255	; 0xff
 8004422:	681b      	ldr	r3, [r3, #0]
 8004424:	b29a      	uxth	r2, r3
 8004426:	187b      	adds	r3, r7, r1
 8004428:	681b      	ldr	r3, [r3, #0]
 800442a:	801a      	strh	r2, [r3, #0]
          pmabuffer = ep->pmaaddr0;
 800442c:	2076      	movs	r0, #118	; 0x76
 800442e:	183b      	adds	r3, r7, r0
 8004430:	683a      	ldr	r2, [r7, #0]
 8004432:	8912      	ldrh	r2, [r2, #8]
 8004434:	801a      	strh	r2, [r3, #0]

          /* Write the user buffer to USB PMA */
          USB_WritePMA(USBx, ep->xfer_buff, pmabuffer, (uint16_t)len);
 8004436:	683b      	ldr	r3, [r7, #0]
 8004438:	6959      	ldr	r1, [r3, #20]
 800443a:	1d7b      	adds	r3, r7, #5
 800443c:	33ff      	adds	r3, #255	; 0xff
 800443e:	681b      	ldr	r3, [r3, #0]
 8004440:	b29c      	uxth	r4, r3
 8004442:	183b      	adds	r3, r7, r0
 8004444:	881a      	ldrh	r2, [r3, #0]
 8004446:	6878      	ldr	r0, [r7, #4]
 8004448:	0023      	movs	r3, r4
 800444a:	f000 fd5f 	bl	8004f0c <USB_WritePMA>
        }
      }
    }
#endif /* (USE_USB_DOUBLE_BUFFER == 1U) */

    PCD_SET_EP_TX_STATUS(USBx, ep->num, USB_EP_TX_VALID);
 800444e:	687a      	ldr	r2, [r7, #4]
 8004450:	683b      	ldr	r3, [r7, #0]
 8004452:	781b      	ldrb	r3, [r3, #0]
 8004454:	009b      	lsls	r3, r3, #2
 8004456:	18d3      	adds	r3, r2, r3
 8004458:	881b      	ldrh	r3, [r3, #0]
 800445a:	b29a      	uxth	r2, r3
 800445c:	200a      	movs	r0, #10
 800445e:	183b      	adds	r3, r7, r0
 8004460:	491d      	ldr	r1, [pc, #116]	; (80044d8 <USB_EPStartXfer+0xab0>)
 8004462:	400a      	ands	r2, r1
 8004464:	801a      	strh	r2, [r3, #0]
 8004466:	183b      	adds	r3, r7, r0
 8004468:	183a      	adds	r2, r7, r0
 800446a:	8812      	ldrh	r2, [r2, #0]
 800446c:	2110      	movs	r1, #16
 800446e:	404a      	eors	r2, r1
 8004470:	801a      	strh	r2, [r3, #0]
 8004472:	183b      	adds	r3, r7, r0
 8004474:	183a      	adds	r2, r7, r0
 8004476:	8812      	ldrh	r2, [r2, #0]
 8004478:	2120      	movs	r1, #32
 800447a:	404a      	eors	r2, r1
 800447c:	801a      	strh	r2, [r3, #0]
 800447e:	687a      	ldr	r2, [r7, #4]
 8004480:	683b      	ldr	r3, [r7, #0]
 8004482:	781b      	ldrb	r3, [r3, #0]
 8004484:	009b      	lsls	r3, r3, #2
 8004486:	18d3      	adds	r3, r2, r3
 8004488:	183a      	adds	r2, r7, r0
 800448a:	8812      	ldrh	r2, [r2, #0]
 800448c:	4913      	ldr	r1, [pc, #76]	; (80044dc <USB_EPStartXfer+0xab4>)
 800448e:	430a      	orrs	r2, r1
 8004490:	b292      	uxth	r2, r2
 8004492:	801a      	strh	r2, [r3, #0]
 8004494:	f000 fbf4 	bl	8004c80 <USB_EPStartXfer+0x1258>
  }
  else /* OUT endpoint */
  {
    if (ep->doublebuffer == 0U)
 8004498:	683b      	ldr	r3, [r7, #0]
 800449a:	7b1b      	ldrb	r3, [r3, #12]
 800449c:	2b00      	cmp	r3, #0
 800449e:	d000      	beq.n	80044a2 <USB_EPStartXfer+0xa7a>
 80044a0:	e0a9      	b.n	80045f6 <USB_EPStartXfer+0xbce>
    {
      /* Multi packet transfer */
      if (ep->xfer_len > ep->maxpacket)
 80044a2:	683b      	ldr	r3, [r7, #0]
 80044a4:	699a      	ldr	r2, [r3, #24]
 80044a6:	683b      	ldr	r3, [r7, #0]
 80044a8:	691b      	ldr	r3, [r3, #16]
 80044aa:	429a      	cmp	r2, r3
 80044ac:	d918      	bls.n	80044e0 <USB_EPStartXfer+0xab8>
      {
        len = ep->maxpacket;
 80044ae:	683b      	ldr	r3, [r7, #0]
 80044b0:	691b      	ldr	r3, [r3, #16]
 80044b2:	1d7a      	adds	r2, r7, #5
 80044b4:	32ff      	adds	r2, #255	; 0xff
 80044b6:	6013      	str	r3, [r2, #0]
        ep->xfer_len -= len;
 80044b8:	683b      	ldr	r3, [r7, #0]
 80044ba:	699a      	ldr	r2, [r3, #24]
 80044bc:	1d7b      	adds	r3, r7, #5
 80044be:	33ff      	adds	r3, #255	; 0xff
 80044c0:	681b      	ldr	r3, [r3, #0]
 80044c2:	1ad2      	subs	r2, r2, r3
 80044c4:	683b      	ldr	r3, [r7, #0]
 80044c6:	619a      	str	r2, [r3, #24]
 80044c8:	e012      	b.n	80044f0 <USB_EPStartXfer+0xac8>
 80044ca:	46c0      	nop			; (mov r8, r8)
 80044cc:	00000406 	.word	0x00000406
 80044d0:	ffff8000 	.word	0xffff8000
 80044d4:	00000402 	.word	0x00000402
 80044d8:	ffff8fbf 	.word	0xffff8fbf
 80044dc:	ffff8080 	.word	0xffff8080
      }
      else
      {
        len = ep->xfer_len;
 80044e0:	683b      	ldr	r3, [r7, #0]
 80044e2:	699b      	ldr	r3, [r3, #24]
 80044e4:	1d7a      	adds	r2, r7, #5
 80044e6:	32ff      	adds	r2, #255	; 0xff
 80044e8:	6013      	str	r3, [r2, #0]
        ep->xfer_len = 0U;
 80044ea:	683b      	ldr	r3, [r7, #0]
 80044ec:	2200      	movs	r2, #0
 80044ee:	619a      	str	r2, [r3, #24]
      }
      /* configure and validate Rx endpoint */
      PCD_SET_EP_RX_CNT(USBx, ep->num, len);
 80044f0:	687b      	ldr	r3, [r7, #4]
 80044f2:	2190      	movs	r1, #144	; 0x90
 80044f4:	187a      	adds	r2, r7, r1
 80044f6:	6013      	str	r3, [r2, #0]
 80044f8:	687b      	ldr	r3, [r7, #4]
 80044fa:	2250      	movs	r2, #80	; 0x50
 80044fc:	5a9b      	ldrh	r3, [r3, r2]
 80044fe:	b29b      	uxth	r3, r3
 8004500:	001a      	movs	r2, r3
 8004502:	187b      	adds	r3, r7, r1
 8004504:	681b      	ldr	r3, [r3, #0]
 8004506:	189b      	adds	r3, r3, r2
 8004508:	187a      	adds	r2, r7, r1
 800450a:	6013      	str	r3, [r2, #0]
 800450c:	683b      	ldr	r3, [r7, #0]
 800450e:	781b      	ldrb	r3, [r3, #0]
 8004510:	00da      	lsls	r2, r3, #3
 8004512:	187b      	adds	r3, r7, r1
 8004514:	681b      	ldr	r3, [r3, #0]
 8004516:	18d3      	adds	r3, r2, r3
 8004518:	4acf      	ldr	r2, [pc, #828]	; (8004858 <USB_EPStartXfer+0xe30>)
 800451a:	4694      	mov	ip, r2
 800451c:	4463      	add	r3, ip
 800451e:	218c      	movs	r1, #140	; 0x8c
 8004520:	187a      	adds	r2, r7, r1
 8004522:	6013      	str	r3, [r2, #0]
 8004524:	187b      	adds	r3, r7, r1
 8004526:	681b      	ldr	r3, [r3, #0]
 8004528:	881b      	ldrh	r3, [r3, #0]
 800452a:	b29b      	uxth	r3, r3
 800452c:	059b      	lsls	r3, r3, #22
 800452e:	0d9b      	lsrs	r3, r3, #22
 8004530:	b29a      	uxth	r2, r3
 8004532:	187b      	adds	r3, r7, r1
 8004534:	681b      	ldr	r3, [r3, #0]
 8004536:	801a      	strh	r2, [r3, #0]
 8004538:	1d7b      	adds	r3, r7, #5
 800453a:	33ff      	adds	r3, #255	; 0xff
 800453c:	681b      	ldr	r3, [r3, #0]
 800453e:	2b3e      	cmp	r3, #62	; 0x3e
 8004540:	d925      	bls.n	800458e <USB_EPStartXfer+0xb66>
 8004542:	1d7b      	adds	r3, r7, #5
 8004544:	33ff      	adds	r3, #255	; 0xff
 8004546:	681b      	ldr	r3, [r3, #0]
 8004548:	095b      	lsrs	r3, r3, #5
 800454a:	21e8      	movs	r1, #232	; 0xe8
 800454c:	187a      	adds	r2, r7, r1
 800454e:	6013      	str	r3, [r2, #0]
 8004550:	1d7b      	adds	r3, r7, #5
 8004552:	33ff      	adds	r3, #255	; 0xff
 8004554:	681b      	ldr	r3, [r3, #0]
 8004556:	221f      	movs	r2, #31
 8004558:	4013      	ands	r3, r2
 800455a:	d104      	bne.n	8004566 <USB_EPStartXfer+0xb3e>
 800455c:	187b      	adds	r3, r7, r1
 800455e:	681b      	ldr	r3, [r3, #0]
 8004560:	3b01      	subs	r3, #1
 8004562:	187a      	adds	r2, r7, r1
 8004564:	6013      	str	r3, [r2, #0]
 8004566:	218c      	movs	r1, #140	; 0x8c
 8004568:	187b      	adds	r3, r7, r1
 800456a:	681b      	ldr	r3, [r3, #0]
 800456c:	881b      	ldrh	r3, [r3, #0]
 800456e:	b29a      	uxth	r2, r3
 8004570:	23e8      	movs	r3, #232	; 0xe8
 8004572:	18fb      	adds	r3, r7, r3
 8004574:	681b      	ldr	r3, [r3, #0]
 8004576:	b29b      	uxth	r3, r3
 8004578:	029b      	lsls	r3, r3, #10
 800457a:	b29b      	uxth	r3, r3
 800457c:	4313      	orrs	r3, r2
 800457e:	b29b      	uxth	r3, r3
 8004580:	4ab6      	ldr	r2, [pc, #728]	; (800485c <USB_EPStartXfer+0xe34>)
 8004582:	4313      	orrs	r3, r2
 8004584:	b29a      	uxth	r2, r3
 8004586:	187b      	adds	r3, r7, r1
 8004588:	681b      	ldr	r3, [r3, #0]
 800458a:	801a      	strh	r2, [r3, #0]
 800458c:	e353      	b.n	8004c36 <USB_EPStartXfer+0x120e>
 800458e:	1d7b      	adds	r3, r7, #5
 8004590:	33ff      	adds	r3, #255	; 0xff
 8004592:	681b      	ldr	r3, [r3, #0]
 8004594:	2b00      	cmp	r3, #0
 8004596:	d10b      	bne.n	80045b0 <USB_EPStartXfer+0xb88>
 8004598:	218c      	movs	r1, #140	; 0x8c
 800459a:	187b      	adds	r3, r7, r1
 800459c:	681b      	ldr	r3, [r3, #0]
 800459e:	881b      	ldrh	r3, [r3, #0]
 80045a0:	b29b      	uxth	r3, r3
 80045a2:	4aae      	ldr	r2, [pc, #696]	; (800485c <USB_EPStartXfer+0xe34>)
 80045a4:	4313      	orrs	r3, r2
 80045a6:	b29a      	uxth	r2, r3
 80045a8:	187b      	adds	r3, r7, r1
 80045aa:	681b      	ldr	r3, [r3, #0]
 80045ac:	801a      	strh	r2, [r3, #0]
 80045ae:	e342      	b.n	8004c36 <USB_EPStartXfer+0x120e>
 80045b0:	1d7b      	adds	r3, r7, #5
 80045b2:	33ff      	adds	r3, #255	; 0xff
 80045b4:	681b      	ldr	r3, [r3, #0]
 80045b6:	085b      	lsrs	r3, r3, #1
 80045b8:	21e8      	movs	r1, #232	; 0xe8
 80045ba:	187a      	adds	r2, r7, r1
 80045bc:	6013      	str	r3, [r2, #0]
 80045be:	1d7b      	adds	r3, r7, #5
 80045c0:	33ff      	adds	r3, #255	; 0xff
 80045c2:	681b      	ldr	r3, [r3, #0]
 80045c4:	2201      	movs	r2, #1
 80045c6:	4013      	ands	r3, r2
 80045c8:	d004      	beq.n	80045d4 <USB_EPStartXfer+0xbac>
 80045ca:	187b      	adds	r3, r7, r1
 80045cc:	681b      	ldr	r3, [r3, #0]
 80045ce:	3301      	adds	r3, #1
 80045d0:	187a      	adds	r2, r7, r1
 80045d2:	6013      	str	r3, [r2, #0]
 80045d4:	218c      	movs	r1, #140	; 0x8c
 80045d6:	187b      	adds	r3, r7, r1
 80045d8:	681b      	ldr	r3, [r3, #0]
 80045da:	881b      	ldrh	r3, [r3, #0]
 80045dc:	b29a      	uxth	r2, r3
 80045de:	23e8      	movs	r3, #232	; 0xe8
 80045e0:	18fb      	adds	r3, r7, r3
 80045e2:	681b      	ldr	r3, [r3, #0]
 80045e4:	b29b      	uxth	r3, r3
 80045e6:	029b      	lsls	r3, r3, #10
 80045e8:	b29b      	uxth	r3, r3
 80045ea:	4313      	orrs	r3, r2
 80045ec:	b29a      	uxth	r2, r3
 80045ee:	187b      	adds	r3, r7, r1
 80045f0:	681b      	ldr	r3, [r3, #0]
 80045f2:	801a      	strh	r2, [r3, #0]
 80045f4:	e31f      	b.n	8004c36 <USB_EPStartXfer+0x120e>
#if (USE_USB_DOUBLE_BUFFER == 1U)
    else
    {
      /* First Transfer Coming From HAL_PCD_EP_Receive & From ISR */
      /* Set the Double buffer counter */
      if (ep->type == EP_TYPE_BULK)
 80045f6:	683b      	ldr	r3, [r7, #0]
 80045f8:	78db      	ldrb	r3, [r3, #3]
 80045fa:	2b02      	cmp	r3, #2
 80045fc:	d000      	beq.n	8004600 <USB_EPStartXfer+0xbd8>
 80045fe:	e191      	b.n	8004924 <USB_EPStartXfer+0xefc>
      {
        PCD_SET_EP_DBUF_CNT(USBx, ep->num, ep->is_in, ep->maxpacket);
 8004600:	683b      	ldr	r3, [r7, #0]
 8004602:	785b      	ldrb	r3, [r3, #1]
 8004604:	2b00      	cmp	r3, #0
 8004606:	d000      	beq.n	800460a <USB_EPStartXfer+0xbe2>
 8004608:	e07c      	b.n	8004704 <USB_EPStartXfer+0xcdc>
 800460a:	687b      	ldr	r3, [r7, #4]
 800460c:	21ac      	movs	r1, #172	; 0xac
 800460e:	187a      	adds	r2, r7, r1
 8004610:	6013      	str	r3, [r2, #0]
 8004612:	687b      	ldr	r3, [r7, #4]
 8004614:	2250      	movs	r2, #80	; 0x50
 8004616:	5a9b      	ldrh	r3, [r3, r2]
 8004618:	b29b      	uxth	r3, r3
 800461a:	001a      	movs	r2, r3
 800461c:	187b      	adds	r3, r7, r1
 800461e:	681b      	ldr	r3, [r3, #0]
 8004620:	189b      	adds	r3, r3, r2
 8004622:	187a      	adds	r2, r7, r1
 8004624:	6013      	str	r3, [r2, #0]
 8004626:	683b      	ldr	r3, [r7, #0]
 8004628:	781b      	ldrb	r3, [r3, #0]
 800462a:	00da      	lsls	r2, r3, #3
 800462c:	187b      	adds	r3, r7, r1
 800462e:	681b      	ldr	r3, [r3, #0]
 8004630:	18d3      	adds	r3, r2, r3
 8004632:	4a8b      	ldr	r2, [pc, #556]	; (8004860 <USB_EPStartXfer+0xe38>)
 8004634:	4694      	mov	ip, r2
 8004636:	4463      	add	r3, ip
 8004638:	21a8      	movs	r1, #168	; 0xa8
 800463a:	187a      	adds	r2, r7, r1
 800463c:	6013      	str	r3, [r2, #0]
 800463e:	187b      	adds	r3, r7, r1
 8004640:	681b      	ldr	r3, [r3, #0]
 8004642:	881b      	ldrh	r3, [r3, #0]
 8004644:	b29b      	uxth	r3, r3
 8004646:	059b      	lsls	r3, r3, #22
 8004648:	0d9b      	lsrs	r3, r3, #22
 800464a:	b29a      	uxth	r2, r3
 800464c:	187b      	adds	r3, r7, r1
 800464e:	681b      	ldr	r3, [r3, #0]
 8004650:	801a      	strh	r2, [r3, #0]
 8004652:	683b      	ldr	r3, [r7, #0]
 8004654:	691b      	ldr	r3, [r3, #16]
 8004656:	2b3e      	cmp	r3, #62	; 0x3e
 8004658:	d923      	bls.n	80046a2 <USB_EPStartXfer+0xc7a>
 800465a:	683b      	ldr	r3, [r7, #0]
 800465c:	691b      	ldr	r3, [r3, #16]
 800465e:	095b      	lsrs	r3, r3, #5
 8004660:	21e4      	movs	r1, #228	; 0xe4
 8004662:	187a      	adds	r2, r7, r1
 8004664:	6013      	str	r3, [r2, #0]
 8004666:	683b      	ldr	r3, [r7, #0]
 8004668:	691b      	ldr	r3, [r3, #16]
 800466a:	221f      	movs	r2, #31
 800466c:	4013      	ands	r3, r2
 800466e:	d104      	bne.n	800467a <USB_EPStartXfer+0xc52>
 8004670:	187b      	adds	r3, r7, r1
 8004672:	681b      	ldr	r3, [r3, #0]
 8004674:	3b01      	subs	r3, #1
 8004676:	187a      	adds	r2, r7, r1
 8004678:	6013      	str	r3, [r2, #0]
 800467a:	21a8      	movs	r1, #168	; 0xa8
 800467c:	187b      	adds	r3, r7, r1
 800467e:	681b      	ldr	r3, [r3, #0]
 8004680:	881b      	ldrh	r3, [r3, #0]
 8004682:	b29a      	uxth	r2, r3
 8004684:	23e4      	movs	r3, #228	; 0xe4
 8004686:	18fb      	adds	r3, r7, r3
 8004688:	681b      	ldr	r3, [r3, #0]
 800468a:	b29b      	uxth	r3, r3
 800468c:	029b      	lsls	r3, r3, #10
 800468e:	b29b      	uxth	r3, r3
 8004690:	4313      	orrs	r3, r2
 8004692:	b29b      	uxth	r3, r3
 8004694:	4a71      	ldr	r2, [pc, #452]	; (800485c <USB_EPStartXfer+0xe34>)
 8004696:	4313      	orrs	r3, r2
 8004698:	b29a      	uxth	r2, r3
 800469a:	187b      	adds	r3, r7, r1
 800469c:	681b      	ldr	r3, [r3, #0]
 800469e:	801a      	strh	r2, [r3, #0]
 80046a0:	e054      	b.n	800474c <USB_EPStartXfer+0xd24>
 80046a2:	683b      	ldr	r3, [r7, #0]
 80046a4:	691b      	ldr	r3, [r3, #16]
 80046a6:	2b00      	cmp	r3, #0
 80046a8:	d10b      	bne.n	80046c2 <USB_EPStartXfer+0xc9a>
 80046aa:	21a8      	movs	r1, #168	; 0xa8
 80046ac:	187b      	adds	r3, r7, r1
 80046ae:	681b      	ldr	r3, [r3, #0]
 80046b0:	881b      	ldrh	r3, [r3, #0]
 80046b2:	b29b      	uxth	r3, r3
 80046b4:	4a69      	ldr	r2, [pc, #420]	; (800485c <USB_EPStartXfer+0xe34>)
 80046b6:	4313      	orrs	r3, r2
 80046b8:	b29a      	uxth	r2, r3
 80046ba:	187b      	adds	r3, r7, r1
 80046bc:	681b      	ldr	r3, [r3, #0]
 80046be:	801a      	strh	r2, [r3, #0]
 80046c0:	e044      	b.n	800474c <USB_EPStartXfer+0xd24>
 80046c2:	683b      	ldr	r3, [r7, #0]
 80046c4:	691b      	ldr	r3, [r3, #16]
 80046c6:	085b      	lsrs	r3, r3, #1
 80046c8:	21e4      	movs	r1, #228	; 0xe4
 80046ca:	187a      	adds	r2, r7, r1
 80046cc:	6013      	str	r3, [r2, #0]
 80046ce:	683b      	ldr	r3, [r7, #0]
 80046d0:	691b      	ldr	r3, [r3, #16]
 80046d2:	2201      	movs	r2, #1
 80046d4:	4013      	ands	r3, r2
 80046d6:	d004      	beq.n	80046e2 <USB_EPStartXfer+0xcba>
 80046d8:	187b      	adds	r3, r7, r1
 80046da:	681b      	ldr	r3, [r3, #0]
 80046dc:	3301      	adds	r3, #1
 80046de:	187a      	adds	r2, r7, r1
 80046e0:	6013      	str	r3, [r2, #0]
 80046e2:	21a8      	movs	r1, #168	; 0xa8
 80046e4:	187b      	adds	r3, r7, r1
 80046e6:	681b      	ldr	r3, [r3, #0]
 80046e8:	881b      	ldrh	r3, [r3, #0]
 80046ea:	b29a      	uxth	r2, r3
 80046ec:	23e4      	movs	r3, #228	; 0xe4
 80046ee:	18fb      	adds	r3, r7, r3
 80046f0:	681b      	ldr	r3, [r3, #0]
 80046f2:	b29b      	uxth	r3, r3
 80046f4:	029b      	lsls	r3, r3, #10
 80046f6:	b29b      	uxth	r3, r3
 80046f8:	4313      	orrs	r3, r2
 80046fa:	b29a      	uxth	r2, r3
 80046fc:	187b      	adds	r3, r7, r1
 80046fe:	681b      	ldr	r3, [r3, #0]
 8004700:	801a      	strh	r2, [r3, #0]
 8004702:	e023      	b.n	800474c <USB_EPStartXfer+0xd24>
 8004704:	683b      	ldr	r3, [r7, #0]
 8004706:	785b      	ldrb	r3, [r3, #1]
 8004708:	2b01      	cmp	r3, #1
 800470a:	d11f      	bne.n	800474c <USB_EPStartXfer+0xd24>
 800470c:	687b      	ldr	r3, [r7, #4]
 800470e:	21b4      	movs	r1, #180	; 0xb4
 8004710:	187a      	adds	r2, r7, r1
 8004712:	6013      	str	r3, [r2, #0]
 8004714:	687b      	ldr	r3, [r7, #4]
 8004716:	2250      	movs	r2, #80	; 0x50
 8004718:	5a9b      	ldrh	r3, [r3, r2]
 800471a:	b29b      	uxth	r3, r3
 800471c:	001a      	movs	r2, r3
 800471e:	187b      	adds	r3, r7, r1
 8004720:	681b      	ldr	r3, [r3, #0]
 8004722:	189b      	adds	r3, r3, r2
 8004724:	187a      	adds	r2, r7, r1
 8004726:	6013      	str	r3, [r2, #0]
 8004728:	683b      	ldr	r3, [r7, #0]
 800472a:	781b      	ldrb	r3, [r3, #0]
 800472c:	00da      	lsls	r2, r3, #3
 800472e:	187b      	adds	r3, r7, r1
 8004730:	681b      	ldr	r3, [r3, #0]
 8004732:	18d3      	adds	r3, r2, r3
 8004734:	4a4a      	ldr	r2, [pc, #296]	; (8004860 <USB_EPStartXfer+0xe38>)
 8004736:	4694      	mov	ip, r2
 8004738:	4463      	add	r3, ip
 800473a:	21b0      	movs	r1, #176	; 0xb0
 800473c:	187a      	adds	r2, r7, r1
 800473e:	6013      	str	r3, [r2, #0]
 8004740:	683b      	ldr	r3, [r7, #0]
 8004742:	691b      	ldr	r3, [r3, #16]
 8004744:	b29a      	uxth	r2, r3
 8004746:	187b      	adds	r3, r7, r1
 8004748:	681b      	ldr	r3, [r3, #0]
 800474a:	801a      	strh	r2, [r3, #0]
 800474c:	687b      	ldr	r3, [r7, #4]
 800474e:	22a4      	movs	r2, #164	; 0xa4
 8004750:	18ba      	adds	r2, r7, r2
 8004752:	6013      	str	r3, [r2, #0]
 8004754:	683b      	ldr	r3, [r7, #0]
 8004756:	785b      	ldrb	r3, [r3, #1]
 8004758:	2b00      	cmp	r3, #0
 800475a:	d000      	beq.n	800475e <USB_EPStartXfer+0xd36>
 800475c:	e082      	b.n	8004864 <USB_EPStartXfer+0xe3c>
 800475e:	687b      	ldr	r3, [r7, #4]
 8004760:	219c      	movs	r1, #156	; 0x9c
 8004762:	187a      	adds	r2, r7, r1
 8004764:	6013      	str	r3, [r2, #0]
 8004766:	687b      	ldr	r3, [r7, #4]
 8004768:	2250      	movs	r2, #80	; 0x50
 800476a:	5a9b      	ldrh	r3, [r3, r2]
 800476c:	b29b      	uxth	r3, r3
 800476e:	001a      	movs	r2, r3
 8004770:	187b      	adds	r3, r7, r1
 8004772:	681b      	ldr	r3, [r3, #0]
 8004774:	189b      	adds	r3, r3, r2
 8004776:	187a      	adds	r2, r7, r1
 8004778:	6013      	str	r3, [r2, #0]
 800477a:	683b      	ldr	r3, [r7, #0]
 800477c:	781b      	ldrb	r3, [r3, #0]
 800477e:	00da      	lsls	r2, r3, #3
 8004780:	187b      	adds	r3, r7, r1
 8004782:	681b      	ldr	r3, [r3, #0]
 8004784:	18d3      	adds	r3, r2, r3
 8004786:	4a34      	ldr	r2, [pc, #208]	; (8004858 <USB_EPStartXfer+0xe30>)
 8004788:	4694      	mov	ip, r2
 800478a:	4463      	add	r3, ip
 800478c:	2198      	movs	r1, #152	; 0x98
 800478e:	187a      	adds	r2, r7, r1
 8004790:	6013      	str	r3, [r2, #0]
 8004792:	187b      	adds	r3, r7, r1
 8004794:	681b      	ldr	r3, [r3, #0]
 8004796:	881b      	ldrh	r3, [r3, #0]
 8004798:	b29b      	uxth	r3, r3
 800479a:	059b      	lsls	r3, r3, #22
 800479c:	0d9b      	lsrs	r3, r3, #22
 800479e:	b29a      	uxth	r2, r3
 80047a0:	187b      	adds	r3, r7, r1
 80047a2:	681b      	ldr	r3, [r3, #0]
 80047a4:	801a      	strh	r2, [r3, #0]
 80047a6:	683b      	ldr	r3, [r7, #0]
 80047a8:	691b      	ldr	r3, [r3, #16]
 80047aa:	2b3e      	cmp	r3, #62	; 0x3e
 80047ac:	d923      	bls.n	80047f6 <USB_EPStartXfer+0xdce>
 80047ae:	683b      	ldr	r3, [r7, #0]
 80047b0:	691b      	ldr	r3, [r3, #16]
 80047b2:	095b      	lsrs	r3, r3, #5
 80047b4:	21e0      	movs	r1, #224	; 0xe0
 80047b6:	187a      	adds	r2, r7, r1
 80047b8:	6013      	str	r3, [r2, #0]
 80047ba:	683b      	ldr	r3, [r7, #0]
 80047bc:	691b      	ldr	r3, [r3, #16]
 80047be:	221f      	movs	r2, #31
 80047c0:	4013      	ands	r3, r2
 80047c2:	d104      	bne.n	80047ce <USB_EPStartXfer+0xda6>
 80047c4:	187b      	adds	r3, r7, r1
 80047c6:	681b      	ldr	r3, [r3, #0]
 80047c8:	3b01      	subs	r3, #1
 80047ca:	187a      	adds	r2, r7, r1
 80047cc:	6013      	str	r3, [r2, #0]
 80047ce:	2198      	movs	r1, #152	; 0x98
 80047d0:	187b      	adds	r3, r7, r1
 80047d2:	681b      	ldr	r3, [r3, #0]
 80047d4:	881b      	ldrh	r3, [r3, #0]
 80047d6:	b29a      	uxth	r2, r3
 80047d8:	23e0      	movs	r3, #224	; 0xe0
 80047da:	18fb      	adds	r3, r7, r3
 80047dc:	681b      	ldr	r3, [r3, #0]
 80047de:	b29b      	uxth	r3, r3
 80047e0:	029b      	lsls	r3, r3, #10
 80047e2:	b29b      	uxth	r3, r3
 80047e4:	4313      	orrs	r3, r2
 80047e6:	b29b      	uxth	r3, r3
 80047e8:	4a1c      	ldr	r2, [pc, #112]	; (800485c <USB_EPStartXfer+0xe34>)
 80047ea:	4313      	orrs	r3, r2
 80047ec:	b29a      	uxth	r2, r3
 80047ee:	187b      	adds	r3, r7, r1
 80047f0:	681b      	ldr	r3, [r3, #0]
 80047f2:	801a      	strh	r2, [r3, #0]
 80047f4:	e057      	b.n	80048a6 <USB_EPStartXfer+0xe7e>
 80047f6:	683b      	ldr	r3, [r7, #0]
 80047f8:	691b      	ldr	r3, [r3, #16]
 80047fa:	2b00      	cmp	r3, #0
 80047fc:	d10b      	bne.n	8004816 <USB_EPStartXfer+0xdee>
 80047fe:	2198      	movs	r1, #152	; 0x98
 8004800:	187b      	adds	r3, r7, r1
 8004802:	681b      	ldr	r3, [r3, #0]
 8004804:	881b      	ldrh	r3, [r3, #0]
 8004806:	b29b      	uxth	r3, r3
 8004808:	4a14      	ldr	r2, [pc, #80]	; (800485c <USB_EPStartXfer+0xe34>)
 800480a:	4313      	orrs	r3, r2
 800480c:	b29a      	uxth	r2, r3
 800480e:	187b      	adds	r3, r7, r1
 8004810:	681b      	ldr	r3, [r3, #0]
 8004812:	801a      	strh	r2, [r3, #0]
 8004814:	e047      	b.n	80048a6 <USB_EPStartXfer+0xe7e>
 8004816:	683b      	ldr	r3, [r7, #0]
 8004818:	691b      	ldr	r3, [r3, #16]
 800481a:	085b      	lsrs	r3, r3, #1
 800481c:	21e0      	movs	r1, #224	; 0xe0
 800481e:	187a      	adds	r2, r7, r1
 8004820:	6013      	str	r3, [r2, #0]
 8004822:	683b      	ldr	r3, [r7, #0]
 8004824:	691b      	ldr	r3, [r3, #16]
 8004826:	2201      	movs	r2, #1
 8004828:	4013      	ands	r3, r2
 800482a:	d004      	beq.n	8004836 <USB_EPStartXfer+0xe0e>
 800482c:	187b      	adds	r3, r7, r1
 800482e:	681b      	ldr	r3, [r3, #0]
 8004830:	3301      	adds	r3, #1
 8004832:	187a      	adds	r2, r7, r1
 8004834:	6013      	str	r3, [r2, #0]
 8004836:	2198      	movs	r1, #152	; 0x98
 8004838:	187b      	adds	r3, r7, r1
 800483a:	681b      	ldr	r3, [r3, #0]
 800483c:	881b      	ldrh	r3, [r3, #0]
 800483e:	b29a      	uxth	r2, r3
 8004840:	23e0      	movs	r3, #224	; 0xe0
 8004842:	18fb      	adds	r3, r7, r3
 8004844:	681b      	ldr	r3, [r3, #0]
 8004846:	b29b      	uxth	r3, r3
 8004848:	029b      	lsls	r3, r3, #10
 800484a:	b29b      	uxth	r3, r3
 800484c:	4313      	orrs	r3, r2
 800484e:	b29a      	uxth	r2, r3
 8004850:	187b      	adds	r3, r7, r1
 8004852:	681b      	ldr	r3, [r3, #0]
 8004854:	801a      	strh	r2, [r3, #0]
 8004856:	e026      	b.n	80048a6 <USB_EPStartXfer+0xe7e>
 8004858:	00000406 	.word	0x00000406
 800485c:	ffff8000 	.word	0xffff8000
 8004860:	00000402 	.word	0x00000402
 8004864:	683b      	ldr	r3, [r7, #0]
 8004866:	785b      	ldrb	r3, [r3, #1]
 8004868:	2b01      	cmp	r3, #1
 800486a:	d11c      	bne.n	80048a6 <USB_EPStartXfer+0xe7e>
 800486c:	687b      	ldr	r3, [r7, #4]
 800486e:	2250      	movs	r2, #80	; 0x50
 8004870:	5a9b      	ldrh	r3, [r3, r2]
 8004872:	b29b      	uxth	r3, r3
 8004874:	001a      	movs	r2, r3
 8004876:	21a4      	movs	r1, #164	; 0xa4
 8004878:	187b      	adds	r3, r7, r1
 800487a:	681b      	ldr	r3, [r3, #0]
 800487c:	189b      	adds	r3, r3, r2
 800487e:	187a      	adds	r2, r7, r1
 8004880:	6013      	str	r3, [r2, #0]
 8004882:	683b      	ldr	r3, [r7, #0]
 8004884:	781b      	ldrb	r3, [r3, #0]
 8004886:	00da      	lsls	r2, r3, #3
 8004888:	187b      	adds	r3, r7, r1
 800488a:	681b      	ldr	r3, [r3, #0]
 800488c:	18d3      	adds	r3, r2, r3
 800488e:	4ad2      	ldr	r2, [pc, #840]	; (8004bd8 <USB_EPStartXfer+0x11b0>)
 8004890:	4694      	mov	ip, r2
 8004892:	4463      	add	r3, ip
 8004894:	21a0      	movs	r1, #160	; 0xa0
 8004896:	187a      	adds	r2, r7, r1
 8004898:	6013      	str	r3, [r2, #0]
 800489a:	683b      	ldr	r3, [r7, #0]
 800489c:	691b      	ldr	r3, [r3, #16]
 800489e:	b29a      	uxth	r2, r3
 80048a0:	187b      	adds	r3, r7, r1
 80048a2:	681b      	ldr	r3, [r3, #0]
 80048a4:	801a      	strh	r2, [r3, #0]

        /* Coming from ISR */
        if (ep->xfer_count != 0U)
 80048a6:	683b      	ldr	r3, [r7, #0]
 80048a8:	69db      	ldr	r3, [r3, #28]
 80048aa:	2b00      	cmp	r3, #0
 80048ac:	d100      	bne.n	80048b0 <USB_EPStartXfer+0xe88>
 80048ae:	e1c2      	b.n	8004c36 <USB_EPStartXfer+0x120e>
        {
          /* update last value to check if there is blocking state */
          wEPVal = PCD_GET_ENDPOINT(USBx, ep->num);
 80048b0:	687a      	ldr	r2, [r7, #4]
 80048b2:	683b      	ldr	r3, [r7, #0]
 80048b4:	781b      	ldrb	r3, [r3, #0]
 80048b6:	009b      	lsls	r3, r3, #2
 80048b8:	18d2      	adds	r2, r2, r3
 80048ba:	2196      	movs	r1, #150	; 0x96
 80048bc:	187b      	adds	r3, r7, r1
 80048be:	8812      	ldrh	r2, [r2, #0]
 80048c0:	801a      	strh	r2, [r3, #0]

          /*Blocking State */
          if ((((wEPVal & USB_EP_DTOG_RX) != 0U) && ((wEPVal & USB_EP_DTOG_TX) != 0U)) ||
 80048c2:	187b      	adds	r3, r7, r1
 80048c4:	881a      	ldrh	r2, [r3, #0]
 80048c6:	2380      	movs	r3, #128	; 0x80
 80048c8:	01db      	lsls	r3, r3, #7
 80048ca:	4013      	ands	r3, r2
 80048cc:	d004      	beq.n	80048d8 <USB_EPStartXfer+0xeb0>
 80048ce:	187b      	adds	r3, r7, r1
 80048d0:	881b      	ldrh	r3, [r3, #0]
 80048d2:	2240      	movs	r2, #64	; 0x40
 80048d4:	4013      	ands	r3, r2
 80048d6:	d10d      	bne.n	80048f4 <USB_EPStartXfer+0xecc>
              (((wEPVal & USB_EP_DTOG_RX) == 0U) && ((wEPVal & USB_EP_DTOG_TX) == 0U)))
 80048d8:	2196      	movs	r1, #150	; 0x96
 80048da:	187b      	adds	r3, r7, r1
 80048dc:	881a      	ldrh	r2, [r3, #0]
 80048de:	2380      	movs	r3, #128	; 0x80
 80048e0:	01db      	lsls	r3, r3, #7
 80048e2:	4013      	ands	r3, r2
          if ((((wEPVal & USB_EP_DTOG_RX) != 0U) && ((wEPVal & USB_EP_DTOG_TX) != 0U)) ||
 80048e4:	d000      	beq.n	80048e8 <USB_EPStartXfer+0xec0>
 80048e6:	e1a6      	b.n	8004c36 <USB_EPStartXfer+0x120e>
              (((wEPVal & USB_EP_DTOG_RX) == 0U) && ((wEPVal & USB_EP_DTOG_TX) == 0U)))
 80048e8:	187b      	adds	r3, r7, r1
 80048ea:	881b      	ldrh	r3, [r3, #0]
 80048ec:	2240      	movs	r2, #64	; 0x40
 80048ee:	4013      	ands	r3, r2
 80048f0:	d000      	beq.n	80048f4 <USB_EPStartXfer+0xecc>
 80048f2:	e1a0      	b.n	8004c36 <USB_EPStartXfer+0x120e>
          {
            PCD_FREE_USER_BUFFER(USBx, ep->num, 0U);
 80048f4:	687a      	ldr	r2, [r7, #4]
 80048f6:	683b      	ldr	r3, [r7, #0]
 80048f8:	781b      	ldrb	r3, [r3, #0]
 80048fa:	009b      	lsls	r3, r3, #2
 80048fc:	18d3      	adds	r3, r2, r3
 80048fe:	881b      	ldrh	r3, [r3, #0]
 8004900:	b29a      	uxth	r2, r3
 8004902:	2094      	movs	r0, #148	; 0x94
 8004904:	183b      	adds	r3, r7, r0
 8004906:	49b5      	ldr	r1, [pc, #724]	; (8004bdc <USB_EPStartXfer+0x11b4>)
 8004908:	400a      	ands	r2, r1
 800490a:	801a      	strh	r2, [r3, #0]
 800490c:	687a      	ldr	r2, [r7, #4]
 800490e:	683b      	ldr	r3, [r7, #0]
 8004910:	781b      	ldrb	r3, [r3, #0]
 8004912:	009b      	lsls	r3, r3, #2
 8004914:	18d3      	adds	r3, r2, r3
 8004916:	183a      	adds	r2, r7, r0
 8004918:	8812      	ldrh	r2, [r2, #0]
 800491a:	49b1      	ldr	r1, [pc, #708]	; (8004be0 <USB_EPStartXfer+0x11b8>)
 800491c:	430a      	orrs	r2, r1
 800491e:	b292      	uxth	r2, r2
 8004920:	801a      	strh	r2, [r3, #0]
 8004922:	e188      	b.n	8004c36 <USB_EPStartXfer+0x120e>
          }
        }
      }
      /* iso out double */
      else if (ep->type == EP_TYPE_ISOC)
 8004924:	683b      	ldr	r3, [r7, #0]
 8004926:	78db      	ldrb	r3, [r3, #3]
 8004928:	2b01      	cmp	r3, #1
 800492a:	d000      	beq.n	800492e <USB_EPStartXfer+0xf06>
 800492c:	e181      	b.n	8004c32 <USB_EPStartXfer+0x120a>
      {
        /* Multi packet transfer */
        if (ep->xfer_len > ep->maxpacket)
 800492e:	683b      	ldr	r3, [r7, #0]
 8004930:	699a      	ldr	r2, [r3, #24]
 8004932:	683b      	ldr	r3, [r7, #0]
 8004934:	691b      	ldr	r3, [r3, #16]
 8004936:	429a      	cmp	r2, r3
 8004938:	d90d      	bls.n	8004956 <USB_EPStartXfer+0xf2e>
        {
          len = ep->maxpacket;
 800493a:	683b      	ldr	r3, [r7, #0]
 800493c:	691b      	ldr	r3, [r3, #16]
 800493e:	1d7a      	adds	r2, r7, #5
 8004940:	32ff      	adds	r2, #255	; 0xff
 8004942:	6013      	str	r3, [r2, #0]
          ep->xfer_len -= len;
 8004944:	683b      	ldr	r3, [r7, #0]
 8004946:	699a      	ldr	r2, [r3, #24]
 8004948:	1d7b      	adds	r3, r7, #5
 800494a:	33ff      	adds	r3, #255	; 0xff
 800494c:	681b      	ldr	r3, [r3, #0]
 800494e:	1ad2      	subs	r2, r2, r3
 8004950:	683b      	ldr	r3, [r7, #0]
 8004952:	619a      	str	r2, [r3, #24]
 8004954:	e007      	b.n	8004966 <USB_EPStartXfer+0xf3e>
        }
        else
        {
          len = ep->xfer_len;
 8004956:	683b      	ldr	r3, [r7, #0]
 8004958:	699b      	ldr	r3, [r3, #24]
 800495a:	1d7a      	adds	r2, r7, #5
 800495c:	32ff      	adds	r2, #255	; 0xff
 800495e:	6013      	str	r3, [r2, #0]
          ep->xfer_len = 0U;
 8004960:	683b      	ldr	r3, [r7, #0]
 8004962:	2200      	movs	r2, #0
 8004964:	619a      	str	r2, [r3, #24]
        }
        PCD_SET_EP_DBUF_CNT(USBx, ep->num, ep->is_in, len);
 8004966:	683b      	ldr	r3, [r7, #0]
 8004968:	785b      	ldrb	r3, [r3, #1]
 800496a:	2b00      	cmp	r3, #0
 800496c:	d000      	beq.n	8004970 <USB_EPStartXfer+0xf48>
 800496e:	e082      	b.n	8004a76 <USB_EPStartXfer+0x104e>
 8004970:	687b      	ldr	r3, [r7, #4]
 8004972:	21cc      	movs	r1, #204	; 0xcc
 8004974:	187a      	adds	r2, r7, r1
 8004976:	6013      	str	r3, [r2, #0]
 8004978:	687b      	ldr	r3, [r7, #4]
 800497a:	2250      	movs	r2, #80	; 0x50
 800497c:	5a9b      	ldrh	r3, [r3, r2]
 800497e:	b29b      	uxth	r3, r3
 8004980:	001a      	movs	r2, r3
 8004982:	187b      	adds	r3, r7, r1
 8004984:	681b      	ldr	r3, [r3, #0]
 8004986:	189b      	adds	r3, r3, r2
 8004988:	187a      	adds	r2, r7, r1
 800498a:	6013      	str	r3, [r2, #0]
 800498c:	683b      	ldr	r3, [r7, #0]
 800498e:	781b      	ldrb	r3, [r3, #0]
 8004990:	00da      	lsls	r2, r3, #3
 8004992:	187b      	adds	r3, r7, r1
 8004994:	681b      	ldr	r3, [r3, #0]
 8004996:	18d3      	adds	r3, r2, r3
 8004998:	4a92      	ldr	r2, [pc, #584]	; (8004be4 <USB_EPStartXfer+0x11bc>)
 800499a:	4694      	mov	ip, r2
 800499c:	4463      	add	r3, ip
 800499e:	21c8      	movs	r1, #200	; 0xc8
 80049a0:	187a      	adds	r2, r7, r1
 80049a2:	6013      	str	r3, [r2, #0]
 80049a4:	187b      	adds	r3, r7, r1
 80049a6:	681b      	ldr	r3, [r3, #0]
 80049a8:	881b      	ldrh	r3, [r3, #0]
 80049aa:	b29b      	uxth	r3, r3
 80049ac:	059b      	lsls	r3, r3, #22
 80049ae:	0d9b      	lsrs	r3, r3, #22
 80049b0:	b29a      	uxth	r2, r3
 80049b2:	187b      	adds	r3, r7, r1
 80049b4:	681b      	ldr	r3, [r3, #0]
 80049b6:	801a      	strh	r2, [r3, #0]
 80049b8:	1d7b      	adds	r3, r7, #5
 80049ba:	33ff      	adds	r3, #255	; 0xff
 80049bc:	681b      	ldr	r3, [r3, #0]
 80049be:	2b3e      	cmp	r3, #62	; 0x3e
 80049c0:	d925      	bls.n	8004a0e <USB_EPStartXfer+0xfe6>
 80049c2:	1d7b      	adds	r3, r7, #5
 80049c4:	33ff      	adds	r3, #255	; 0xff
 80049c6:	681b      	ldr	r3, [r3, #0]
 80049c8:	095b      	lsrs	r3, r3, #5
 80049ca:	21dc      	movs	r1, #220	; 0xdc
 80049cc:	187a      	adds	r2, r7, r1
 80049ce:	6013      	str	r3, [r2, #0]
 80049d0:	1d7b      	adds	r3, r7, #5
 80049d2:	33ff      	adds	r3, #255	; 0xff
 80049d4:	681b      	ldr	r3, [r3, #0]
 80049d6:	221f      	movs	r2, #31
 80049d8:	4013      	ands	r3, r2
 80049da:	d104      	bne.n	80049e6 <USB_EPStartXfer+0xfbe>
 80049dc:	187b      	adds	r3, r7, r1
 80049de:	681b      	ldr	r3, [r3, #0]
 80049e0:	3b01      	subs	r3, #1
 80049e2:	187a      	adds	r2, r7, r1
 80049e4:	6013      	str	r3, [r2, #0]
 80049e6:	21c8      	movs	r1, #200	; 0xc8
 80049e8:	187b      	adds	r3, r7, r1
 80049ea:	681b      	ldr	r3, [r3, #0]
 80049ec:	881b      	ldrh	r3, [r3, #0]
 80049ee:	b29a      	uxth	r2, r3
 80049f0:	23dc      	movs	r3, #220	; 0xdc
 80049f2:	18fb      	adds	r3, r7, r3
 80049f4:	681b      	ldr	r3, [r3, #0]
 80049f6:	b29b      	uxth	r3, r3
 80049f8:	029b      	lsls	r3, r3, #10
 80049fa:	b29b      	uxth	r3, r3
 80049fc:	4313      	orrs	r3, r2
 80049fe:	b29b      	uxth	r3, r3
 8004a00:	4a79      	ldr	r2, [pc, #484]	; (8004be8 <USB_EPStartXfer+0x11c0>)
 8004a02:	4313      	orrs	r3, r2
 8004a04:	b29a      	uxth	r2, r3
 8004a06:	187b      	adds	r3, r7, r1
 8004a08:	681b      	ldr	r3, [r3, #0]
 8004a0a:	801a      	strh	r2, [r3, #0]
 8004a0c:	e058      	b.n	8004ac0 <USB_EPStartXfer+0x1098>
 8004a0e:	1d7b      	adds	r3, r7, #5
 8004a10:	33ff      	adds	r3, #255	; 0xff
 8004a12:	681b      	ldr	r3, [r3, #0]
 8004a14:	2b00      	cmp	r3, #0
 8004a16:	d10b      	bne.n	8004a30 <USB_EPStartXfer+0x1008>
 8004a18:	21c8      	movs	r1, #200	; 0xc8
 8004a1a:	187b      	adds	r3, r7, r1
 8004a1c:	681b      	ldr	r3, [r3, #0]
 8004a1e:	881b      	ldrh	r3, [r3, #0]
 8004a20:	b29b      	uxth	r3, r3
 8004a22:	4a71      	ldr	r2, [pc, #452]	; (8004be8 <USB_EPStartXfer+0x11c0>)
 8004a24:	4313      	orrs	r3, r2
 8004a26:	b29a      	uxth	r2, r3
 8004a28:	187b      	adds	r3, r7, r1
 8004a2a:	681b      	ldr	r3, [r3, #0]
 8004a2c:	801a      	strh	r2, [r3, #0]
 8004a2e:	e047      	b.n	8004ac0 <USB_EPStartXfer+0x1098>
 8004a30:	1d7b      	adds	r3, r7, #5
 8004a32:	33ff      	adds	r3, #255	; 0xff
 8004a34:	681b      	ldr	r3, [r3, #0]
 8004a36:	085b      	lsrs	r3, r3, #1
 8004a38:	21dc      	movs	r1, #220	; 0xdc
 8004a3a:	187a      	adds	r2, r7, r1
 8004a3c:	6013      	str	r3, [r2, #0]
 8004a3e:	1d7b      	adds	r3, r7, #5
 8004a40:	33ff      	adds	r3, #255	; 0xff
 8004a42:	681b      	ldr	r3, [r3, #0]
 8004a44:	2201      	movs	r2, #1
 8004a46:	4013      	ands	r3, r2
 8004a48:	d004      	beq.n	8004a54 <USB_EPStartXfer+0x102c>
 8004a4a:	187b      	adds	r3, r7, r1
 8004a4c:	681b      	ldr	r3, [r3, #0]
 8004a4e:	3301      	adds	r3, #1
 8004a50:	187a      	adds	r2, r7, r1
 8004a52:	6013      	str	r3, [r2, #0]
 8004a54:	21c8      	movs	r1, #200	; 0xc8
 8004a56:	187b      	adds	r3, r7, r1
 8004a58:	681b      	ldr	r3, [r3, #0]
 8004a5a:	881b      	ldrh	r3, [r3, #0]
 8004a5c:	b29a      	uxth	r2, r3
 8004a5e:	23dc      	movs	r3, #220	; 0xdc
 8004a60:	18fb      	adds	r3, r7, r3
 8004a62:	681b      	ldr	r3, [r3, #0]
 8004a64:	b29b      	uxth	r3, r3
 8004a66:	029b      	lsls	r3, r3, #10
 8004a68:	b29b      	uxth	r3, r3
 8004a6a:	4313      	orrs	r3, r2
 8004a6c:	b29a      	uxth	r2, r3
 8004a6e:	187b      	adds	r3, r7, r1
 8004a70:	681b      	ldr	r3, [r3, #0]
 8004a72:	801a      	strh	r2, [r3, #0]
 8004a74:	e024      	b.n	8004ac0 <USB_EPStartXfer+0x1098>
 8004a76:	683b      	ldr	r3, [r7, #0]
 8004a78:	785b      	ldrb	r3, [r3, #1]
 8004a7a:	2b01      	cmp	r3, #1
 8004a7c:	d120      	bne.n	8004ac0 <USB_EPStartXfer+0x1098>
 8004a7e:	687b      	ldr	r3, [r7, #4]
 8004a80:	21d4      	movs	r1, #212	; 0xd4
 8004a82:	187a      	adds	r2, r7, r1
 8004a84:	6013      	str	r3, [r2, #0]
 8004a86:	687b      	ldr	r3, [r7, #4]
 8004a88:	2250      	movs	r2, #80	; 0x50
 8004a8a:	5a9b      	ldrh	r3, [r3, r2]
 8004a8c:	b29b      	uxth	r3, r3
 8004a8e:	001a      	movs	r2, r3
 8004a90:	187b      	adds	r3, r7, r1
 8004a92:	681b      	ldr	r3, [r3, #0]
 8004a94:	189b      	adds	r3, r3, r2
 8004a96:	187a      	adds	r2, r7, r1
 8004a98:	6013      	str	r3, [r2, #0]
 8004a9a:	683b      	ldr	r3, [r7, #0]
 8004a9c:	781b      	ldrb	r3, [r3, #0]
 8004a9e:	00da      	lsls	r2, r3, #3
 8004aa0:	187b      	adds	r3, r7, r1
 8004aa2:	681b      	ldr	r3, [r3, #0]
 8004aa4:	18d3      	adds	r3, r2, r3
 8004aa6:	4a4f      	ldr	r2, [pc, #316]	; (8004be4 <USB_EPStartXfer+0x11bc>)
 8004aa8:	4694      	mov	ip, r2
 8004aaa:	4463      	add	r3, ip
 8004aac:	21d0      	movs	r1, #208	; 0xd0
 8004aae:	187a      	adds	r2, r7, r1
 8004ab0:	6013      	str	r3, [r2, #0]
 8004ab2:	1d7b      	adds	r3, r7, #5
 8004ab4:	33ff      	adds	r3, #255	; 0xff
 8004ab6:	681b      	ldr	r3, [r3, #0]
 8004ab8:	b29a      	uxth	r2, r3
 8004aba:	187b      	adds	r3, r7, r1
 8004abc:	681b      	ldr	r3, [r3, #0]
 8004abe:	801a      	strh	r2, [r3, #0]
 8004ac0:	687b      	ldr	r3, [r7, #4]
 8004ac2:	22c4      	movs	r2, #196	; 0xc4
 8004ac4:	18ba      	adds	r2, r7, r2
 8004ac6:	6013      	str	r3, [r2, #0]
 8004ac8:	683b      	ldr	r3, [r7, #0]
 8004aca:	785b      	ldrb	r3, [r3, #1]
 8004acc:	2b00      	cmp	r3, #0
 8004ace:	d000      	beq.n	8004ad2 <USB_EPStartXfer+0x10aa>
 8004ad0:	e08c      	b.n	8004bec <USB_EPStartXfer+0x11c4>
 8004ad2:	687b      	ldr	r3, [r7, #4]
 8004ad4:	21bc      	movs	r1, #188	; 0xbc
 8004ad6:	187a      	adds	r2, r7, r1
 8004ad8:	6013      	str	r3, [r2, #0]
 8004ada:	687b      	ldr	r3, [r7, #4]
 8004adc:	2250      	movs	r2, #80	; 0x50
 8004ade:	5a9b      	ldrh	r3, [r3, r2]
 8004ae0:	b29b      	uxth	r3, r3
 8004ae2:	001a      	movs	r2, r3
 8004ae4:	187b      	adds	r3, r7, r1
 8004ae6:	681b      	ldr	r3, [r3, #0]
 8004ae8:	189b      	adds	r3, r3, r2
 8004aea:	187a      	adds	r2, r7, r1
 8004aec:	6013      	str	r3, [r2, #0]
 8004aee:	683b      	ldr	r3, [r7, #0]
 8004af0:	781b      	ldrb	r3, [r3, #0]
 8004af2:	00da      	lsls	r2, r3, #3
 8004af4:	187b      	adds	r3, r7, r1
 8004af6:	681b      	ldr	r3, [r3, #0]
 8004af8:	18d3      	adds	r3, r2, r3
 8004afa:	4a37      	ldr	r2, [pc, #220]	; (8004bd8 <USB_EPStartXfer+0x11b0>)
 8004afc:	4694      	mov	ip, r2
 8004afe:	4463      	add	r3, ip
 8004b00:	21b8      	movs	r1, #184	; 0xb8
 8004b02:	187a      	adds	r2, r7, r1
 8004b04:	6013      	str	r3, [r2, #0]
 8004b06:	187b      	adds	r3, r7, r1
 8004b08:	681b      	ldr	r3, [r3, #0]
 8004b0a:	881b      	ldrh	r3, [r3, #0]
 8004b0c:	b29b      	uxth	r3, r3
 8004b0e:	059b      	lsls	r3, r3, #22
 8004b10:	0d9b      	lsrs	r3, r3, #22
 8004b12:	b29a      	uxth	r2, r3
 8004b14:	187b      	adds	r3, r7, r1
 8004b16:	681b      	ldr	r3, [r3, #0]
 8004b18:	801a      	strh	r2, [r3, #0]
 8004b1a:	1d7b      	adds	r3, r7, #5
 8004b1c:	33ff      	adds	r3, #255	; 0xff
 8004b1e:	681b      	ldr	r3, [r3, #0]
 8004b20:	2b3e      	cmp	r3, #62	; 0x3e
 8004b22:	d925      	bls.n	8004b70 <USB_EPStartXfer+0x1148>
 8004b24:	1d7b      	adds	r3, r7, #5
 8004b26:	33ff      	adds	r3, #255	; 0xff
 8004b28:	681b      	ldr	r3, [r3, #0]
 8004b2a:	095b      	lsrs	r3, r3, #5
 8004b2c:	21d8      	movs	r1, #216	; 0xd8
 8004b2e:	187a      	adds	r2, r7, r1
 8004b30:	6013      	str	r3, [r2, #0]
 8004b32:	1d7b      	adds	r3, r7, #5
 8004b34:	33ff      	adds	r3, #255	; 0xff
 8004b36:	681b      	ldr	r3, [r3, #0]
 8004b38:	221f      	movs	r2, #31
 8004b3a:	4013      	ands	r3, r2
 8004b3c:	d104      	bne.n	8004b48 <USB_EPStartXfer+0x1120>
 8004b3e:	187b      	adds	r3, r7, r1
 8004b40:	681b      	ldr	r3, [r3, #0]
 8004b42:	3b01      	subs	r3, #1
 8004b44:	187a      	adds	r2, r7, r1
 8004b46:	6013      	str	r3, [r2, #0]
 8004b48:	21b8      	movs	r1, #184	; 0xb8
 8004b4a:	187b      	adds	r3, r7, r1
 8004b4c:	681b      	ldr	r3, [r3, #0]
 8004b4e:	881b      	ldrh	r3, [r3, #0]
 8004b50:	b29a      	uxth	r2, r3
 8004b52:	23d8      	movs	r3, #216	; 0xd8
 8004b54:	18fb      	adds	r3, r7, r3
 8004b56:	681b      	ldr	r3, [r3, #0]
 8004b58:	b29b      	uxth	r3, r3
 8004b5a:	029b      	lsls	r3, r3, #10
 8004b5c:	b29b      	uxth	r3, r3
 8004b5e:	4313      	orrs	r3, r2
 8004b60:	b29b      	uxth	r3, r3
 8004b62:	4a21      	ldr	r2, [pc, #132]	; (8004be8 <USB_EPStartXfer+0x11c0>)
 8004b64:	4313      	orrs	r3, r2
 8004b66:	b29a      	uxth	r2, r3
 8004b68:	187b      	adds	r3, r7, r1
 8004b6a:	681b      	ldr	r3, [r3, #0]
 8004b6c:	801a      	strh	r2, [r3, #0]
 8004b6e:	e062      	b.n	8004c36 <USB_EPStartXfer+0x120e>
 8004b70:	1d7b      	adds	r3, r7, #5
 8004b72:	33ff      	adds	r3, #255	; 0xff
 8004b74:	681b      	ldr	r3, [r3, #0]
 8004b76:	2b00      	cmp	r3, #0
 8004b78:	d10b      	bne.n	8004b92 <USB_EPStartXfer+0x116a>
 8004b7a:	21b8      	movs	r1, #184	; 0xb8
 8004b7c:	187b      	adds	r3, r7, r1
 8004b7e:	681b      	ldr	r3, [r3, #0]
 8004b80:	881b      	ldrh	r3, [r3, #0]
 8004b82:	b29b      	uxth	r3, r3
 8004b84:	4a18      	ldr	r2, [pc, #96]	; (8004be8 <USB_EPStartXfer+0x11c0>)
 8004b86:	4313      	orrs	r3, r2
 8004b88:	b29a      	uxth	r2, r3
 8004b8a:	187b      	adds	r3, r7, r1
 8004b8c:	681b      	ldr	r3, [r3, #0]
 8004b8e:	801a      	strh	r2, [r3, #0]
 8004b90:	e051      	b.n	8004c36 <USB_EPStartXfer+0x120e>
 8004b92:	1d7b      	adds	r3, r7, #5
 8004b94:	33ff      	adds	r3, #255	; 0xff
 8004b96:	681b      	ldr	r3, [r3, #0]
 8004b98:	085b      	lsrs	r3, r3, #1
 8004b9a:	21d8      	movs	r1, #216	; 0xd8
 8004b9c:	187a      	adds	r2, r7, r1
 8004b9e:	6013      	str	r3, [r2, #0]
 8004ba0:	1d7b      	adds	r3, r7, #5
 8004ba2:	33ff      	adds	r3, #255	; 0xff
 8004ba4:	681b      	ldr	r3, [r3, #0]
 8004ba6:	2201      	movs	r2, #1
 8004ba8:	4013      	ands	r3, r2
 8004baa:	d004      	beq.n	8004bb6 <USB_EPStartXfer+0x118e>
 8004bac:	187b      	adds	r3, r7, r1
 8004bae:	681b      	ldr	r3, [r3, #0]
 8004bb0:	3301      	adds	r3, #1
 8004bb2:	187a      	adds	r2, r7, r1
 8004bb4:	6013      	str	r3, [r2, #0]
 8004bb6:	21b8      	movs	r1, #184	; 0xb8
 8004bb8:	187b      	adds	r3, r7, r1
 8004bba:	681b      	ldr	r3, [r3, #0]
 8004bbc:	881b      	ldrh	r3, [r3, #0]
 8004bbe:	b29a      	uxth	r2, r3
 8004bc0:	23d8      	movs	r3, #216	; 0xd8
 8004bc2:	18fb      	adds	r3, r7, r3
 8004bc4:	681b      	ldr	r3, [r3, #0]
 8004bc6:	b29b      	uxth	r3, r3
 8004bc8:	029b      	lsls	r3, r3, #10
 8004bca:	b29b      	uxth	r3, r3
 8004bcc:	4313      	orrs	r3, r2
 8004bce:	b29a      	uxth	r2, r3
 8004bd0:	187b      	adds	r3, r7, r1
 8004bd2:	681b      	ldr	r3, [r3, #0]
 8004bd4:	801a      	strh	r2, [r3, #0]
 8004bd6:	e02e      	b.n	8004c36 <USB_EPStartXfer+0x120e>
 8004bd8:	00000406 	.word	0x00000406
 8004bdc:	ffff8f8f 	.word	0xffff8f8f
 8004be0:	ffff80c0 	.word	0xffff80c0
 8004be4:	00000402 	.word	0x00000402
 8004be8:	ffff8000 	.word	0xffff8000
 8004bec:	683b      	ldr	r3, [r7, #0]
 8004bee:	785b      	ldrb	r3, [r3, #1]
 8004bf0:	2b01      	cmp	r3, #1
 8004bf2:	d120      	bne.n	8004c36 <USB_EPStartXfer+0x120e>
 8004bf4:	687b      	ldr	r3, [r7, #4]
 8004bf6:	2250      	movs	r2, #80	; 0x50
 8004bf8:	5a9b      	ldrh	r3, [r3, r2]
 8004bfa:	b29b      	uxth	r3, r3
 8004bfc:	001a      	movs	r2, r3
 8004bfe:	21c4      	movs	r1, #196	; 0xc4
 8004c00:	187b      	adds	r3, r7, r1
 8004c02:	681b      	ldr	r3, [r3, #0]
 8004c04:	189b      	adds	r3, r3, r2
 8004c06:	187a      	adds	r2, r7, r1
 8004c08:	6013      	str	r3, [r2, #0]
 8004c0a:	683b      	ldr	r3, [r7, #0]
 8004c0c:	781b      	ldrb	r3, [r3, #0]
 8004c0e:	00da      	lsls	r2, r3, #3
 8004c10:	187b      	adds	r3, r7, r1
 8004c12:	681b      	ldr	r3, [r3, #0]
 8004c14:	18d3      	adds	r3, r2, r3
 8004c16:	4a1d      	ldr	r2, [pc, #116]	; (8004c8c <USB_EPStartXfer+0x1264>)
 8004c18:	4694      	mov	ip, r2
 8004c1a:	4463      	add	r3, ip
 8004c1c:	21c0      	movs	r1, #192	; 0xc0
 8004c1e:	187a      	adds	r2, r7, r1
 8004c20:	6013      	str	r3, [r2, #0]
 8004c22:	1d7b      	adds	r3, r7, #5
 8004c24:	33ff      	adds	r3, #255	; 0xff
 8004c26:	681b      	ldr	r3, [r3, #0]
 8004c28:	b29a      	uxth	r2, r3
 8004c2a:	187b      	adds	r3, r7, r1
 8004c2c:	681b      	ldr	r3, [r3, #0]
 8004c2e:	801a      	strh	r2, [r3, #0]
 8004c30:	e001      	b.n	8004c36 <USB_EPStartXfer+0x120e>
      }
      else
      {
        return HAL_ERROR;
 8004c32:	2301      	movs	r3, #1
 8004c34:	e025      	b.n	8004c82 <USB_EPStartXfer+0x125a>
      }
    }
#endif /* (USE_USB_DOUBLE_BUFFER == 1U) */

    PCD_SET_EP_RX_STATUS(USBx, ep->num, USB_EP_RX_VALID);
 8004c36:	687a      	ldr	r2, [r7, #4]
 8004c38:	683b      	ldr	r3, [r7, #0]
 8004c3a:	781b      	ldrb	r3, [r3, #0]
 8004c3c:	009b      	lsls	r3, r3, #2
 8004c3e:	18d3      	adds	r3, r2, r3
 8004c40:	881b      	ldrh	r3, [r3, #0]
 8004c42:	b29a      	uxth	r2, r3
 8004c44:	208a      	movs	r0, #138	; 0x8a
 8004c46:	183b      	adds	r3, r7, r0
 8004c48:	4911      	ldr	r1, [pc, #68]	; (8004c90 <USB_EPStartXfer+0x1268>)
 8004c4a:	400a      	ands	r2, r1
 8004c4c:	801a      	strh	r2, [r3, #0]
 8004c4e:	183b      	adds	r3, r7, r0
 8004c50:	183a      	adds	r2, r7, r0
 8004c52:	8812      	ldrh	r2, [r2, #0]
 8004c54:	2180      	movs	r1, #128	; 0x80
 8004c56:	0149      	lsls	r1, r1, #5
 8004c58:	404a      	eors	r2, r1
 8004c5a:	801a      	strh	r2, [r3, #0]
 8004c5c:	183b      	adds	r3, r7, r0
 8004c5e:	183a      	adds	r2, r7, r0
 8004c60:	8812      	ldrh	r2, [r2, #0]
 8004c62:	2180      	movs	r1, #128	; 0x80
 8004c64:	0189      	lsls	r1, r1, #6
 8004c66:	404a      	eors	r2, r1
 8004c68:	801a      	strh	r2, [r3, #0]
 8004c6a:	687a      	ldr	r2, [r7, #4]
 8004c6c:	683b      	ldr	r3, [r7, #0]
 8004c6e:	781b      	ldrb	r3, [r3, #0]
 8004c70:	009b      	lsls	r3, r3, #2
 8004c72:	18d3      	adds	r3, r2, r3
 8004c74:	183a      	adds	r2, r7, r0
 8004c76:	8812      	ldrh	r2, [r2, #0]
 8004c78:	4906      	ldr	r1, [pc, #24]	; (8004c94 <USB_EPStartXfer+0x126c>)
 8004c7a:	430a      	orrs	r2, r1
 8004c7c:	b292      	uxth	r2, r2
 8004c7e:	801a      	strh	r2, [r3, #0]
  }

  return HAL_OK;
 8004c80:	2300      	movs	r3, #0
}
 8004c82:	0018      	movs	r0, r3
 8004c84:	46bd      	mov	sp, r7
 8004c86:	b043      	add	sp, #268	; 0x10c
 8004c88:	bd90      	pop	{r4, r7, pc}
 8004c8a:	46c0      	nop			; (mov r8, r8)
 8004c8c:	00000406 	.word	0x00000406
 8004c90:	ffffbf8f 	.word	0xffffbf8f
 8004c94:	ffff8080 	.word	0xffff8080

08004c98 <USB_EPSetStall>:
  * @param  USBx Selected device
  * @param  ep pointer to endpoint structure
  * @retval HAL status
  */
HAL_StatusTypeDef USB_EPSetStall(USB_TypeDef *USBx, USB_EPTypeDef *ep)
{
 8004c98:	b580      	push	{r7, lr}
 8004c9a:	b084      	sub	sp, #16
 8004c9c:	af00      	add	r7, sp, #0
 8004c9e:	6078      	str	r0, [r7, #4]
 8004ca0:	6039      	str	r1, [r7, #0]
  if (ep->is_in != 0U)
 8004ca2:	683b      	ldr	r3, [r7, #0]
 8004ca4:	785b      	ldrb	r3, [r3, #1]
 8004ca6:	2b00      	cmp	r3, #0
 8004ca8:	d01d      	beq.n	8004ce6 <USB_EPSetStall+0x4e>
  {
    PCD_SET_EP_TX_STATUS(USBx, ep->num, USB_EP_TX_STALL);
 8004caa:	687a      	ldr	r2, [r7, #4]
 8004cac:	683b      	ldr	r3, [r7, #0]
 8004cae:	781b      	ldrb	r3, [r3, #0]
 8004cb0:	009b      	lsls	r3, r3, #2
 8004cb2:	18d3      	adds	r3, r2, r3
 8004cb4:	881b      	ldrh	r3, [r3, #0]
 8004cb6:	b29a      	uxth	r2, r3
 8004cb8:	200c      	movs	r0, #12
 8004cba:	183b      	adds	r3, r7, r0
 8004cbc:	491b      	ldr	r1, [pc, #108]	; (8004d2c <USB_EPSetStall+0x94>)
 8004cbe:	400a      	ands	r2, r1
 8004cc0:	801a      	strh	r2, [r3, #0]
 8004cc2:	183b      	adds	r3, r7, r0
 8004cc4:	183a      	adds	r2, r7, r0
 8004cc6:	8812      	ldrh	r2, [r2, #0]
 8004cc8:	2110      	movs	r1, #16
 8004cca:	404a      	eors	r2, r1
 8004ccc:	801a      	strh	r2, [r3, #0]
 8004cce:	687a      	ldr	r2, [r7, #4]
 8004cd0:	683b      	ldr	r3, [r7, #0]
 8004cd2:	781b      	ldrb	r3, [r3, #0]
 8004cd4:	009b      	lsls	r3, r3, #2
 8004cd6:	18d3      	adds	r3, r2, r3
 8004cd8:	183a      	adds	r2, r7, r0
 8004cda:	8812      	ldrh	r2, [r2, #0]
 8004cdc:	4914      	ldr	r1, [pc, #80]	; (8004d30 <USB_EPSetStall+0x98>)
 8004cde:	430a      	orrs	r2, r1
 8004ce0:	b292      	uxth	r2, r2
 8004ce2:	801a      	strh	r2, [r3, #0]
 8004ce4:	e01d      	b.n	8004d22 <USB_EPSetStall+0x8a>
  }
  else
  {
    PCD_SET_EP_RX_STATUS(USBx, ep->num, USB_EP_RX_STALL);
 8004ce6:	687a      	ldr	r2, [r7, #4]
 8004ce8:	683b      	ldr	r3, [r7, #0]
 8004cea:	781b      	ldrb	r3, [r3, #0]
 8004cec:	009b      	lsls	r3, r3, #2
 8004cee:	18d3      	adds	r3, r2, r3
 8004cf0:	881b      	ldrh	r3, [r3, #0]
 8004cf2:	b29a      	uxth	r2, r3
 8004cf4:	200e      	movs	r0, #14
 8004cf6:	183b      	adds	r3, r7, r0
 8004cf8:	490e      	ldr	r1, [pc, #56]	; (8004d34 <USB_EPSetStall+0x9c>)
 8004cfa:	400a      	ands	r2, r1
 8004cfc:	801a      	strh	r2, [r3, #0]
 8004cfe:	183b      	adds	r3, r7, r0
 8004d00:	183a      	adds	r2, r7, r0
 8004d02:	8812      	ldrh	r2, [r2, #0]
 8004d04:	2180      	movs	r1, #128	; 0x80
 8004d06:	0149      	lsls	r1, r1, #5
 8004d08:	404a      	eors	r2, r1
 8004d0a:	801a      	strh	r2, [r3, #0]
 8004d0c:	687a      	ldr	r2, [r7, #4]
 8004d0e:	683b      	ldr	r3, [r7, #0]
 8004d10:	781b      	ldrb	r3, [r3, #0]
 8004d12:	009b      	lsls	r3, r3, #2
 8004d14:	18d3      	adds	r3, r2, r3
 8004d16:	183a      	adds	r2, r7, r0
 8004d18:	8812      	ldrh	r2, [r2, #0]
 8004d1a:	4905      	ldr	r1, [pc, #20]	; (8004d30 <USB_EPSetStall+0x98>)
 8004d1c:	430a      	orrs	r2, r1
 8004d1e:	b292      	uxth	r2, r2
 8004d20:	801a      	strh	r2, [r3, #0]
  }

  return HAL_OK;
 8004d22:	2300      	movs	r3, #0
}
 8004d24:	0018      	movs	r0, r3
 8004d26:	46bd      	mov	sp, r7
 8004d28:	b004      	add	sp, #16
 8004d2a:	bd80      	pop	{r7, pc}
 8004d2c:	ffff8fbf 	.word	0xffff8fbf
 8004d30:	ffff8080 	.word	0xffff8080
 8004d34:	ffffbf8f 	.word	0xffffbf8f

08004d38 <USB_EPClearStall>:
  * @param  USBx Selected device
  * @param  ep pointer to endpoint structure
  * @retval HAL status
  */
HAL_StatusTypeDef USB_EPClearStall(USB_TypeDef *USBx, USB_EPTypeDef *ep)
{
 8004d38:	b580      	push	{r7, lr}
 8004d3a:	b086      	sub	sp, #24
 8004d3c:	af00      	add	r7, sp, #0
 8004d3e:	6078      	str	r0, [r7, #4]
 8004d40:	6039      	str	r1, [r7, #0]
  if (ep->doublebuffer == 0U)
 8004d42:	683b      	ldr	r3, [r7, #0]
 8004d44:	7b1b      	ldrb	r3, [r3, #12]
 8004d46:	2b00      	cmp	r3, #0
 8004d48:	d000      	beq.n	8004d4c <USB_EPClearStall+0x14>
 8004d4a:	e095      	b.n	8004e78 <USB_EPClearStall+0x140>
  {
    if (ep->is_in != 0U)
 8004d4c:	683b      	ldr	r3, [r7, #0]
 8004d4e:	785b      	ldrb	r3, [r3, #1]
 8004d50:	2b00      	cmp	r3, #0
 8004d52:	d046      	beq.n	8004de2 <USB_EPClearStall+0xaa>
    {
      PCD_CLEAR_TX_DTOG(USBx, ep->num);
 8004d54:	687a      	ldr	r2, [r7, #4]
 8004d56:	683b      	ldr	r3, [r7, #0]
 8004d58:	781b      	ldrb	r3, [r3, #0]
 8004d5a:	009b      	lsls	r3, r3, #2
 8004d5c:	18d2      	adds	r2, r2, r3
 8004d5e:	2110      	movs	r1, #16
 8004d60:	187b      	adds	r3, r7, r1
 8004d62:	8812      	ldrh	r2, [r2, #0]
 8004d64:	801a      	strh	r2, [r3, #0]
 8004d66:	187b      	adds	r3, r7, r1
 8004d68:	881b      	ldrh	r3, [r3, #0]
 8004d6a:	2240      	movs	r2, #64	; 0x40
 8004d6c:	4013      	ands	r3, r2
 8004d6e:	d016      	beq.n	8004d9e <USB_EPClearStall+0x66>
 8004d70:	687a      	ldr	r2, [r7, #4]
 8004d72:	683b      	ldr	r3, [r7, #0]
 8004d74:	781b      	ldrb	r3, [r3, #0]
 8004d76:	009b      	lsls	r3, r3, #2
 8004d78:	18d3      	adds	r3, r2, r3
 8004d7a:	881b      	ldrh	r3, [r3, #0]
 8004d7c:	b29a      	uxth	r2, r3
 8004d7e:	200e      	movs	r0, #14
 8004d80:	183b      	adds	r3, r7, r0
 8004d82:	4940      	ldr	r1, [pc, #256]	; (8004e84 <USB_EPClearStall+0x14c>)
 8004d84:	400a      	ands	r2, r1
 8004d86:	801a      	strh	r2, [r3, #0]
 8004d88:	687a      	ldr	r2, [r7, #4]
 8004d8a:	683b      	ldr	r3, [r7, #0]
 8004d8c:	781b      	ldrb	r3, [r3, #0]
 8004d8e:	009b      	lsls	r3, r3, #2
 8004d90:	18d3      	adds	r3, r2, r3
 8004d92:	183a      	adds	r2, r7, r0
 8004d94:	8812      	ldrh	r2, [r2, #0]
 8004d96:	493c      	ldr	r1, [pc, #240]	; (8004e88 <USB_EPClearStall+0x150>)
 8004d98:	430a      	orrs	r2, r1
 8004d9a:	b292      	uxth	r2, r2
 8004d9c:	801a      	strh	r2, [r3, #0]

      if (ep->type != EP_TYPE_ISOC)
 8004d9e:	683b      	ldr	r3, [r7, #0]
 8004da0:	78db      	ldrb	r3, [r3, #3]
 8004da2:	2b01      	cmp	r3, #1
 8004da4:	d068      	beq.n	8004e78 <USB_EPClearStall+0x140>
      {
        /* Configure NAK status for the Endpoint */
        PCD_SET_EP_TX_STATUS(USBx, ep->num, USB_EP_TX_NAK);
 8004da6:	687a      	ldr	r2, [r7, #4]
 8004da8:	683b      	ldr	r3, [r7, #0]
 8004daa:	781b      	ldrb	r3, [r3, #0]
 8004dac:	009b      	lsls	r3, r3, #2
 8004dae:	18d3      	adds	r3, r2, r3
 8004db0:	881b      	ldrh	r3, [r3, #0]
 8004db2:	b29a      	uxth	r2, r3
 8004db4:	200c      	movs	r0, #12
 8004db6:	183b      	adds	r3, r7, r0
 8004db8:	4934      	ldr	r1, [pc, #208]	; (8004e8c <USB_EPClearStall+0x154>)
 8004dba:	400a      	ands	r2, r1
 8004dbc:	801a      	strh	r2, [r3, #0]
 8004dbe:	183b      	adds	r3, r7, r0
 8004dc0:	183a      	adds	r2, r7, r0
 8004dc2:	8812      	ldrh	r2, [r2, #0]
 8004dc4:	2120      	movs	r1, #32
 8004dc6:	404a      	eors	r2, r1
 8004dc8:	801a      	strh	r2, [r3, #0]
 8004dca:	687a      	ldr	r2, [r7, #4]
 8004dcc:	683b      	ldr	r3, [r7, #0]
 8004dce:	781b      	ldrb	r3, [r3, #0]
 8004dd0:	009b      	lsls	r3, r3, #2
 8004dd2:	18d3      	adds	r3, r2, r3
 8004dd4:	183a      	adds	r2, r7, r0
 8004dd6:	8812      	ldrh	r2, [r2, #0]
 8004dd8:	492d      	ldr	r1, [pc, #180]	; (8004e90 <USB_EPClearStall+0x158>)
 8004dda:	430a      	orrs	r2, r1
 8004ddc:	b292      	uxth	r2, r2
 8004dde:	801a      	strh	r2, [r3, #0]
 8004de0:	e04a      	b.n	8004e78 <USB_EPClearStall+0x140>
      }
    }
    else
    {
      PCD_CLEAR_RX_DTOG(USBx, ep->num);
 8004de2:	687a      	ldr	r2, [r7, #4]
 8004de4:	683b      	ldr	r3, [r7, #0]
 8004de6:	781b      	ldrb	r3, [r3, #0]
 8004de8:	009b      	lsls	r3, r3, #2
 8004dea:	18d2      	adds	r2, r2, r3
 8004dec:	2116      	movs	r1, #22
 8004dee:	187b      	adds	r3, r7, r1
 8004df0:	8812      	ldrh	r2, [r2, #0]
 8004df2:	801a      	strh	r2, [r3, #0]
 8004df4:	187b      	adds	r3, r7, r1
 8004df6:	881a      	ldrh	r2, [r3, #0]
 8004df8:	2380      	movs	r3, #128	; 0x80
 8004dfa:	01db      	lsls	r3, r3, #7
 8004dfc:	4013      	ands	r3, r2
 8004dfe:	d016      	beq.n	8004e2e <USB_EPClearStall+0xf6>
 8004e00:	687a      	ldr	r2, [r7, #4]
 8004e02:	683b      	ldr	r3, [r7, #0]
 8004e04:	781b      	ldrb	r3, [r3, #0]
 8004e06:	009b      	lsls	r3, r3, #2
 8004e08:	18d3      	adds	r3, r2, r3
 8004e0a:	881b      	ldrh	r3, [r3, #0]
 8004e0c:	b29a      	uxth	r2, r3
 8004e0e:	2014      	movs	r0, #20
 8004e10:	183b      	adds	r3, r7, r0
 8004e12:	491c      	ldr	r1, [pc, #112]	; (8004e84 <USB_EPClearStall+0x14c>)
 8004e14:	400a      	ands	r2, r1
 8004e16:	801a      	strh	r2, [r3, #0]
 8004e18:	687a      	ldr	r2, [r7, #4]
 8004e1a:	683b      	ldr	r3, [r7, #0]
 8004e1c:	781b      	ldrb	r3, [r3, #0]
 8004e1e:	009b      	lsls	r3, r3, #2
 8004e20:	18d3      	adds	r3, r2, r3
 8004e22:	183a      	adds	r2, r7, r0
 8004e24:	8812      	ldrh	r2, [r2, #0]
 8004e26:	491b      	ldr	r1, [pc, #108]	; (8004e94 <USB_EPClearStall+0x15c>)
 8004e28:	430a      	orrs	r2, r1
 8004e2a:	b292      	uxth	r2, r2
 8004e2c:	801a      	strh	r2, [r3, #0]

      /* Configure VALID status for the Endpoint */
      PCD_SET_EP_RX_STATUS(USBx, ep->num, USB_EP_RX_VALID);
 8004e2e:	687a      	ldr	r2, [r7, #4]
 8004e30:	683b      	ldr	r3, [r7, #0]
 8004e32:	781b      	ldrb	r3, [r3, #0]
 8004e34:	009b      	lsls	r3, r3, #2
 8004e36:	18d3      	adds	r3, r2, r3
 8004e38:	881b      	ldrh	r3, [r3, #0]
 8004e3a:	b29a      	uxth	r2, r3
 8004e3c:	2012      	movs	r0, #18
 8004e3e:	183b      	adds	r3, r7, r0
 8004e40:	4915      	ldr	r1, [pc, #84]	; (8004e98 <USB_EPClearStall+0x160>)
 8004e42:	400a      	ands	r2, r1
 8004e44:	801a      	strh	r2, [r3, #0]
 8004e46:	183b      	adds	r3, r7, r0
 8004e48:	183a      	adds	r2, r7, r0
 8004e4a:	8812      	ldrh	r2, [r2, #0]
 8004e4c:	2180      	movs	r1, #128	; 0x80
 8004e4e:	0149      	lsls	r1, r1, #5
 8004e50:	404a      	eors	r2, r1
 8004e52:	801a      	strh	r2, [r3, #0]
 8004e54:	183b      	adds	r3, r7, r0
 8004e56:	183a      	adds	r2, r7, r0
 8004e58:	8812      	ldrh	r2, [r2, #0]
 8004e5a:	2180      	movs	r1, #128	; 0x80
 8004e5c:	0189      	lsls	r1, r1, #6
 8004e5e:	404a      	eors	r2, r1
 8004e60:	801a      	strh	r2, [r3, #0]
 8004e62:	687a      	ldr	r2, [r7, #4]
 8004e64:	683b      	ldr	r3, [r7, #0]
 8004e66:	781b      	ldrb	r3, [r3, #0]
 8004e68:	009b      	lsls	r3, r3, #2
 8004e6a:	18d3      	adds	r3, r2, r3
 8004e6c:	183a      	adds	r2, r7, r0
 8004e6e:	8812      	ldrh	r2, [r2, #0]
 8004e70:	4907      	ldr	r1, [pc, #28]	; (8004e90 <USB_EPClearStall+0x158>)
 8004e72:	430a      	orrs	r2, r1
 8004e74:	b292      	uxth	r2, r2
 8004e76:	801a      	strh	r2, [r3, #0]
    }
  }

  return HAL_OK;
 8004e78:	2300      	movs	r3, #0
}
 8004e7a:	0018      	movs	r0, r3
 8004e7c:	46bd      	mov	sp, r7
 8004e7e:	b006      	add	sp, #24
 8004e80:	bd80      	pop	{r7, pc}
 8004e82:	46c0      	nop			; (mov r8, r8)
 8004e84:	ffff8f8f 	.word	0xffff8f8f
 8004e88:	ffff80c0 	.word	0xffff80c0
 8004e8c:	ffff8fbf 	.word	0xffff8fbf
 8004e90:	ffff8080 	.word	0xffff8080
 8004e94:	ffffc080 	.word	0xffffc080
 8004e98:	ffffbf8f 	.word	0xffffbf8f

08004e9c <USB_SetDevAddress>:
  * @param  address new device address to be assigned
  *          This parameter can be a value from 0 to 255
  * @retval HAL status
  */
HAL_StatusTypeDef  USB_SetDevAddress(USB_TypeDef *USBx, uint8_t address)
{
 8004e9c:	b580      	push	{r7, lr}
 8004e9e:	b082      	sub	sp, #8
 8004ea0:	af00      	add	r7, sp, #0
 8004ea2:	6078      	str	r0, [r7, #4]
 8004ea4:	000a      	movs	r2, r1
 8004ea6:	1cfb      	adds	r3, r7, #3
 8004ea8:	701a      	strb	r2, [r3, #0]
  if (address == 0U)
 8004eaa:	1cfb      	adds	r3, r7, #3
 8004eac:	781b      	ldrb	r3, [r3, #0]
 8004eae:	2b00      	cmp	r3, #0
 8004eb0:	d103      	bne.n	8004eba <USB_SetDevAddress+0x1e>
  {
    /* set device address and enable function */
    USBx->DADDR = (uint16_t)USB_DADDR_EF;
 8004eb2:	687b      	ldr	r3, [r7, #4]
 8004eb4:	224c      	movs	r2, #76	; 0x4c
 8004eb6:	2180      	movs	r1, #128	; 0x80
 8004eb8:	5299      	strh	r1, [r3, r2]
  }

  return HAL_OK;
 8004eba:	2300      	movs	r3, #0
}
 8004ebc:	0018      	movs	r0, r3
 8004ebe:	46bd      	mov	sp, r7
 8004ec0:	b002      	add	sp, #8
 8004ec2:	bd80      	pop	{r7, pc}

08004ec4 <USB_DevConnect>:
  * @brief  USB_DevConnect Connect the USB device by enabling the pull-up/pull-down
  * @param  USBx Selected device
  * @retval HAL status
  */
HAL_StatusTypeDef  USB_DevConnect(USB_TypeDef *USBx)
{
 8004ec4:	b580      	push	{r7, lr}
 8004ec6:	b082      	sub	sp, #8
 8004ec8:	af00      	add	r7, sp, #0
 8004eca:	6078      	str	r0, [r7, #4]
  /* Enabling DP Pull-UP bit to Connect internal PU resistor on USB DP line */
  USBx->BCDR |= (uint16_t)USB_BCDR_DPPU;
 8004ecc:	687b      	ldr	r3, [r7, #4]
 8004ece:	2258      	movs	r2, #88	; 0x58
 8004ed0:	5a9b      	ldrh	r3, [r3, r2]
 8004ed2:	b29b      	uxth	r3, r3
 8004ed4:	4a05      	ldr	r2, [pc, #20]	; (8004eec <USB_DevConnect+0x28>)
 8004ed6:	4313      	orrs	r3, r2
 8004ed8:	b299      	uxth	r1, r3
 8004eda:	687b      	ldr	r3, [r7, #4]
 8004edc:	2258      	movs	r2, #88	; 0x58
 8004ede:	5299      	strh	r1, [r3, r2]

  return HAL_OK;
 8004ee0:	2300      	movs	r3, #0
}
 8004ee2:	0018      	movs	r0, r3
 8004ee4:	46bd      	mov	sp, r7
 8004ee6:	b002      	add	sp, #8
 8004ee8:	bd80      	pop	{r7, pc}
 8004eea:	46c0      	nop			; (mov r8, r8)
 8004eec:	ffff8000 	.word	0xffff8000

08004ef0 <USB_ReadInterrupts>:
  * @brief  USB_ReadInterrupts return the global USB interrupt status
  * @param  USBx Selected device
  * @retval USB Global Interrupt status
  */
uint32_t USB_ReadInterrupts(USB_TypeDef *USBx)
{
 8004ef0:	b580      	push	{r7, lr}
 8004ef2:	b084      	sub	sp, #16
 8004ef4:	af00      	add	r7, sp, #0
 8004ef6:	6078      	str	r0, [r7, #4]
  uint32_t tmpreg;

  tmpreg = USBx->ISTR;
 8004ef8:	687b      	ldr	r3, [r7, #4]
 8004efa:	2244      	movs	r2, #68	; 0x44
 8004efc:	5a9b      	ldrh	r3, [r3, r2]
 8004efe:	b29b      	uxth	r3, r3
 8004f00:	60fb      	str	r3, [r7, #12]
  return tmpreg;
 8004f02:	68fb      	ldr	r3, [r7, #12]
}
 8004f04:	0018      	movs	r0, r3
 8004f06:	46bd      	mov	sp, r7
 8004f08:	b004      	add	sp, #16
 8004f0a:	bd80      	pop	{r7, pc}

08004f0c <USB_WritePMA>:
  * @param   wPMABufAddr address into PMA.
  * @param   wNBytes no. of bytes to be copied.
  * @retval None
  */
void USB_WritePMA(USB_TypeDef *USBx, uint8_t *pbUsrBuf, uint16_t wPMABufAddr, uint16_t wNBytes)
{
 8004f0c:	b580      	push	{r7, lr}
 8004f0e:	b08a      	sub	sp, #40	; 0x28
 8004f10:	af00      	add	r7, sp, #0
 8004f12:	60f8      	str	r0, [r7, #12]
 8004f14:	60b9      	str	r1, [r7, #8]
 8004f16:	0019      	movs	r1, r3
 8004f18:	1dbb      	adds	r3, r7, #6
 8004f1a:	801a      	strh	r2, [r3, #0]
 8004f1c:	1d3b      	adds	r3, r7, #4
 8004f1e:	1c0a      	adds	r2, r1, #0
 8004f20:	801a      	strh	r2, [r3, #0]
  uint32_t n = ((uint32_t)wNBytes + 1U) >> 1;
 8004f22:	1d3b      	adds	r3, r7, #4
 8004f24:	881b      	ldrh	r3, [r3, #0]
 8004f26:	3301      	adds	r3, #1
 8004f28:	085b      	lsrs	r3, r3, #1
 8004f2a:	61bb      	str	r3, [r7, #24]
  uint32_t BaseAddr = (uint32_t)USBx;
 8004f2c:	68fb      	ldr	r3, [r7, #12]
 8004f2e:	617b      	str	r3, [r7, #20]
  uint32_t count;
  uint16_t WrVal;
  __IO uint16_t *pdwVal;
  uint8_t *pBuf = pbUsrBuf;
 8004f30:	68bb      	ldr	r3, [r7, #8]
 8004f32:	61fb      	str	r3, [r7, #28]

  pdwVal = (__IO uint16_t *)(BaseAddr + 0x400U + ((uint32_t)wPMABufAddr * PMA_ACCESS));
 8004f34:	1dbb      	adds	r3, r7, #6
 8004f36:	881a      	ldrh	r2, [r3, #0]
 8004f38:	697b      	ldr	r3, [r7, #20]
 8004f3a:	18d3      	adds	r3, r2, r3
 8004f3c:	2280      	movs	r2, #128	; 0x80
 8004f3e:	00d2      	lsls	r2, r2, #3
 8004f40:	4694      	mov	ip, r2
 8004f42:	4463      	add	r3, ip
 8004f44:	623b      	str	r3, [r7, #32]

  for (count = n; count != 0U; count--)
 8004f46:	69bb      	ldr	r3, [r7, #24]
 8004f48:	627b      	str	r3, [r7, #36]	; 0x24
 8004f4a:	e020      	b.n	8004f8e <USB_WritePMA+0x82>
  {
    WrVal = pBuf[0];
 8004f4c:	69fb      	ldr	r3, [r7, #28]
 8004f4e:	781a      	ldrb	r2, [r3, #0]
 8004f50:	2112      	movs	r1, #18
 8004f52:	187b      	adds	r3, r7, r1
 8004f54:	801a      	strh	r2, [r3, #0]
    WrVal |= (uint16_t)pBuf[1] << 8;
 8004f56:	69fb      	ldr	r3, [r7, #28]
 8004f58:	3301      	adds	r3, #1
 8004f5a:	781b      	ldrb	r3, [r3, #0]
 8004f5c:	021b      	lsls	r3, r3, #8
 8004f5e:	b21a      	sxth	r2, r3
 8004f60:	187b      	adds	r3, r7, r1
 8004f62:	2000      	movs	r0, #0
 8004f64:	5e1b      	ldrsh	r3, [r3, r0]
 8004f66:	4313      	orrs	r3, r2
 8004f68:	b21a      	sxth	r2, r3
 8004f6a:	187b      	adds	r3, r7, r1
 8004f6c:	801a      	strh	r2, [r3, #0]
    *pdwVal = (WrVal & 0xFFFFU);
 8004f6e:	6a3b      	ldr	r3, [r7, #32]
 8004f70:	187a      	adds	r2, r7, r1
 8004f72:	8812      	ldrh	r2, [r2, #0]
 8004f74:	801a      	strh	r2, [r3, #0]
    pdwVal++;
 8004f76:	6a3b      	ldr	r3, [r7, #32]
 8004f78:	3302      	adds	r3, #2
 8004f7a:	623b      	str	r3, [r7, #32]

#if PMA_ACCESS > 1U
    pdwVal++;
#endif /* PMA_ACCESS */

    pBuf++;
 8004f7c:	69fb      	ldr	r3, [r7, #28]
 8004f7e:	3301      	adds	r3, #1
 8004f80:	61fb      	str	r3, [r7, #28]
    pBuf++;
 8004f82:	69fb      	ldr	r3, [r7, #28]
 8004f84:	3301      	adds	r3, #1
 8004f86:	61fb      	str	r3, [r7, #28]
  for (count = n; count != 0U; count--)
 8004f88:	6a7b      	ldr	r3, [r7, #36]	; 0x24
 8004f8a:	3b01      	subs	r3, #1
 8004f8c:	627b      	str	r3, [r7, #36]	; 0x24
 8004f8e:	6a7b      	ldr	r3, [r7, #36]	; 0x24
 8004f90:	2b00      	cmp	r3, #0
 8004f92:	d1db      	bne.n	8004f4c <USB_WritePMA+0x40>
  }
}
 8004f94:	46c0      	nop			; (mov r8, r8)
 8004f96:	46c0      	nop			; (mov r8, r8)
 8004f98:	46bd      	mov	sp, r7
 8004f9a:	b00a      	add	sp, #40	; 0x28
 8004f9c:	bd80      	pop	{r7, pc}

08004f9e <USB_ReadPMA>:
  * @param   wPMABufAddr address into PMA.
  * @param   wNBytes no. of bytes to be copied.
  * @retval None
  */
void USB_ReadPMA(USB_TypeDef *USBx, uint8_t *pbUsrBuf, uint16_t wPMABufAddr, uint16_t wNBytes)
{
 8004f9e:	b580      	push	{r7, lr}
 8004fa0:	b08a      	sub	sp, #40	; 0x28
 8004fa2:	af00      	add	r7, sp, #0
 8004fa4:	60f8      	str	r0, [r7, #12]
 8004fa6:	60b9      	str	r1, [r7, #8]
 8004fa8:	0019      	movs	r1, r3
 8004faa:	1dbb      	adds	r3, r7, #6
 8004fac:	801a      	strh	r2, [r3, #0]
 8004fae:	1d3b      	adds	r3, r7, #4
 8004fb0:	1c0a      	adds	r2, r1, #0
 8004fb2:	801a      	strh	r2, [r3, #0]
  uint32_t n = (uint32_t)wNBytes >> 1;
 8004fb4:	1d3b      	adds	r3, r7, #4
 8004fb6:	881b      	ldrh	r3, [r3, #0]
 8004fb8:	085b      	lsrs	r3, r3, #1
 8004fba:	b29b      	uxth	r3, r3
 8004fbc:	61bb      	str	r3, [r7, #24]
  uint32_t BaseAddr = (uint32_t)USBx;
 8004fbe:	68fb      	ldr	r3, [r7, #12]
 8004fc0:	617b      	str	r3, [r7, #20]
  uint32_t count;
  uint32_t RdVal;
  __IO uint16_t *pdwVal;
  uint8_t *pBuf = pbUsrBuf;
 8004fc2:	68bb      	ldr	r3, [r7, #8]
 8004fc4:	61fb      	str	r3, [r7, #28]

  pdwVal = (__IO uint16_t *)(BaseAddr + 0x400U + ((uint32_t)wPMABufAddr * PMA_ACCESS));
 8004fc6:	1dbb      	adds	r3, r7, #6
 8004fc8:	881a      	ldrh	r2, [r3, #0]
 8004fca:	697b      	ldr	r3, [r7, #20]
 8004fcc:	18d3      	adds	r3, r2, r3
 8004fce:	2280      	movs	r2, #128	; 0x80
 8004fd0:	00d2      	lsls	r2, r2, #3
 8004fd2:	4694      	mov	ip, r2
 8004fd4:	4463      	add	r3, ip
 8004fd6:	623b      	str	r3, [r7, #32]

  for (count = n; count != 0U; count--)
 8004fd8:	69bb      	ldr	r3, [r7, #24]
 8004fda:	627b      	str	r3, [r7, #36]	; 0x24
 8004fdc:	e018      	b.n	8005010 <USB_ReadPMA+0x72>
  {
    RdVal = *(__IO uint16_t *)pdwVal;
 8004fde:	6a3b      	ldr	r3, [r7, #32]
 8004fe0:	881b      	ldrh	r3, [r3, #0]
 8004fe2:	b29b      	uxth	r3, r3
 8004fe4:	613b      	str	r3, [r7, #16]
    pdwVal++;
 8004fe6:	6a3b      	ldr	r3, [r7, #32]
 8004fe8:	3302      	adds	r3, #2
 8004fea:	623b      	str	r3, [r7, #32]
    *pBuf = (uint8_t)((RdVal >> 0) & 0xFFU);
 8004fec:	693b      	ldr	r3, [r7, #16]
 8004fee:	b2da      	uxtb	r2, r3
 8004ff0:	69fb      	ldr	r3, [r7, #28]
 8004ff2:	701a      	strb	r2, [r3, #0]
    pBuf++;
 8004ff4:	69fb      	ldr	r3, [r7, #28]
 8004ff6:	3301      	adds	r3, #1
 8004ff8:	61fb      	str	r3, [r7, #28]
    *pBuf = (uint8_t)((RdVal >> 8) & 0xFFU);
 8004ffa:	693b      	ldr	r3, [r7, #16]
 8004ffc:	0a1b      	lsrs	r3, r3, #8
 8004ffe:	b2da      	uxtb	r2, r3
 8005000:	69fb      	ldr	r3, [r7, #28]
 8005002:	701a      	strb	r2, [r3, #0]
    pBuf++;
 8005004:	69fb      	ldr	r3, [r7, #28]
 8005006:	3301      	adds	r3, #1
 8005008:	61fb      	str	r3, [r7, #28]
  for (count = n; count != 0U; count--)
 800500a:	6a7b      	ldr	r3, [r7, #36]	; 0x24
 800500c:	3b01      	subs	r3, #1
 800500e:	627b      	str	r3, [r7, #36]	; 0x24
 8005010:	6a7b      	ldr	r3, [r7, #36]	; 0x24
 8005012:	2b00      	cmp	r3, #0
 8005014:	d1e3      	bne.n	8004fde <USB_ReadPMA+0x40>
#if PMA_ACCESS > 1U
    pdwVal++;
#endif /* PMA_ACCESS */
  }

  if ((wNBytes % 2U) != 0U)
 8005016:	1d3b      	adds	r3, r7, #4
 8005018:	881b      	ldrh	r3, [r3, #0]
 800501a:	2201      	movs	r2, #1
 800501c:	4013      	ands	r3, r2
 800501e:	b29b      	uxth	r3, r3
 8005020:	2b00      	cmp	r3, #0
 8005022:	d007      	beq.n	8005034 <USB_ReadPMA+0x96>
  {
    RdVal = *pdwVal;
 8005024:	6a3b      	ldr	r3, [r7, #32]
 8005026:	881b      	ldrh	r3, [r3, #0]
 8005028:	b29b      	uxth	r3, r3
 800502a:	613b      	str	r3, [r7, #16]
    *pBuf = (uint8_t)((RdVal >> 0) & 0xFFU);
 800502c:	693b      	ldr	r3, [r7, #16]
 800502e:	b2da      	uxtb	r2, r3
 8005030:	69fb      	ldr	r3, [r7, #28]
 8005032:	701a      	strb	r2, [r3, #0]
  }
}
 8005034:	46c0      	nop			; (mov r8, r8)
 8005036:	46bd      	mov	sp, r7
 8005038:	b00a      	add	sp, #40	; 0x28
 800503a:	bd80      	pop	{r7, pc}

0800503c <USBD_CUSTOM_HID_Init>:
  * @param  cfgidx: Configuration index
  * @retval status
  */
static uint8_t  USBD_CUSTOM_HID_Init(USBD_HandleTypeDef *pdev,
                                     uint8_t cfgidx)
{
 800503c:	b590      	push	{r4, r7, lr}
 800503e:	b085      	sub	sp, #20
 8005040:	af00      	add	r7, sp, #0
 8005042:	6078      	str	r0, [r7, #4]
 8005044:	000a      	movs	r2, r1
 8005046:	1cfb      	adds	r3, r7, #3
 8005048:	701a      	strb	r2, [r3, #0]
  uint8_t ret = 0U;
 800504a:	240f      	movs	r4, #15
 800504c:	193b      	adds	r3, r7, r4
 800504e:	2200      	movs	r2, #0
 8005050:	701a      	strb	r2, [r3, #0]
  USBD_CUSTOM_HID_HandleTypeDef     *hhid;

  /* Open EP IN */
  USBD_LL_OpenEP(pdev, CUSTOM_HID_EPIN_ADDR, USBD_EP_TYPE_INTR,
 8005052:	6878      	ldr	r0, [r7, #4]
 8005054:	2302      	movs	r3, #2
 8005056:	2203      	movs	r2, #3
 8005058:	2181      	movs	r1, #129	; 0x81
 800505a:	f001 ff1a 	bl	8006e92 <USBD_LL_OpenEP>
                 CUSTOM_HID_EPIN_SIZE);

  pdev->ep_in[CUSTOM_HID_EPIN_ADDR & 0xFU].is_used = 1U;
 800505e:	687b      	ldr	r3, [r7, #4]
 8005060:	2201      	movs	r2, #1
 8005062:	62da      	str	r2, [r3, #44]	; 0x2c

  /* Open EP OUT */
  USBD_LL_OpenEP(pdev, CUSTOM_HID_EPOUT_ADDR, USBD_EP_TYPE_INTR,
 8005064:	6878      	ldr	r0, [r7, #4]
 8005066:	2302      	movs	r3, #2
 8005068:	2203      	movs	r2, #3
 800506a:	2101      	movs	r1, #1
 800506c:	f001 ff11 	bl	8006e92 <USBD_LL_OpenEP>
                 CUSTOM_HID_EPOUT_SIZE);

  pdev->ep_out[CUSTOM_HID_EPOUT_ADDR & 0xFU].is_used = 1U;
 8005070:	687a      	ldr	r2, [r7, #4]
 8005072:	23b6      	movs	r3, #182	; 0xb6
 8005074:	005b      	lsls	r3, r3, #1
 8005076:	2101      	movs	r1, #1
 8005078:	50d1      	str	r1, [r2, r3]

  pdev->pClassData = USBD_malloc(sizeof(USBD_CUSTOM_HID_HandleTypeDef));
 800507a:	2018      	movs	r0, #24
 800507c:	f002 f88c 	bl	8007198 <USBD_static_malloc>
 8005080:	0001      	movs	r1, r0
 8005082:	687a      	ldr	r2, [r7, #4]
 8005084:	23ae      	movs	r3, #174	; 0xae
 8005086:	009b      	lsls	r3, r3, #2
 8005088:	50d1      	str	r1, [r2, r3]

  if (pdev->pClassData == NULL)
 800508a:	687a      	ldr	r2, [r7, #4]
 800508c:	23ae      	movs	r3, #174	; 0xae
 800508e:	009b      	lsls	r3, r3, #2
 8005090:	58d3      	ldr	r3, [r2, r3]
 8005092:	2b00      	cmp	r3, #0
 8005094:	d103      	bne.n	800509e <USBD_CUSTOM_HID_Init+0x62>
  {
    ret = 1U;
 8005096:	193b      	adds	r3, r7, r4
 8005098:	2201      	movs	r2, #1
 800509a:	701a      	strb	r2, [r3, #0]
 800509c:	e013      	b.n	80050c6 <USBD_CUSTOM_HID_Init+0x8a>
  }
  else
  {
    hhid = (USBD_CUSTOM_HID_HandleTypeDef *) pdev->pClassData;
 800509e:	687a      	ldr	r2, [r7, #4]
 80050a0:	23ae      	movs	r3, #174	; 0xae
 80050a2:	009b      	lsls	r3, r3, #2
 80050a4:	58d3      	ldr	r3, [r2, r3]
 80050a6:	60bb      	str	r3, [r7, #8]

    hhid->state = CUSTOM_HID_IDLE;
 80050a8:	68bb      	ldr	r3, [r7, #8]
 80050aa:	2200      	movs	r2, #0
 80050ac:	751a      	strb	r2, [r3, #20]
    ((USBD_CUSTOM_HID_ItfTypeDef *)pdev->pUserData)->Init();
 80050ae:	687a      	ldr	r2, [r7, #4]
 80050b0:	23af      	movs	r3, #175	; 0xaf
 80050b2:	009b      	lsls	r3, r3, #2
 80050b4:	58d3      	ldr	r3, [r2, r3]
 80050b6:	685b      	ldr	r3, [r3, #4]
 80050b8:	4798      	blx	r3

    /* Prepare Out endpoint to receive 1st packet */
    USBD_LL_PrepareReceive(pdev, CUSTOM_HID_EPOUT_ADDR, hhid->Report_buf,
 80050ba:	68ba      	ldr	r2, [r7, #8]
 80050bc:	6878      	ldr	r0, [r7, #4]
 80050be:	2302      	movs	r3, #2
 80050c0:	2101      	movs	r1, #1
 80050c2:	f002 f831 	bl	8007128 <USBD_LL_PrepareReceive>
                           USBD_CUSTOMHID_OUTREPORT_BUF_SIZE);
  }

  return ret;
 80050c6:	230f      	movs	r3, #15
 80050c8:	18fb      	adds	r3, r7, r3
 80050ca:	781b      	ldrb	r3, [r3, #0]
}
 80050cc:	0018      	movs	r0, r3
 80050ce:	46bd      	mov	sp, r7
 80050d0:	b005      	add	sp, #20
 80050d2:	bd90      	pop	{r4, r7, pc}

080050d4 <USBD_CUSTOM_HID_DeInit>:
  * @param  cfgidx: Configuration index
  * @retval status
  */
static uint8_t  USBD_CUSTOM_HID_DeInit(USBD_HandleTypeDef *pdev,
                                       uint8_t cfgidx)
{
 80050d4:	b580      	push	{r7, lr}
 80050d6:	b082      	sub	sp, #8
 80050d8:	af00      	add	r7, sp, #0
 80050da:	6078      	str	r0, [r7, #4]
 80050dc:	000a      	movs	r2, r1
 80050de:	1cfb      	adds	r3, r7, #3
 80050e0:	701a      	strb	r2, [r3, #0]
  /* Close CUSTOM_HID EP IN */
  USBD_LL_CloseEP(pdev, CUSTOM_HID_EPIN_ADDR);
 80050e2:	687b      	ldr	r3, [r7, #4]
 80050e4:	2181      	movs	r1, #129	; 0x81
 80050e6:	0018      	movs	r0, r3
 80050e8:	f001 ff0a 	bl	8006f00 <USBD_LL_CloseEP>
  pdev->ep_in[CUSTOM_HID_EPIN_ADDR & 0xFU].is_used = 0U;
 80050ec:	687b      	ldr	r3, [r7, #4]
 80050ee:	2200      	movs	r2, #0
 80050f0:	62da      	str	r2, [r3, #44]	; 0x2c

  /* Close CUSTOM_HID EP OUT */
  USBD_LL_CloseEP(pdev, CUSTOM_HID_EPOUT_ADDR);
 80050f2:	687b      	ldr	r3, [r7, #4]
 80050f4:	2101      	movs	r1, #1
 80050f6:	0018      	movs	r0, r3
 80050f8:	f001 ff02 	bl	8006f00 <USBD_LL_CloseEP>
  pdev->ep_out[CUSTOM_HID_EPOUT_ADDR & 0xFU].is_used = 0U;
 80050fc:	687a      	ldr	r2, [r7, #4]
 80050fe:	23b6      	movs	r3, #182	; 0xb6
 8005100:	005b      	lsls	r3, r3, #1
 8005102:	2100      	movs	r1, #0
 8005104:	50d1      	str	r1, [r2, r3]

  /* FRee allocated memory */
  if (pdev->pClassData != NULL)
 8005106:	687a      	ldr	r2, [r7, #4]
 8005108:	23ae      	movs	r3, #174	; 0xae
 800510a:	009b      	lsls	r3, r3, #2
 800510c:	58d3      	ldr	r3, [r2, r3]
 800510e:	2b00      	cmp	r3, #0
 8005110:	d011      	beq.n	8005136 <USBD_CUSTOM_HID_DeInit+0x62>
  {
    ((USBD_CUSTOM_HID_ItfTypeDef *)pdev->pUserData)->DeInit();
 8005112:	687a      	ldr	r2, [r7, #4]
 8005114:	23af      	movs	r3, #175	; 0xaf
 8005116:	009b      	lsls	r3, r3, #2
 8005118:	58d3      	ldr	r3, [r2, r3]
 800511a:	689b      	ldr	r3, [r3, #8]
 800511c:	4798      	blx	r3
    USBD_free(pdev->pClassData);
 800511e:	687a      	ldr	r2, [r7, #4]
 8005120:	23ae      	movs	r3, #174	; 0xae
 8005122:	009b      	lsls	r3, r3, #2
 8005124:	58d3      	ldr	r3, [r2, r3]
 8005126:	0018      	movs	r0, r3
 8005128:	f002 f842 	bl	80071b0 <USBD_static_free>
    pdev->pClassData = NULL;
 800512c:	687a      	ldr	r2, [r7, #4]
 800512e:	23ae      	movs	r3, #174	; 0xae
 8005130:	009b      	lsls	r3, r3, #2
 8005132:	2100      	movs	r1, #0
 8005134:	50d1      	str	r1, [r2, r3]
  }
  return USBD_OK;
 8005136:	2300      	movs	r3, #0
}
 8005138:	0018      	movs	r0, r3
 800513a:	46bd      	mov	sp, r7
 800513c:	b002      	add	sp, #8
 800513e:	bd80      	pop	{r7, pc}

08005140 <USBD_CUSTOM_HID_Setup>:
  * @param  req: usb requests
  * @retval status
  */
static uint8_t  USBD_CUSTOM_HID_Setup(USBD_HandleTypeDef *pdev,
                                      USBD_SetupReqTypedef *req)
{
 8005140:	b580      	push	{r7, lr}
 8005142:	b088      	sub	sp, #32
 8005144:	af00      	add	r7, sp, #0
 8005146:	6078      	str	r0, [r7, #4]
 8005148:	6039      	str	r1, [r7, #0]
  USBD_CUSTOM_HID_HandleTypeDef *hhid = (USBD_CUSTOM_HID_HandleTypeDef *)pdev->pClassData;
 800514a:	687a      	ldr	r2, [r7, #4]
 800514c:	23ae      	movs	r3, #174	; 0xae
 800514e:	009b      	lsls	r3, r3, #2
 8005150:	58d3      	ldr	r3, [r2, r3]
 8005152:	613b      	str	r3, [r7, #16]
  uint16_t len = 0U;
 8005154:	231e      	movs	r3, #30
 8005156:	18fb      	adds	r3, r7, r3
 8005158:	2200      	movs	r2, #0
 800515a:	801a      	strh	r2, [r3, #0]
  uint8_t  *pbuf = NULL;
 800515c:	2300      	movs	r3, #0
 800515e:	61bb      	str	r3, [r7, #24]
  uint16_t status_info = 0U;
 8005160:	230e      	movs	r3, #14
 8005162:	18fb      	adds	r3, r7, r3
 8005164:	2200      	movs	r2, #0
 8005166:	801a      	strh	r2, [r3, #0]
  uint8_t ret = USBD_OK;
 8005168:	2317      	movs	r3, #23
 800516a:	18fb      	adds	r3, r7, r3
 800516c:	2200      	movs	r2, #0
 800516e:	701a      	strb	r2, [r3, #0]

  switch (req->bmRequest & USB_REQ_TYPE_MASK)
 8005170:	683b      	ldr	r3, [r7, #0]
 8005172:	781b      	ldrb	r3, [r3, #0]
 8005174:	001a      	movs	r2, r3
 8005176:	2360      	movs	r3, #96	; 0x60
 8005178:	4013      	ands	r3, r2
 800517a:	d043      	beq.n	8005204 <USBD_CUSTOM_HID_Setup+0xc4>
 800517c:	2b20      	cmp	r3, #32
 800517e:	d000      	beq.n	8005182 <USBD_CUSTOM_HID_Setup+0x42>
 8005180:	e0d7      	b.n	8005332 <USBD_CUSTOM_HID_Setup+0x1f2>
  {
    case USB_REQ_TYPE_CLASS :
      switch (req->bRequest)
 8005182:	683b      	ldr	r3, [r7, #0]
 8005184:	785b      	ldrb	r3, [r3, #1]
 8005186:	2b0b      	cmp	r3, #11
 8005188:	d830      	bhi.n	80051ec <USBD_CUSTOM_HID_Setup+0xac>
 800518a:	009a      	lsls	r2, r3, #2
 800518c:	4b72      	ldr	r3, [pc, #456]	; (8005358 <USBD_CUSTOM_HID_Setup+0x218>)
 800518e:	18d3      	adds	r3, r2, r3
 8005190:	681b      	ldr	r3, [r3, #0]
 8005192:	469f      	mov	pc, r3
      {
        case CUSTOM_HID_REQ_SET_PROTOCOL:
          hhid->Protocol = (uint8_t)(req->wValue);
 8005194:	683b      	ldr	r3, [r7, #0]
 8005196:	885b      	ldrh	r3, [r3, #2]
 8005198:	b2db      	uxtb	r3, r3
 800519a:	001a      	movs	r2, r3
 800519c:	693b      	ldr	r3, [r7, #16]
 800519e:	605a      	str	r2, [r3, #4]
          break;
 80051a0:	e02f      	b.n	8005202 <USBD_CUSTOM_HID_Setup+0xc2>

        case CUSTOM_HID_REQ_GET_PROTOCOL:
          USBD_CtlSendData(pdev, (uint8_t *)(void *)&hhid->Protocol, 1U);
 80051a2:	693b      	ldr	r3, [r7, #16]
 80051a4:	1d19      	adds	r1, r3, #4
 80051a6:	687b      	ldr	r3, [r7, #4]
 80051a8:	2201      	movs	r2, #1
 80051aa:	0018      	movs	r0, r3
 80051ac:	f001 fafc 	bl	80067a8 <USBD_CtlSendData>
          break;
 80051b0:	e027      	b.n	8005202 <USBD_CUSTOM_HID_Setup+0xc2>

        case CUSTOM_HID_REQ_SET_IDLE:
          hhid->IdleState = (uint8_t)(req->wValue >> 8);
 80051b2:	683b      	ldr	r3, [r7, #0]
 80051b4:	885b      	ldrh	r3, [r3, #2]
 80051b6:	0a1b      	lsrs	r3, r3, #8
 80051b8:	b29b      	uxth	r3, r3
 80051ba:	b2db      	uxtb	r3, r3
 80051bc:	001a      	movs	r2, r3
 80051be:	693b      	ldr	r3, [r7, #16]
 80051c0:	609a      	str	r2, [r3, #8]
          break;
 80051c2:	e01e      	b.n	8005202 <USBD_CUSTOM_HID_Setup+0xc2>

        case CUSTOM_HID_REQ_GET_IDLE:
          USBD_CtlSendData(pdev, (uint8_t *)(void *)&hhid->IdleState, 1U);
 80051c4:	693b      	ldr	r3, [r7, #16]
 80051c6:	3308      	adds	r3, #8
 80051c8:	0019      	movs	r1, r3
 80051ca:	687b      	ldr	r3, [r7, #4]
 80051cc:	2201      	movs	r2, #1
 80051ce:	0018      	movs	r0, r3
 80051d0:	f001 faea 	bl	80067a8 <USBD_CtlSendData>
          break;
 80051d4:	e015      	b.n	8005202 <USBD_CUSTOM_HID_Setup+0xc2>

        case CUSTOM_HID_REQ_SET_REPORT:
          hhid->IsReportAvailable = 1U;
 80051d6:	693b      	ldr	r3, [r7, #16]
 80051d8:	2201      	movs	r2, #1
 80051da:	611a      	str	r2, [r3, #16]
          USBD_CtlPrepareRx(pdev, hhid->Report_buf, req->wLength);
 80051dc:	6939      	ldr	r1, [r7, #16]
 80051de:	683b      	ldr	r3, [r7, #0]
 80051e0:	88da      	ldrh	r2, [r3, #6]
 80051e2:	687b      	ldr	r3, [r7, #4]
 80051e4:	0018      	movs	r0, r3
 80051e6:	f001 fb12 	bl	800680e <USBD_CtlPrepareRx>
          break;
 80051ea:	e00a      	b.n	8005202 <USBD_CUSTOM_HID_Setup+0xc2>

        default:
          USBD_CtlError(pdev, req);
 80051ec:	683a      	ldr	r2, [r7, #0]
 80051ee:	687b      	ldr	r3, [r7, #4]
 80051f0:	0011      	movs	r1, r2
 80051f2:	0018      	movs	r0, r3
 80051f4:	f001 fa5a 	bl	80066ac <USBD_CtlError>
          ret = USBD_FAIL;
 80051f8:	2317      	movs	r3, #23
 80051fa:	18fb      	adds	r3, r7, r3
 80051fc:	2202      	movs	r2, #2
 80051fe:	701a      	strb	r2, [r3, #0]
          break;
 8005200:	46c0      	nop			; (mov r8, r8)
      }
      break;
 8005202:	e0a1      	b.n	8005348 <USBD_CUSTOM_HID_Setup+0x208>

    case USB_REQ_TYPE_STANDARD:
      switch (req->bRequest)
 8005204:	683b      	ldr	r3, [r7, #0]
 8005206:	785b      	ldrb	r3, [r3, #1]
 8005208:	2b0b      	cmp	r3, #11
 800520a:	d100      	bne.n	800520e <USBD_CUSTOM_HID_Setup+0xce>
 800520c:	e06d      	b.n	80052ea <USBD_CUSTOM_HID_Setup+0x1aa>
 800520e:	dd00      	ble.n	8005212 <USBD_CUSTOM_HID_Setup+0xd2>
 8005210:	e083      	b.n	800531a <USBD_CUSTOM_HID_Setup+0x1da>
 8005212:	2b0a      	cmp	r3, #10
 8005214:	d04f      	beq.n	80052b6 <USBD_CUSTOM_HID_Setup+0x176>
 8005216:	dd00      	ble.n	800521a <USBD_CUSTOM_HID_Setup+0xda>
 8005218:	e07f      	b.n	800531a <USBD_CUSTOM_HID_Setup+0x1da>
 800521a:	2b00      	cmp	r3, #0
 800521c:	d002      	beq.n	8005224 <USBD_CUSTOM_HID_Setup+0xe4>
 800521e:	2b06      	cmp	r3, #6
 8005220:	d019      	beq.n	8005256 <USBD_CUSTOM_HID_Setup+0x116>
 8005222:	e07a      	b.n	800531a <USBD_CUSTOM_HID_Setup+0x1da>
      {
        case USB_REQ_GET_STATUS:
          if (pdev->dev_state == USBD_STATE_CONFIGURED)
 8005224:	687a      	ldr	r2, [r7, #4]
 8005226:	23a7      	movs	r3, #167	; 0xa7
 8005228:	009b      	lsls	r3, r3, #2
 800522a:	5cd3      	ldrb	r3, [r2, r3]
 800522c:	2b03      	cmp	r3, #3
 800522e:	d107      	bne.n	8005240 <USBD_CUSTOM_HID_Setup+0x100>
          {
            USBD_CtlSendData(pdev, (uint8_t *)(void *)&status_info, 2U);
 8005230:	230e      	movs	r3, #14
 8005232:	18f9      	adds	r1, r7, r3
 8005234:	687b      	ldr	r3, [r7, #4]
 8005236:	2202      	movs	r2, #2
 8005238:	0018      	movs	r0, r3
 800523a:	f001 fab5 	bl	80067a8 <USBD_CtlSendData>
          else
          {
            USBD_CtlError(pdev, req);
            ret = USBD_FAIL;
          }
          break;
 800523e:	e077      	b.n	8005330 <USBD_CUSTOM_HID_Setup+0x1f0>
            USBD_CtlError(pdev, req);
 8005240:	683a      	ldr	r2, [r7, #0]
 8005242:	687b      	ldr	r3, [r7, #4]
 8005244:	0011      	movs	r1, r2
 8005246:	0018      	movs	r0, r3
 8005248:	f001 fa30 	bl	80066ac <USBD_CtlError>
            ret = USBD_FAIL;
 800524c:	2317      	movs	r3, #23
 800524e:	18fb      	adds	r3, r7, r3
 8005250:	2202      	movs	r2, #2
 8005252:	701a      	strb	r2, [r3, #0]
          break;
 8005254:	e06c      	b.n	8005330 <USBD_CUSTOM_HID_Setup+0x1f0>

        case USB_REQ_GET_DESCRIPTOR:
          if (req->wValue >> 8 == CUSTOM_HID_REPORT_DESC)
 8005256:	683b      	ldr	r3, [r7, #0]
 8005258:	885b      	ldrh	r3, [r3, #2]
 800525a:	0a1b      	lsrs	r3, r3, #8
 800525c:	b29b      	uxth	r3, r3
 800525e:	2b22      	cmp	r3, #34	; 0x22
 8005260:	d10f      	bne.n	8005282 <USBD_CUSTOM_HID_Setup+0x142>
          {
            len = MIN(USBD_CUSTOM_HID_REPORT_DESC_SIZE, req->wLength);
 8005262:	683b      	ldr	r3, [r7, #0]
 8005264:	88db      	ldrh	r3, [r3, #6]
 8005266:	221e      	movs	r2, #30
 8005268:	18ba      	adds	r2, r7, r2
 800526a:	b299      	uxth	r1, r3
 800526c:	2902      	cmp	r1, #2
 800526e:	d900      	bls.n	8005272 <USBD_CUSTOM_HID_Setup+0x132>
 8005270:	2302      	movs	r3, #2
 8005272:	8013      	strh	r3, [r2, #0]
            pbuf = ((USBD_CUSTOM_HID_ItfTypeDef *)pdev->pUserData)->pReport;
 8005274:	687a      	ldr	r2, [r7, #4]
 8005276:	23af      	movs	r3, #175	; 0xaf
 8005278:	009b      	lsls	r3, r3, #2
 800527a:	58d3      	ldr	r3, [r2, r3]
 800527c:	681b      	ldr	r3, [r3, #0]
 800527e:	61bb      	str	r3, [r7, #24]
 8005280:	e010      	b.n	80052a4 <USBD_CUSTOM_HID_Setup+0x164>
          }
          else
          {
            if (req->wValue >> 8 == CUSTOM_HID_DESCRIPTOR_TYPE)
 8005282:	683b      	ldr	r3, [r7, #0]
 8005284:	885b      	ldrh	r3, [r3, #2]
 8005286:	0a1b      	lsrs	r3, r3, #8
 8005288:	b29b      	uxth	r3, r3
 800528a:	2b21      	cmp	r3, #33	; 0x21
 800528c:	d10a      	bne.n	80052a4 <USBD_CUSTOM_HID_Setup+0x164>
            {
              pbuf = USBD_CUSTOM_HID_Desc;
 800528e:	4b33      	ldr	r3, [pc, #204]	; (800535c <USBD_CUSTOM_HID_Setup+0x21c>)
 8005290:	61bb      	str	r3, [r7, #24]
              len = MIN(USB_CUSTOM_HID_DESC_SIZ, req->wLength);
 8005292:	683b      	ldr	r3, [r7, #0]
 8005294:	88db      	ldrh	r3, [r3, #6]
 8005296:	221e      	movs	r2, #30
 8005298:	18ba      	adds	r2, r7, r2
 800529a:	b299      	uxth	r1, r3
 800529c:	2909      	cmp	r1, #9
 800529e:	d900      	bls.n	80052a2 <USBD_CUSTOM_HID_Setup+0x162>
 80052a0:	2309      	movs	r3, #9
 80052a2:	8013      	strh	r3, [r2, #0]
            }
          }

          USBD_CtlSendData(pdev, pbuf, len);
 80052a4:	231e      	movs	r3, #30
 80052a6:	18fb      	adds	r3, r7, r3
 80052a8:	881a      	ldrh	r2, [r3, #0]
 80052aa:	69b9      	ldr	r1, [r7, #24]
 80052ac:	687b      	ldr	r3, [r7, #4]
 80052ae:	0018      	movs	r0, r3
 80052b0:	f001 fa7a 	bl	80067a8 <USBD_CtlSendData>
          break;
 80052b4:	e03c      	b.n	8005330 <USBD_CUSTOM_HID_Setup+0x1f0>

        case USB_REQ_GET_INTERFACE :
          if (pdev->dev_state == USBD_STATE_CONFIGURED)
 80052b6:	687a      	ldr	r2, [r7, #4]
 80052b8:	23a7      	movs	r3, #167	; 0xa7
 80052ba:	009b      	lsls	r3, r3, #2
 80052bc:	5cd3      	ldrb	r3, [r2, r3]
 80052be:	2b03      	cmp	r3, #3
 80052c0:	d108      	bne.n	80052d4 <USBD_CUSTOM_HID_Setup+0x194>
          {
            USBD_CtlSendData(pdev, (uint8_t *)(void *)&hhid->AltSetting, 1U);
 80052c2:	693b      	ldr	r3, [r7, #16]
 80052c4:	330c      	adds	r3, #12
 80052c6:	0019      	movs	r1, r3
 80052c8:	687b      	ldr	r3, [r7, #4]
 80052ca:	2201      	movs	r2, #1
 80052cc:	0018      	movs	r0, r3
 80052ce:	f001 fa6b 	bl	80067a8 <USBD_CtlSendData>
          else
          {
            USBD_CtlError(pdev, req);
            ret = USBD_FAIL;
          }
          break;
 80052d2:	e02d      	b.n	8005330 <USBD_CUSTOM_HID_Setup+0x1f0>
            USBD_CtlError(pdev, req);
 80052d4:	683a      	ldr	r2, [r7, #0]
 80052d6:	687b      	ldr	r3, [r7, #4]
 80052d8:	0011      	movs	r1, r2
 80052da:	0018      	movs	r0, r3
 80052dc:	f001 f9e6 	bl	80066ac <USBD_CtlError>
            ret = USBD_FAIL;
 80052e0:	2317      	movs	r3, #23
 80052e2:	18fb      	adds	r3, r7, r3
 80052e4:	2202      	movs	r2, #2
 80052e6:	701a      	strb	r2, [r3, #0]
          break;
 80052e8:	e022      	b.n	8005330 <USBD_CUSTOM_HID_Setup+0x1f0>

        case USB_REQ_SET_INTERFACE :
          if (pdev->dev_state == USBD_STATE_CONFIGURED)
 80052ea:	687a      	ldr	r2, [r7, #4]
 80052ec:	23a7      	movs	r3, #167	; 0xa7
 80052ee:	009b      	lsls	r3, r3, #2
 80052f0:	5cd3      	ldrb	r3, [r2, r3]
 80052f2:	2b03      	cmp	r3, #3
 80052f4:	d106      	bne.n	8005304 <USBD_CUSTOM_HID_Setup+0x1c4>
          {
            hhid->AltSetting = (uint8_t)(req->wValue);
 80052f6:	683b      	ldr	r3, [r7, #0]
 80052f8:	885b      	ldrh	r3, [r3, #2]
 80052fa:	b2db      	uxtb	r3, r3
 80052fc:	001a      	movs	r2, r3
 80052fe:	693b      	ldr	r3, [r7, #16]
 8005300:	60da      	str	r2, [r3, #12]
          else
          {
            USBD_CtlError(pdev, req);
            ret = USBD_FAIL;
          }
          break;
 8005302:	e015      	b.n	8005330 <USBD_CUSTOM_HID_Setup+0x1f0>
            USBD_CtlError(pdev, req);
 8005304:	683a      	ldr	r2, [r7, #0]
 8005306:	687b      	ldr	r3, [r7, #4]
 8005308:	0011      	movs	r1, r2
 800530a:	0018      	movs	r0, r3
 800530c:	f001 f9ce 	bl	80066ac <USBD_CtlError>
            ret = USBD_FAIL;
 8005310:	2317      	movs	r3, #23
 8005312:	18fb      	adds	r3, r7, r3
 8005314:	2202      	movs	r2, #2
 8005316:	701a      	strb	r2, [r3, #0]
          break;
 8005318:	e00a      	b.n	8005330 <USBD_CUSTOM_HID_Setup+0x1f0>

        default:
          USBD_CtlError(pdev, req);
 800531a:	683a      	ldr	r2, [r7, #0]
 800531c:	687b      	ldr	r3, [r7, #4]
 800531e:	0011      	movs	r1, r2
 8005320:	0018      	movs	r0, r3
 8005322:	f001 f9c3 	bl	80066ac <USBD_CtlError>
          ret = USBD_FAIL;
 8005326:	2317      	movs	r3, #23
 8005328:	18fb      	adds	r3, r7, r3
 800532a:	2202      	movs	r2, #2
 800532c:	701a      	strb	r2, [r3, #0]
          break;
 800532e:	46c0      	nop			; (mov r8, r8)
      }
      break;
 8005330:	e00a      	b.n	8005348 <USBD_CUSTOM_HID_Setup+0x208>

    default:
      USBD_CtlError(pdev, req);
 8005332:	683a      	ldr	r2, [r7, #0]
 8005334:	687b      	ldr	r3, [r7, #4]
 8005336:	0011      	movs	r1, r2
 8005338:	0018      	movs	r0, r3
 800533a:	f001 f9b7 	bl	80066ac <USBD_CtlError>
      ret = USBD_FAIL;
 800533e:	2317      	movs	r3, #23
 8005340:	18fb      	adds	r3, r7, r3
 8005342:	2202      	movs	r2, #2
 8005344:	701a      	strb	r2, [r3, #0]
      break;
 8005346:	46c0      	nop			; (mov r8, r8)
  }
  return ret;
 8005348:	2317      	movs	r3, #23
 800534a:	18fb      	adds	r3, r7, r3
 800534c:	781b      	ldrb	r3, [r3, #0]
}
 800534e:	0018      	movs	r0, r3
 8005350:	46bd      	mov	sp, r7
 8005352:	b008      	add	sp, #32
 8005354:	bd80      	pop	{r7, pc}
 8005356:	46c0      	nop			; (mov r8, r8)
 8005358:	0800733c 	.word	0x0800733c
 800535c:	200000c8 	.word	0x200000c8

08005360 <USBD_CUSTOM_HID_GetFSCfgDesc>:
  * @param  speed : current device speed
  * @param  length : pointer data length
  * @retval pointer to descriptor buffer
  */
static uint8_t  *USBD_CUSTOM_HID_GetFSCfgDesc(uint16_t *length)
{
 8005360:	b580      	push	{r7, lr}
 8005362:	b082      	sub	sp, #8
 8005364:	af00      	add	r7, sp, #0
 8005366:	6078      	str	r0, [r7, #4]
  *length = sizeof(USBD_CUSTOM_HID_CfgFSDesc);
 8005368:	687b      	ldr	r3, [r7, #4]
 800536a:	2229      	movs	r2, #41	; 0x29
 800536c:	801a      	strh	r2, [r3, #0]
  return USBD_CUSTOM_HID_CfgFSDesc;
 800536e:	4b02      	ldr	r3, [pc, #8]	; (8005378 <USBD_CUSTOM_HID_GetFSCfgDesc+0x18>)
}
 8005370:	0018      	movs	r0, r3
 8005372:	46bd      	mov	sp, r7
 8005374:	b002      	add	sp, #8
 8005376:	bd80      	pop	{r7, pc}
 8005378:	20000044 	.word	0x20000044

0800537c <USBD_CUSTOM_HID_GetHSCfgDesc>:
  * @param  speed : current device speed
  * @param  length : pointer data length
  * @retval pointer to descriptor buffer
  */
static uint8_t  *USBD_CUSTOM_HID_GetHSCfgDesc(uint16_t *length)
{
 800537c:	b580      	push	{r7, lr}
 800537e:	b082      	sub	sp, #8
 8005380:	af00      	add	r7, sp, #0
 8005382:	6078      	str	r0, [r7, #4]
  *length = sizeof(USBD_CUSTOM_HID_CfgHSDesc);
 8005384:	687b      	ldr	r3, [r7, #4]
 8005386:	2229      	movs	r2, #41	; 0x29
 8005388:	801a      	strh	r2, [r3, #0]
  return USBD_CUSTOM_HID_CfgHSDesc;
 800538a:	4b02      	ldr	r3, [pc, #8]	; (8005394 <USBD_CUSTOM_HID_GetHSCfgDesc+0x18>)
}
 800538c:	0018      	movs	r0, r3
 800538e:	46bd      	mov	sp, r7
 8005390:	b002      	add	sp, #8
 8005392:	bd80      	pop	{r7, pc}
 8005394:	20000070 	.word	0x20000070

08005398 <USBD_CUSTOM_HID_GetOtherSpeedCfgDesc>:
  * @param  speed : current device speed
  * @param  length : pointer data length
  * @retval pointer to descriptor buffer
  */
static uint8_t  *USBD_CUSTOM_HID_GetOtherSpeedCfgDesc(uint16_t *length)
{
 8005398:	b580      	push	{r7, lr}
 800539a:	b082      	sub	sp, #8
 800539c:	af00      	add	r7, sp, #0
 800539e:	6078      	str	r0, [r7, #4]
  *length = sizeof(USBD_CUSTOM_HID_OtherSpeedCfgDesc);
 80053a0:	687b      	ldr	r3, [r7, #4]
 80053a2:	2229      	movs	r2, #41	; 0x29
 80053a4:	801a      	strh	r2, [r3, #0]
  return USBD_CUSTOM_HID_OtherSpeedCfgDesc;
 80053a6:	4b02      	ldr	r3, [pc, #8]	; (80053b0 <USBD_CUSTOM_HID_GetOtherSpeedCfgDesc+0x18>)
}
 80053a8:	0018      	movs	r0, r3
 80053aa:	46bd      	mov	sp, r7
 80053ac:	b002      	add	sp, #8
 80053ae:	bd80      	pop	{r7, pc}
 80053b0:	2000009c 	.word	0x2000009c

080053b4 <USBD_CUSTOM_HID_DataIn>:
  * @param  epnum: endpoint index
  * @retval status
  */
static uint8_t  USBD_CUSTOM_HID_DataIn(USBD_HandleTypeDef *pdev,
                                       uint8_t epnum)
{
 80053b4:	b580      	push	{r7, lr}
 80053b6:	b082      	sub	sp, #8
 80053b8:	af00      	add	r7, sp, #0
 80053ba:	6078      	str	r0, [r7, #4]
 80053bc:	000a      	movs	r2, r1
 80053be:	1cfb      	adds	r3, r7, #3
 80053c0:	701a      	strb	r2, [r3, #0]
  /* Ensure that the FIFO is empty before a new transfer, this condition could
  be caused by  a new transfer before the end of the previous transfer */
  ((USBD_CUSTOM_HID_HandleTypeDef *)pdev->pClassData)->state = CUSTOM_HID_IDLE;
 80053c2:	687a      	ldr	r2, [r7, #4]
 80053c4:	23ae      	movs	r3, #174	; 0xae
 80053c6:	009b      	lsls	r3, r3, #2
 80053c8:	58d3      	ldr	r3, [r2, r3]
 80053ca:	2200      	movs	r2, #0
 80053cc:	751a      	strb	r2, [r3, #20]

  return USBD_OK;
 80053ce:	2300      	movs	r3, #0
}
 80053d0:	0018      	movs	r0, r3
 80053d2:	46bd      	mov	sp, r7
 80053d4:	b002      	add	sp, #8
 80053d6:	bd80      	pop	{r7, pc}

080053d8 <USBD_CUSTOM_HID_DataOut>:
  * @param  epnum: endpoint index
  * @retval status
  */
static uint8_t  USBD_CUSTOM_HID_DataOut(USBD_HandleTypeDef *pdev,
                                        uint8_t epnum)
{
 80053d8:	b580      	push	{r7, lr}
 80053da:	b084      	sub	sp, #16
 80053dc:	af00      	add	r7, sp, #0
 80053de:	6078      	str	r0, [r7, #4]
 80053e0:	000a      	movs	r2, r1
 80053e2:	1cfb      	adds	r3, r7, #3
 80053e4:	701a      	strb	r2, [r3, #0]

  USBD_CUSTOM_HID_HandleTypeDef     *hhid = (USBD_CUSTOM_HID_HandleTypeDef *)pdev->pClassData;
 80053e6:	687a      	ldr	r2, [r7, #4]
 80053e8:	23ae      	movs	r3, #174	; 0xae
 80053ea:	009b      	lsls	r3, r3, #2
 80053ec:	58d3      	ldr	r3, [r2, r3]
 80053ee:	60fb      	str	r3, [r7, #12]

  ((USBD_CUSTOM_HID_ItfTypeDef *)pdev->pUserData)->OutEvent(hhid->Report_buf[0],
 80053f0:	687a      	ldr	r2, [r7, #4]
 80053f2:	23af      	movs	r3, #175	; 0xaf
 80053f4:	009b      	lsls	r3, r3, #2
 80053f6:	58d3      	ldr	r3, [r2, r3]
 80053f8:	68db      	ldr	r3, [r3, #12]
 80053fa:	68fa      	ldr	r2, [r7, #12]
 80053fc:	7810      	ldrb	r0, [r2, #0]
 80053fe:	68fa      	ldr	r2, [r7, #12]
 8005400:	7852      	ldrb	r2, [r2, #1]
 8005402:	0011      	movs	r1, r2
 8005404:	4798      	blx	r3
                                                            hhid->Report_buf[1]);

  USBD_LL_PrepareReceive(pdev, CUSTOM_HID_EPOUT_ADDR, hhid->Report_buf,
 8005406:	68fa      	ldr	r2, [r7, #12]
 8005408:	6878      	ldr	r0, [r7, #4]
 800540a:	2302      	movs	r3, #2
 800540c:	2101      	movs	r1, #1
 800540e:	f001 fe8b 	bl	8007128 <USBD_LL_PrepareReceive>
                         USBD_CUSTOMHID_OUTREPORT_BUF_SIZE);

  return USBD_OK;
 8005412:	2300      	movs	r3, #0
}
 8005414:	0018      	movs	r0, r3
 8005416:	46bd      	mov	sp, r7
 8005418:	b004      	add	sp, #16
 800541a:	bd80      	pop	{r7, pc}

0800541c <USBD_CUSTOM_HID_EP0_RxReady>:
  *         Handles control request data.
  * @param  pdev: device instance
  * @retval status
  */
static uint8_t USBD_CUSTOM_HID_EP0_RxReady(USBD_HandleTypeDef *pdev)
{
 800541c:	b580      	push	{r7, lr}
 800541e:	b084      	sub	sp, #16
 8005420:	af00      	add	r7, sp, #0
 8005422:	6078      	str	r0, [r7, #4]
  USBD_CUSTOM_HID_HandleTypeDef     *hhid = (USBD_CUSTOM_HID_HandleTypeDef *)pdev->pClassData;
 8005424:	687a      	ldr	r2, [r7, #4]
 8005426:	23ae      	movs	r3, #174	; 0xae
 8005428:	009b      	lsls	r3, r3, #2
 800542a:	58d3      	ldr	r3, [r2, r3]
 800542c:	60fb      	str	r3, [r7, #12]

  if (hhid->IsReportAvailable == 1U)
 800542e:	68fb      	ldr	r3, [r7, #12]
 8005430:	691b      	ldr	r3, [r3, #16]
 8005432:	2b01      	cmp	r3, #1
 8005434:	d10d      	bne.n	8005452 <USBD_CUSTOM_HID_EP0_RxReady+0x36>
  {
    ((USBD_CUSTOM_HID_ItfTypeDef *)pdev->pUserData)->OutEvent(hhid->Report_buf[0],
 8005436:	687a      	ldr	r2, [r7, #4]
 8005438:	23af      	movs	r3, #175	; 0xaf
 800543a:	009b      	lsls	r3, r3, #2
 800543c:	58d3      	ldr	r3, [r2, r3]
 800543e:	68db      	ldr	r3, [r3, #12]
 8005440:	68fa      	ldr	r2, [r7, #12]
 8005442:	7810      	ldrb	r0, [r2, #0]
 8005444:	68fa      	ldr	r2, [r7, #12]
 8005446:	7852      	ldrb	r2, [r2, #1]
 8005448:	0011      	movs	r1, r2
 800544a:	4798      	blx	r3
                                                              hhid->Report_buf[1]);
    hhid->IsReportAvailable = 0U;
 800544c:	68fb      	ldr	r3, [r7, #12]
 800544e:	2200      	movs	r2, #0
 8005450:	611a      	str	r2, [r3, #16]
  }

  return USBD_OK;
 8005452:	2300      	movs	r3, #0
}
 8005454:	0018      	movs	r0, r3
 8005456:	46bd      	mov	sp, r7
 8005458:	b004      	add	sp, #16
 800545a:	bd80      	pop	{r7, pc}

0800545c <USBD_CUSTOM_HID_GetDeviceQualifierDesc>:
*         return Device Qualifier descriptor
* @param  length : pointer data length
* @retval pointer to descriptor buffer
*/
static uint8_t  *USBD_CUSTOM_HID_GetDeviceQualifierDesc(uint16_t *length)
{
 800545c:	b580      	push	{r7, lr}
 800545e:	b082      	sub	sp, #8
 8005460:	af00      	add	r7, sp, #0
 8005462:	6078      	str	r0, [r7, #4]
  *length = sizeof(USBD_CUSTOM_HID_DeviceQualifierDesc);
 8005464:	687b      	ldr	r3, [r7, #4]
 8005466:	220a      	movs	r2, #10
 8005468:	801a      	strh	r2, [r3, #0]
  return USBD_CUSTOM_HID_DeviceQualifierDesc;
 800546a:	4b02      	ldr	r3, [pc, #8]	; (8005474 <USBD_CUSTOM_HID_GetDeviceQualifierDesc+0x18>)
}
 800546c:	0018      	movs	r0, r3
 800546e:	46bd      	mov	sp, r7
 8005470:	b002      	add	sp, #8
 8005472:	bd80      	pop	{r7, pc}
 8005474:	200000d4 	.word	0x200000d4

08005478 <USBD_CUSTOM_HID_RegisterInterface>:
  * @param  fops: CUSTOMHID Interface callback
  * @retval status
  */
uint8_t  USBD_CUSTOM_HID_RegisterInterface(USBD_HandleTypeDef   *pdev,
                                           USBD_CUSTOM_HID_ItfTypeDef *fops)
{
 8005478:	b580      	push	{r7, lr}
 800547a:	b084      	sub	sp, #16
 800547c:	af00      	add	r7, sp, #0
 800547e:	6078      	str	r0, [r7, #4]
 8005480:	6039      	str	r1, [r7, #0]
  uint8_t  ret = USBD_FAIL;
 8005482:	200f      	movs	r0, #15
 8005484:	183b      	adds	r3, r7, r0
 8005486:	2202      	movs	r2, #2
 8005488:	701a      	strb	r2, [r3, #0]

  if (fops != NULL)
 800548a:	683b      	ldr	r3, [r7, #0]
 800548c:	2b00      	cmp	r3, #0
 800548e:	d007      	beq.n	80054a0 <USBD_CUSTOM_HID_RegisterInterface+0x28>
  {
    pdev->pUserData = fops;
 8005490:	687a      	ldr	r2, [r7, #4]
 8005492:	23af      	movs	r3, #175	; 0xaf
 8005494:	009b      	lsls	r3, r3, #2
 8005496:	6839      	ldr	r1, [r7, #0]
 8005498:	50d1      	str	r1, [r2, r3]
    ret = USBD_OK;
 800549a:	183b      	adds	r3, r7, r0
 800549c:	2200      	movs	r2, #0
 800549e:	701a      	strb	r2, [r3, #0]
  }

  return ret;
 80054a0:	230f      	movs	r3, #15
 80054a2:	18fb      	adds	r3, r7, r3
 80054a4:	781b      	ldrb	r3, [r3, #0]
}
 80054a6:	0018      	movs	r0, r3
 80054a8:	46bd      	mov	sp, r7
 80054aa:	b004      	add	sp, #16
 80054ac:	bd80      	pop	{r7, pc}

080054ae <USBD_Init>:
* @param  id: Low level core index
* @retval None
*/
USBD_StatusTypeDef USBD_Init(USBD_HandleTypeDef *pdev,
                             USBD_DescriptorsTypeDef *pdesc, uint8_t id)
{
 80054ae:	b580      	push	{r7, lr}
 80054b0:	b084      	sub	sp, #16
 80054b2:	af00      	add	r7, sp, #0
 80054b4:	60f8      	str	r0, [r7, #12]
 80054b6:	60b9      	str	r1, [r7, #8]
 80054b8:	1dfb      	adds	r3, r7, #7
 80054ba:	701a      	strb	r2, [r3, #0]
  /* Check whether the USB Host handle is valid */
  if (pdev == NULL)
 80054bc:	68fb      	ldr	r3, [r7, #12]
 80054be:	2b00      	cmp	r3, #0
 80054c0:	d101      	bne.n	80054c6 <USBD_Init+0x18>
  {
#if (USBD_DEBUG_LEVEL > 1U)
    USBD_ErrLog("Invalid Device handle");
#endif
    return USBD_FAIL;
 80054c2:	2302      	movs	r3, #2
 80054c4:	e020      	b.n	8005508 <USBD_Init+0x5a>
  }

  /* Unlink previous class*/
  if (pdev->pClass != NULL)
 80054c6:	68fa      	ldr	r2, [r7, #12]
 80054c8:	23ad      	movs	r3, #173	; 0xad
 80054ca:	009b      	lsls	r3, r3, #2
 80054cc:	58d3      	ldr	r3, [r2, r3]
 80054ce:	2b00      	cmp	r3, #0
 80054d0:	d004      	beq.n	80054dc <USBD_Init+0x2e>
  {
    pdev->pClass = NULL;
 80054d2:	68fa      	ldr	r2, [r7, #12]
 80054d4:	23ad      	movs	r3, #173	; 0xad
 80054d6:	009b      	lsls	r3, r3, #2
 80054d8:	2100      	movs	r1, #0
 80054da:	50d1      	str	r1, [r2, r3]
  }

  /* Assign USBD Descriptors */
  if (pdesc != NULL)
 80054dc:	68bb      	ldr	r3, [r7, #8]
 80054de:	2b00      	cmp	r3, #0
 80054e0:	d004      	beq.n	80054ec <USBD_Init+0x3e>
  {
    pdev->pDesc = pdesc;
 80054e2:	68fa      	ldr	r2, [r7, #12]
 80054e4:	23ac      	movs	r3, #172	; 0xac
 80054e6:	009b      	lsls	r3, r3, #2
 80054e8:	68b9      	ldr	r1, [r7, #8]
 80054ea:	50d1      	str	r1, [r2, r3]
  }

  /* Set Device initial State */
  pdev->dev_state = USBD_STATE_DEFAULT;
 80054ec:	68fa      	ldr	r2, [r7, #12]
 80054ee:	23a7      	movs	r3, #167	; 0xa7
 80054f0:	009b      	lsls	r3, r3, #2
 80054f2:	2101      	movs	r1, #1
 80054f4:	54d1      	strb	r1, [r2, r3]
  pdev->id = id;
 80054f6:	68fb      	ldr	r3, [r7, #12]
 80054f8:	1dfa      	adds	r2, r7, #7
 80054fa:	7812      	ldrb	r2, [r2, #0]
 80054fc:	701a      	strb	r2, [r3, #0]
  /* Initialize low level driver */
  USBD_LL_Init(pdev);
 80054fe:	68fb      	ldr	r3, [r7, #12]
 8005500:	0018      	movs	r0, r3
 8005502:	f001 fc49 	bl	8006d98 <USBD_LL_Init>

  return USBD_OK;
 8005506:	2300      	movs	r3, #0
}
 8005508:	0018      	movs	r0, r3
 800550a:	46bd      	mov	sp, r7
 800550c:	b004      	add	sp, #16
 800550e:	bd80      	pop	{r7, pc}

08005510 <USBD_RegisterClass>:
  * @param  pDevice : Device Handle
  * @param  pclass: Class handle
  * @retval USBD Status
  */
USBD_StatusTypeDef  USBD_RegisterClass(USBD_HandleTypeDef *pdev, USBD_ClassTypeDef *pclass)
{
 8005510:	b580      	push	{r7, lr}
 8005512:	b084      	sub	sp, #16
 8005514:	af00      	add	r7, sp, #0
 8005516:	6078      	str	r0, [r7, #4]
 8005518:	6039      	str	r1, [r7, #0]
  USBD_StatusTypeDef status = USBD_OK;
 800551a:	200f      	movs	r0, #15
 800551c:	183b      	adds	r3, r7, r0
 800551e:	2200      	movs	r2, #0
 8005520:	701a      	strb	r2, [r3, #0]
  if (pclass != NULL)
 8005522:	683b      	ldr	r3, [r7, #0]
 8005524:	2b00      	cmp	r3, #0
 8005526:	d008      	beq.n	800553a <USBD_RegisterClass+0x2a>
  {
    /* link the class to the USB Device handle */
    pdev->pClass = pclass;
 8005528:	687a      	ldr	r2, [r7, #4]
 800552a:	23ad      	movs	r3, #173	; 0xad
 800552c:	009b      	lsls	r3, r3, #2
 800552e:	6839      	ldr	r1, [r7, #0]
 8005530:	50d1      	str	r1, [r2, r3]
    status = USBD_OK;
 8005532:	183b      	adds	r3, r7, r0
 8005534:	2200      	movs	r2, #0
 8005536:	701a      	strb	r2, [r3, #0]
 8005538:	e003      	b.n	8005542 <USBD_RegisterClass+0x32>
  else
  {
#if (USBD_DEBUG_LEVEL > 1U)
    USBD_ErrLog("Invalid Class handle");
#endif
    status = USBD_FAIL;
 800553a:	230f      	movs	r3, #15
 800553c:	18fb      	adds	r3, r7, r3
 800553e:	2202      	movs	r2, #2
 8005540:	701a      	strb	r2, [r3, #0]
  }

  return status;
 8005542:	230f      	movs	r3, #15
 8005544:	18fb      	adds	r3, r7, r3
 8005546:	781b      	ldrb	r3, [r3, #0]
}
 8005548:	0018      	movs	r0, r3
 800554a:	46bd      	mov	sp, r7
 800554c:	b004      	add	sp, #16
 800554e:	bd80      	pop	{r7, pc}

08005550 <USBD_Start>:
  *         Start the USB Device Core.
  * @param  pdev: Device Handle
  * @retval USBD Status
  */
USBD_StatusTypeDef  USBD_Start(USBD_HandleTypeDef *pdev)
{
 8005550:	b580      	push	{r7, lr}
 8005552:	b082      	sub	sp, #8
 8005554:	af00      	add	r7, sp, #0
 8005556:	6078      	str	r0, [r7, #4]
  /* Start the low level driver  */
  USBD_LL_Start(pdev);
 8005558:	687b      	ldr	r3, [r7, #4]
 800555a:	0018      	movs	r0, r3
 800555c:	f001 fc74 	bl	8006e48 <USBD_LL_Start>

  return USBD_OK;
 8005560:	2300      	movs	r3, #0
}
 8005562:	0018      	movs	r0, r3
 8005564:	46bd      	mov	sp, r7
 8005566:	b002      	add	sp, #8
 8005568:	bd80      	pop	{r7, pc}

0800556a <USBD_RunTestMode>:
*         Launch test mode process
* @param  pdev: device instance
* @retval status
*/
USBD_StatusTypeDef  USBD_RunTestMode(USBD_HandleTypeDef  *pdev)
{
 800556a:	b580      	push	{r7, lr}
 800556c:	b082      	sub	sp, #8
 800556e:	af00      	add	r7, sp, #0
 8005570:	6078      	str	r0, [r7, #4]
  /* Prevent unused argument compilation warning */
  UNUSED(pdev);

  return USBD_OK;
 8005572:	2300      	movs	r3, #0
}
 8005574:	0018      	movs	r0, r3
 8005576:	46bd      	mov	sp, r7
 8005578:	b002      	add	sp, #8
 800557a:	bd80      	pop	{r7, pc}

0800557c <USBD_SetClassConfig>:
* @param  cfgidx: configuration index
* @retval status
*/

USBD_StatusTypeDef USBD_SetClassConfig(USBD_HandleTypeDef  *pdev, uint8_t cfgidx)
{
 800557c:	b590      	push	{r4, r7, lr}
 800557e:	b085      	sub	sp, #20
 8005580:	af00      	add	r7, sp, #0
 8005582:	6078      	str	r0, [r7, #4]
 8005584:	000a      	movs	r2, r1
 8005586:	1cfb      	adds	r3, r7, #3
 8005588:	701a      	strb	r2, [r3, #0]
  USBD_StatusTypeDef ret = USBD_FAIL;
 800558a:	240f      	movs	r4, #15
 800558c:	193b      	adds	r3, r7, r4
 800558e:	2202      	movs	r2, #2
 8005590:	701a      	strb	r2, [r3, #0]

  if (pdev->pClass != NULL)
 8005592:	687a      	ldr	r2, [r7, #4]
 8005594:	23ad      	movs	r3, #173	; 0xad
 8005596:	009b      	lsls	r3, r3, #2
 8005598:	58d3      	ldr	r3, [r2, r3]
 800559a:	2b00      	cmp	r3, #0
 800559c:	d00e      	beq.n	80055bc <USBD_SetClassConfig+0x40>
  {
    /* Set configuration  and Start the Class*/
    if (pdev->pClass->Init(pdev, cfgidx) == 0U)
 800559e:	687a      	ldr	r2, [r7, #4]
 80055a0:	23ad      	movs	r3, #173	; 0xad
 80055a2:	009b      	lsls	r3, r3, #2
 80055a4:	58d3      	ldr	r3, [r2, r3]
 80055a6:	681b      	ldr	r3, [r3, #0]
 80055a8:	1cfa      	adds	r2, r7, #3
 80055aa:	7811      	ldrb	r1, [r2, #0]
 80055ac:	687a      	ldr	r2, [r7, #4]
 80055ae:	0010      	movs	r0, r2
 80055b0:	4798      	blx	r3
 80055b2:	1e03      	subs	r3, r0, #0
 80055b4:	d102      	bne.n	80055bc <USBD_SetClassConfig+0x40>
    {
      ret = USBD_OK;
 80055b6:	193b      	adds	r3, r7, r4
 80055b8:	2200      	movs	r2, #0
 80055ba:	701a      	strb	r2, [r3, #0]
    }
  }

  return ret;
 80055bc:	230f      	movs	r3, #15
 80055be:	18fb      	adds	r3, r7, r3
 80055c0:	781b      	ldrb	r3, [r3, #0]
}
 80055c2:	0018      	movs	r0, r3
 80055c4:	46bd      	mov	sp, r7
 80055c6:	b005      	add	sp, #20
 80055c8:	bd90      	pop	{r4, r7, pc}

080055ca <USBD_ClrClassConfig>:
* @param  pdev: device instance
* @param  cfgidx: configuration index
* @retval status: USBD_StatusTypeDef
*/
USBD_StatusTypeDef USBD_ClrClassConfig(USBD_HandleTypeDef  *pdev, uint8_t cfgidx)
{
 80055ca:	b580      	push	{r7, lr}
 80055cc:	b082      	sub	sp, #8
 80055ce:	af00      	add	r7, sp, #0
 80055d0:	6078      	str	r0, [r7, #4]
 80055d2:	000a      	movs	r2, r1
 80055d4:	1cfb      	adds	r3, r7, #3
 80055d6:	701a      	strb	r2, [r3, #0]
  /* Clear configuration  and De-initialize the Class process*/
  pdev->pClass->DeInit(pdev, cfgidx);
 80055d8:	687a      	ldr	r2, [r7, #4]
 80055da:	23ad      	movs	r3, #173	; 0xad
 80055dc:	009b      	lsls	r3, r3, #2
 80055de:	58d3      	ldr	r3, [r2, r3]
 80055e0:	685b      	ldr	r3, [r3, #4]
 80055e2:	1cfa      	adds	r2, r7, #3
 80055e4:	7811      	ldrb	r1, [r2, #0]
 80055e6:	687a      	ldr	r2, [r7, #4]
 80055e8:	0010      	movs	r0, r2
 80055ea:	4798      	blx	r3

  return USBD_OK;
 80055ec:	2300      	movs	r3, #0
}
 80055ee:	0018      	movs	r0, r3
 80055f0:	46bd      	mov	sp, r7
 80055f2:	b002      	add	sp, #8
 80055f4:	bd80      	pop	{r7, pc}
	...

080055f8 <USBD_LL_SetupStage>:
*         Handle the setup stage
* @param  pdev: device instance
* @retval status
*/
USBD_StatusTypeDef USBD_LL_SetupStage(USBD_HandleTypeDef *pdev, uint8_t *psetup)
{
 80055f8:	b580      	push	{r7, lr}
 80055fa:	b082      	sub	sp, #8
 80055fc:	af00      	add	r7, sp, #0
 80055fe:	6078      	str	r0, [r7, #4]
 8005600:	6039      	str	r1, [r7, #0]
  USBD_ParseSetupRequest(&pdev->request, psetup);
 8005602:	687b      	ldr	r3, [r7, #4]
 8005604:	22aa      	movs	r2, #170	; 0xaa
 8005606:	0092      	lsls	r2, r2, #2
 8005608:	4694      	mov	ip, r2
 800560a:	4463      	add	r3, ip
 800560c:	683a      	ldr	r2, [r7, #0]
 800560e:	0011      	movs	r1, r2
 8005610:	0018      	movs	r0, r3
 8005612:	f001 f810 	bl	8006636 <USBD_ParseSetupRequest>

  pdev->ep0_state = USBD_EP0_SETUP;
 8005616:	687a      	ldr	r2, [r7, #4]
 8005618:	23a5      	movs	r3, #165	; 0xa5
 800561a:	009b      	lsls	r3, r3, #2
 800561c:	2101      	movs	r1, #1
 800561e:	50d1      	str	r1, [r2, r3]

  pdev->ep0_data_len = pdev->request.wLength;
 8005620:	687b      	ldr	r3, [r7, #4]
 8005622:	4a23      	ldr	r2, [pc, #140]	; (80056b0 <USBD_LL_SetupStage+0xb8>)
 8005624:	5a9b      	ldrh	r3, [r3, r2]
 8005626:	0019      	movs	r1, r3
 8005628:	687a      	ldr	r2, [r7, #4]
 800562a:	23a6      	movs	r3, #166	; 0xa6
 800562c:	009b      	lsls	r3, r3, #2
 800562e:	50d1      	str	r1, [r2, r3]

  switch (pdev->request.bmRequest & 0x1FU)
 8005630:	687a      	ldr	r2, [r7, #4]
 8005632:	23aa      	movs	r3, #170	; 0xaa
 8005634:	009b      	lsls	r3, r3, #2
 8005636:	5cd3      	ldrb	r3, [r2, r3]
 8005638:	001a      	movs	r2, r3
 800563a:	231f      	movs	r3, #31
 800563c:	4013      	ands	r3, r2
 800563e:	2b02      	cmp	r3, #2
 8005640:	d019      	beq.n	8005676 <USBD_LL_SetupStage+0x7e>
 8005642:	d822      	bhi.n	800568a <USBD_LL_SetupStage+0x92>
 8005644:	2b00      	cmp	r3, #0
 8005646:	d002      	beq.n	800564e <USBD_LL_SetupStage+0x56>
 8005648:	2b01      	cmp	r3, #1
 800564a:	d00a      	beq.n	8005662 <USBD_LL_SetupStage+0x6a>
 800564c:	e01d      	b.n	800568a <USBD_LL_SetupStage+0x92>
  {
    case USB_REQ_RECIPIENT_DEVICE:
      USBD_StdDevReq(pdev, &pdev->request);
 800564e:	687b      	ldr	r3, [r7, #4]
 8005650:	22aa      	movs	r2, #170	; 0xaa
 8005652:	0092      	lsls	r2, r2, #2
 8005654:	189a      	adds	r2, r3, r2
 8005656:	687b      	ldr	r3, [r7, #4]
 8005658:	0011      	movs	r1, r2
 800565a:	0018      	movs	r0, r3
 800565c:	f000 fa10 	bl	8005a80 <USBD_StdDevReq>
      break;
 8005660:	e020      	b.n	80056a4 <USBD_LL_SetupStage+0xac>

    case USB_REQ_RECIPIENT_INTERFACE:
      USBD_StdItfReq(pdev, &pdev->request);
 8005662:	687b      	ldr	r3, [r7, #4]
 8005664:	22aa      	movs	r2, #170	; 0xaa
 8005666:	0092      	lsls	r2, r2, #2
 8005668:	189a      	adds	r2, r3, r2
 800566a:	687b      	ldr	r3, [r7, #4]
 800566c:	0011      	movs	r1, r2
 800566e:	0018      	movs	r0, r3
 8005670:	f000 fa78 	bl	8005b64 <USBD_StdItfReq>
      break;
 8005674:	e016      	b.n	80056a4 <USBD_LL_SetupStage+0xac>

    case USB_REQ_RECIPIENT_ENDPOINT:
      USBD_StdEPReq(pdev, &pdev->request);
 8005676:	687b      	ldr	r3, [r7, #4]
 8005678:	22aa      	movs	r2, #170	; 0xaa
 800567a:	0092      	lsls	r2, r2, #2
 800567c:	189a      	adds	r2, r3, r2
 800567e:	687b      	ldr	r3, [r7, #4]
 8005680:	0011      	movs	r1, r2
 8005682:	0018      	movs	r0, r3
 8005684:	f000 fac5 	bl	8005c12 <USBD_StdEPReq>
      break;
 8005688:	e00c      	b.n	80056a4 <USBD_LL_SetupStage+0xac>

    default:
      USBD_LL_StallEP(pdev, (pdev->request.bmRequest & 0x80U));
 800568a:	687a      	ldr	r2, [r7, #4]
 800568c:	23aa      	movs	r3, #170	; 0xaa
 800568e:	009b      	lsls	r3, r3, #2
 8005690:	5cd3      	ldrb	r3, [r2, r3]
 8005692:	227f      	movs	r2, #127	; 0x7f
 8005694:	4393      	bics	r3, r2
 8005696:	b2da      	uxtb	r2, r3
 8005698:	687b      	ldr	r3, [r7, #4]
 800569a:	0011      	movs	r1, r2
 800569c:	0018      	movs	r0, r3
 800569e:	f001 fc5a 	bl	8006f56 <USBD_LL_StallEP>
      break;
 80056a2:	46c0      	nop			; (mov r8, r8)
  }

  return USBD_OK;
 80056a4:	2300      	movs	r3, #0
}
 80056a6:	0018      	movs	r0, r3
 80056a8:	46bd      	mov	sp, r7
 80056aa:	b002      	add	sp, #8
 80056ac:	bd80      	pop	{r7, pc}
 80056ae:	46c0      	nop			; (mov r8, r8)
 80056b0:	000002ae 	.word	0x000002ae

080056b4 <USBD_LL_DataOutStage>:
* @param  epnum: endpoint index
* @retval status
*/
USBD_StatusTypeDef USBD_LL_DataOutStage(USBD_HandleTypeDef *pdev,
                                        uint8_t epnum, uint8_t *pdata)
{
 80056b4:	b580      	push	{r7, lr}
 80056b6:	b086      	sub	sp, #24
 80056b8:	af00      	add	r7, sp, #0
 80056ba:	60f8      	str	r0, [r7, #12]
 80056bc:	607a      	str	r2, [r7, #4]
 80056be:	200b      	movs	r0, #11
 80056c0:	183b      	adds	r3, r7, r0
 80056c2:	1c0a      	adds	r2, r1, #0
 80056c4:	701a      	strb	r2, [r3, #0]
  USBD_EndpointTypeDef *pep;

  if (epnum == 0U)
 80056c6:	183b      	adds	r3, r7, r0
 80056c8:	781b      	ldrb	r3, [r3, #0]
 80056ca:	2b00      	cmp	r3, #0
 80056cc:	d154      	bne.n	8005778 <USBD_LL_DataOutStage+0xc4>
  {
    pep = &pdev->ep_out[0];
 80056ce:	68fb      	ldr	r3, [r7, #12]
 80056d0:	3355      	adds	r3, #85	; 0x55
 80056d2:	33ff      	adds	r3, #255	; 0xff
 80056d4:	617b      	str	r3, [r7, #20]

    if (pdev->ep0_state == USBD_EP0_DATA_OUT)
 80056d6:	68fa      	ldr	r2, [r7, #12]
 80056d8:	23a5      	movs	r3, #165	; 0xa5
 80056da:	009b      	lsls	r3, r3, #2
 80056dc:	58d3      	ldr	r3, [r2, r3]
 80056de:	2b03      	cmp	r3, #3
 80056e0:	d139      	bne.n	8005756 <USBD_LL_DataOutStage+0xa2>
    {
      if (pep->rem_length > pep->maxpacket)
 80056e2:	697b      	ldr	r3, [r7, #20]
 80056e4:	68da      	ldr	r2, [r3, #12]
 80056e6:	697b      	ldr	r3, [r7, #20]
 80056e8:	691b      	ldr	r3, [r3, #16]
 80056ea:	429a      	cmp	r2, r3
 80056ec:	d919      	bls.n	8005722 <USBD_LL_DataOutStage+0x6e>
      {
        pep->rem_length -= pep->maxpacket;
 80056ee:	697b      	ldr	r3, [r7, #20]
 80056f0:	68da      	ldr	r2, [r3, #12]
 80056f2:	697b      	ldr	r3, [r7, #20]
 80056f4:	691b      	ldr	r3, [r3, #16]
 80056f6:	1ad2      	subs	r2, r2, r3
 80056f8:	697b      	ldr	r3, [r7, #20]
 80056fa:	60da      	str	r2, [r3, #12]

        USBD_CtlContinueRx(pdev, pdata,
                           (uint16_t)MIN(pep->rem_length, pep->maxpacket));
 80056fc:	697b      	ldr	r3, [r7, #20]
 80056fe:	68da      	ldr	r2, [r3, #12]
 8005700:	697b      	ldr	r3, [r7, #20]
 8005702:	691b      	ldr	r3, [r3, #16]
        USBD_CtlContinueRx(pdev, pdata,
 8005704:	429a      	cmp	r2, r3
 8005706:	d203      	bcs.n	8005710 <USBD_LL_DataOutStage+0x5c>
                           (uint16_t)MIN(pep->rem_length, pep->maxpacket));
 8005708:	697b      	ldr	r3, [r7, #20]
 800570a:	68db      	ldr	r3, [r3, #12]
        USBD_CtlContinueRx(pdev, pdata,
 800570c:	b29b      	uxth	r3, r3
 800570e:	e002      	b.n	8005716 <USBD_LL_DataOutStage+0x62>
                           (uint16_t)MIN(pep->rem_length, pep->maxpacket));
 8005710:	697b      	ldr	r3, [r7, #20]
 8005712:	691b      	ldr	r3, [r3, #16]
        USBD_CtlContinueRx(pdev, pdata,
 8005714:	b29b      	uxth	r3, r3
 8005716:	6879      	ldr	r1, [r7, #4]
 8005718:	68f8      	ldr	r0, [r7, #12]
 800571a:	001a      	movs	r2, r3
 800571c:	f001 f89b 	bl	8006856 <USBD_CtlContinueRx>
 8005720:	e045      	b.n	80057ae <USBD_LL_DataOutStage+0xfa>
      }
      else
      {
        if ((pdev->pClass->EP0_RxReady != NULL) &&
 8005722:	68fa      	ldr	r2, [r7, #12]
 8005724:	23ad      	movs	r3, #173	; 0xad
 8005726:	009b      	lsls	r3, r3, #2
 8005728:	58d3      	ldr	r3, [r2, r3]
 800572a:	691b      	ldr	r3, [r3, #16]
 800572c:	2b00      	cmp	r3, #0
 800572e:	d00d      	beq.n	800574c <USBD_LL_DataOutStage+0x98>
            (pdev->dev_state == USBD_STATE_CONFIGURED))
 8005730:	68fa      	ldr	r2, [r7, #12]
 8005732:	23a7      	movs	r3, #167	; 0xa7
 8005734:	009b      	lsls	r3, r3, #2
 8005736:	5cd3      	ldrb	r3, [r2, r3]
        if ((pdev->pClass->EP0_RxReady != NULL) &&
 8005738:	2b03      	cmp	r3, #3
 800573a:	d107      	bne.n	800574c <USBD_LL_DataOutStage+0x98>
        {
          pdev->pClass->EP0_RxReady(pdev);
 800573c:	68fa      	ldr	r2, [r7, #12]
 800573e:	23ad      	movs	r3, #173	; 0xad
 8005740:	009b      	lsls	r3, r3, #2
 8005742:	58d3      	ldr	r3, [r2, r3]
 8005744:	691b      	ldr	r3, [r3, #16]
 8005746:	68fa      	ldr	r2, [r7, #12]
 8005748:	0010      	movs	r0, r2
 800574a:	4798      	blx	r3
        }
        USBD_CtlSendStatus(pdev);
 800574c:	68fb      	ldr	r3, [r7, #12]
 800574e:	0018      	movs	r0, r3
 8005750:	f001 f894 	bl	800687c <USBD_CtlSendStatus>
 8005754:	e02b      	b.n	80057ae <USBD_LL_DataOutStage+0xfa>
      }
    }
    else
    {
      if (pdev->ep0_state == USBD_EP0_STATUS_OUT)
 8005756:	68fa      	ldr	r2, [r7, #12]
 8005758:	23a5      	movs	r3, #165	; 0xa5
 800575a:	009b      	lsls	r3, r3, #2
 800575c:	58d3      	ldr	r3, [r2, r3]
 800575e:	2b05      	cmp	r3, #5
 8005760:	d125      	bne.n	80057ae <USBD_LL_DataOutStage+0xfa>
      {
        /*
         * STATUS PHASE completed, update ep0_state to idle
         */
        pdev->ep0_state = USBD_EP0_IDLE;
 8005762:	68fa      	ldr	r2, [r7, #12]
 8005764:	23a5      	movs	r3, #165	; 0xa5
 8005766:	009b      	lsls	r3, r3, #2
 8005768:	2100      	movs	r1, #0
 800576a:	50d1      	str	r1, [r2, r3]
        USBD_LL_StallEP(pdev, 0U);
 800576c:	68fb      	ldr	r3, [r7, #12]
 800576e:	2100      	movs	r1, #0
 8005770:	0018      	movs	r0, r3
 8005772:	f001 fbf0 	bl	8006f56 <USBD_LL_StallEP>
 8005776:	e01a      	b.n	80057ae <USBD_LL_DataOutStage+0xfa>
      }
    }
  }
  else if ((pdev->pClass->DataOut != NULL) &&
 8005778:	68fa      	ldr	r2, [r7, #12]
 800577a:	23ad      	movs	r3, #173	; 0xad
 800577c:	009b      	lsls	r3, r3, #2
 800577e:	58d3      	ldr	r3, [r2, r3]
 8005780:	699b      	ldr	r3, [r3, #24]
 8005782:	2b00      	cmp	r3, #0
 8005784:	d011      	beq.n	80057aa <USBD_LL_DataOutStage+0xf6>
           (pdev->dev_state == USBD_STATE_CONFIGURED))
 8005786:	68fa      	ldr	r2, [r7, #12]
 8005788:	23a7      	movs	r3, #167	; 0xa7
 800578a:	009b      	lsls	r3, r3, #2
 800578c:	5cd3      	ldrb	r3, [r2, r3]
  else if ((pdev->pClass->DataOut != NULL) &&
 800578e:	2b03      	cmp	r3, #3
 8005790:	d10b      	bne.n	80057aa <USBD_LL_DataOutStage+0xf6>
  {
    pdev->pClass->DataOut(pdev, epnum);
 8005792:	68fa      	ldr	r2, [r7, #12]
 8005794:	23ad      	movs	r3, #173	; 0xad
 8005796:	009b      	lsls	r3, r3, #2
 8005798:	58d3      	ldr	r3, [r2, r3]
 800579a:	699b      	ldr	r3, [r3, #24]
 800579c:	220b      	movs	r2, #11
 800579e:	18ba      	adds	r2, r7, r2
 80057a0:	7811      	ldrb	r1, [r2, #0]
 80057a2:	68fa      	ldr	r2, [r7, #12]
 80057a4:	0010      	movs	r0, r2
 80057a6:	4798      	blx	r3
 80057a8:	e001      	b.n	80057ae <USBD_LL_DataOutStage+0xfa>
  }
  else
  {
    /* should never be in this condition */
    return USBD_FAIL;
 80057aa:	2302      	movs	r3, #2
 80057ac:	e000      	b.n	80057b0 <USBD_LL_DataOutStage+0xfc>
  }

  return USBD_OK;
 80057ae:	2300      	movs	r3, #0
}
 80057b0:	0018      	movs	r0, r3
 80057b2:	46bd      	mov	sp, r7
 80057b4:	b006      	add	sp, #24
 80057b6:	bd80      	pop	{r7, pc}

080057b8 <USBD_LL_DataInStage>:
* @param  epnum: endpoint index
* @retval status
*/
USBD_StatusTypeDef USBD_LL_DataInStage(USBD_HandleTypeDef *pdev,
                                       uint8_t epnum, uint8_t *pdata)
{
 80057b8:	b580      	push	{r7, lr}
 80057ba:	b086      	sub	sp, #24
 80057bc:	af00      	add	r7, sp, #0
 80057be:	60f8      	str	r0, [r7, #12]
 80057c0:	607a      	str	r2, [r7, #4]
 80057c2:	200b      	movs	r0, #11
 80057c4:	183b      	adds	r3, r7, r0
 80057c6:	1c0a      	adds	r2, r1, #0
 80057c8:	701a      	strb	r2, [r3, #0]
  USBD_EndpointTypeDef *pep;

  if (epnum == 0U)
 80057ca:	183b      	adds	r3, r7, r0
 80057cc:	781b      	ldrb	r3, [r3, #0]
 80057ce:	2b00      	cmp	r3, #0
 80057d0:	d000      	beq.n	80057d4 <USBD_LL_DataInStage+0x1c>
 80057d2:	e08e      	b.n	80058f2 <USBD_LL_DataInStage+0x13a>
  {
    pep = &pdev->ep_in[0];
 80057d4:	68fb      	ldr	r3, [r7, #12]
 80057d6:	3314      	adds	r3, #20
 80057d8:	617b      	str	r3, [r7, #20]

    if (pdev->ep0_state == USBD_EP0_DATA_IN)
 80057da:	68fa      	ldr	r2, [r7, #12]
 80057dc:	23a5      	movs	r3, #165	; 0xa5
 80057de:	009b      	lsls	r3, r3, #2
 80057e0:	58d3      	ldr	r3, [r2, r3]
 80057e2:	2b02      	cmp	r3, #2
 80057e4:	d164      	bne.n	80058b0 <USBD_LL_DataInStage+0xf8>
    {
      if (pep->rem_length > pep->maxpacket)
 80057e6:	697b      	ldr	r3, [r7, #20]
 80057e8:	68da      	ldr	r2, [r3, #12]
 80057ea:	697b      	ldr	r3, [r7, #20]
 80057ec:	691b      	ldr	r3, [r3, #16]
 80057ee:	429a      	cmp	r2, r3
 80057f0:	d915      	bls.n	800581e <USBD_LL_DataInStage+0x66>
      {
        pep->rem_length -= pep->maxpacket;
 80057f2:	697b      	ldr	r3, [r7, #20]
 80057f4:	68da      	ldr	r2, [r3, #12]
 80057f6:	697b      	ldr	r3, [r7, #20]
 80057f8:	691b      	ldr	r3, [r3, #16]
 80057fa:	1ad2      	subs	r2, r2, r3
 80057fc:	697b      	ldr	r3, [r7, #20]
 80057fe:	60da      	str	r2, [r3, #12]

        USBD_CtlContinueSendData(pdev, pdata, (uint16_t)pep->rem_length);
 8005800:	697b      	ldr	r3, [r7, #20]
 8005802:	68db      	ldr	r3, [r3, #12]
 8005804:	b29a      	uxth	r2, r3
 8005806:	6879      	ldr	r1, [r7, #4]
 8005808:	68fb      	ldr	r3, [r7, #12]
 800580a:	0018      	movs	r0, r3
 800580c:	f000 ffec 	bl	80067e8 <USBD_CtlContinueSendData>

        /* Prepare endpoint for premature end of transfer */
        USBD_LL_PrepareReceive(pdev, 0U, NULL, 0U);
 8005810:	68f8      	ldr	r0, [r7, #12]
 8005812:	2300      	movs	r3, #0
 8005814:	2200      	movs	r2, #0
 8005816:	2100      	movs	r1, #0
 8005818:	f001 fc86 	bl	8007128 <USBD_LL_PrepareReceive>
 800581c:	e059      	b.n	80058d2 <USBD_LL_DataInStage+0x11a>
      }
      else
      {
        /* last packet is MPS multiple, so send ZLP packet */
        if ((pep->total_length % pep->maxpacket == 0U) &&
 800581e:	697b      	ldr	r3, [r7, #20]
 8005820:	689a      	ldr	r2, [r3, #8]
 8005822:	697b      	ldr	r3, [r7, #20]
 8005824:	691b      	ldr	r3, [r3, #16]
 8005826:	0019      	movs	r1, r3
 8005828:	0010      	movs	r0, r2
 800582a:	f7fa fcf3 	bl	8000214 <__aeabi_uidivmod>
 800582e:	1e0b      	subs	r3, r1, #0
 8005830:	d11f      	bne.n	8005872 <USBD_LL_DataInStage+0xba>
            (pep->total_length >= pep->maxpacket) &&
 8005832:	697b      	ldr	r3, [r7, #20]
 8005834:	689a      	ldr	r2, [r3, #8]
 8005836:	697b      	ldr	r3, [r7, #20]
 8005838:	691b      	ldr	r3, [r3, #16]
        if ((pep->total_length % pep->maxpacket == 0U) &&
 800583a:	429a      	cmp	r2, r3
 800583c:	d319      	bcc.n	8005872 <USBD_LL_DataInStage+0xba>
            (pep->total_length < pdev->ep0_data_len))
 800583e:	697b      	ldr	r3, [r7, #20]
 8005840:	689a      	ldr	r2, [r3, #8]
 8005842:	68f9      	ldr	r1, [r7, #12]
 8005844:	23a6      	movs	r3, #166	; 0xa6
 8005846:	009b      	lsls	r3, r3, #2
 8005848:	58cb      	ldr	r3, [r1, r3]
            (pep->total_length >= pep->maxpacket) &&
 800584a:	429a      	cmp	r2, r3
 800584c:	d211      	bcs.n	8005872 <USBD_LL_DataInStage+0xba>
        {
          USBD_CtlContinueSendData(pdev, NULL, 0U);
 800584e:	68fb      	ldr	r3, [r7, #12]
 8005850:	2200      	movs	r2, #0
 8005852:	2100      	movs	r1, #0
 8005854:	0018      	movs	r0, r3
 8005856:	f000 ffc7 	bl	80067e8 <USBD_CtlContinueSendData>
          pdev->ep0_data_len = 0U;
 800585a:	68fa      	ldr	r2, [r7, #12]
 800585c:	23a6      	movs	r3, #166	; 0xa6
 800585e:	009b      	lsls	r3, r3, #2
 8005860:	2100      	movs	r1, #0
 8005862:	50d1      	str	r1, [r2, r3]

          /* Prepare endpoint for premature end of transfer */
          USBD_LL_PrepareReceive(pdev, 0U, NULL, 0U);
 8005864:	68f8      	ldr	r0, [r7, #12]
 8005866:	2300      	movs	r3, #0
 8005868:	2200      	movs	r2, #0
 800586a:	2100      	movs	r1, #0
 800586c:	f001 fc5c 	bl	8007128 <USBD_LL_PrepareReceive>
 8005870:	e02f      	b.n	80058d2 <USBD_LL_DataInStage+0x11a>
        }
        else
        {
          if ((pdev->pClass->EP0_TxSent != NULL) &&
 8005872:	68fa      	ldr	r2, [r7, #12]
 8005874:	23ad      	movs	r3, #173	; 0xad
 8005876:	009b      	lsls	r3, r3, #2
 8005878:	58d3      	ldr	r3, [r2, r3]
 800587a:	68db      	ldr	r3, [r3, #12]
 800587c:	2b00      	cmp	r3, #0
 800587e:	d00d      	beq.n	800589c <USBD_LL_DataInStage+0xe4>
              (pdev->dev_state == USBD_STATE_CONFIGURED))
 8005880:	68fa      	ldr	r2, [r7, #12]
 8005882:	23a7      	movs	r3, #167	; 0xa7
 8005884:	009b      	lsls	r3, r3, #2
 8005886:	5cd3      	ldrb	r3, [r2, r3]
          if ((pdev->pClass->EP0_TxSent != NULL) &&
 8005888:	2b03      	cmp	r3, #3
 800588a:	d107      	bne.n	800589c <USBD_LL_DataInStage+0xe4>
          {
            pdev->pClass->EP0_TxSent(pdev);
 800588c:	68fa      	ldr	r2, [r7, #12]
 800588e:	23ad      	movs	r3, #173	; 0xad
 8005890:	009b      	lsls	r3, r3, #2
 8005892:	58d3      	ldr	r3, [r2, r3]
 8005894:	68db      	ldr	r3, [r3, #12]
 8005896:	68fa      	ldr	r2, [r7, #12]
 8005898:	0010      	movs	r0, r2
 800589a:	4798      	blx	r3
          }
          USBD_LL_StallEP(pdev, 0x80U);
 800589c:	68fb      	ldr	r3, [r7, #12]
 800589e:	2180      	movs	r1, #128	; 0x80
 80058a0:	0018      	movs	r0, r3
 80058a2:	f001 fb58 	bl	8006f56 <USBD_LL_StallEP>
          USBD_CtlReceiveStatus(pdev);
 80058a6:	68fb      	ldr	r3, [r7, #12]
 80058a8:	0018      	movs	r0, r3
 80058aa:	f000 fffb 	bl	80068a4 <USBD_CtlReceiveStatus>
 80058ae:	e010      	b.n	80058d2 <USBD_LL_DataInStage+0x11a>
        }
      }
    }
    else
    {
      if ((pdev->ep0_state == USBD_EP0_STATUS_IN) ||
 80058b0:	68fa      	ldr	r2, [r7, #12]
 80058b2:	23a5      	movs	r3, #165	; 0xa5
 80058b4:	009b      	lsls	r3, r3, #2
 80058b6:	58d3      	ldr	r3, [r2, r3]
 80058b8:	2b04      	cmp	r3, #4
 80058ba:	d005      	beq.n	80058c8 <USBD_LL_DataInStage+0x110>
          (pdev->ep0_state == USBD_EP0_IDLE))
 80058bc:	68fa      	ldr	r2, [r7, #12]
 80058be:	23a5      	movs	r3, #165	; 0xa5
 80058c0:	009b      	lsls	r3, r3, #2
 80058c2:	58d3      	ldr	r3, [r2, r3]
      if ((pdev->ep0_state == USBD_EP0_STATUS_IN) ||
 80058c4:	2b00      	cmp	r3, #0
 80058c6:	d104      	bne.n	80058d2 <USBD_LL_DataInStage+0x11a>
      {
        USBD_LL_StallEP(pdev, 0x80U);
 80058c8:	68fb      	ldr	r3, [r7, #12]
 80058ca:	2180      	movs	r1, #128	; 0x80
 80058cc:	0018      	movs	r0, r3
 80058ce:	f001 fb42 	bl	8006f56 <USBD_LL_StallEP>
      }
    }

    if (pdev->dev_test_mode == 1U)
 80058d2:	68fa      	ldr	r2, [r7, #12]
 80058d4:	23a8      	movs	r3, #168	; 0xa8
 80058d6:	009b      	lsls	r3, r3, #2
 80058d8:	5cd3      	ldrb	r3, [r2, r3]
 80058da:	2b01      	cmp	r3, #1
 80058dc:	d124      	bne.n	8005928 <USBD_LL_DataInStage+0x170>
    {
      USBD_RunTestMode(pdev);
 80058de:	68fb      	ldr	r3, [r7, #12]
 80058e0:	0018      	movs	r0, r3
 80058e2:	f7ff fe42 	bl	800556a <USBD_RunTestMode>
      pdev->dev_test_mode = 0U;
 80058e6:	68fa      	ldr	r2, [r7, #12]
 80058e8:	23a8      	movs	r3, #168	; 0xa8
 80058ea:	009b      	lsls	r3, r3, #2
 80058ec:	2100      	movs	r1, #0
 80058ee:	54d1      	strb	r1, [r2, r3]
 80058f0:	e01a      	b.n	8005928 <USBD_LL_DataInStage+0x170>
    }
  }
  else if ((pdev->pClass->DataIn != NULL) &&
 80058f2:	68fa      	ldr	r2, [r7, #12]
 80058f4:	23ad      	movs	r3, #173	; 0xad
 80058f6:	009b      	lsls	r3, r3, #2
 80058f8:	58d3      	ldr	r3, [r2, r3]
 80058fa:	695b      	ldr	r3, [r3, #20]
 80058fc:	2b00      	cmp	r3, #0
 80058fe:	d011      	beq.n	8005924 <USBD_LL_DataInStage+0x16c>
           (pdev->dev_state == USBD_STATE_CONFIGURED))
 8005900:	68fa      	ldr	r2, [r7, #12]
 8005902:	23a7      	movs	r3, #167	; 0xa7
 8005904:	009b      	lsls	r3, r3, #2
 8005906:	5cd3      	ldrb	r3, [r2, r3]
  else if ((pdev->pClass->DataIn != NULL) &&
 8005908:	2b03      	cmp	r3, #3
 800590a:	d10b      	bne.n	8005924 <USBD_LL_DataInStage+0x16c>
  {
    pdev->pClass->DataIn(pdev, epnum);
 800590c:	68fa      	ldr	r2, [r7, #12]
 800590e:	23ad      	movs	r3, #173	; 0xad
 8005910:	009b      	lsls	r3, r3, #2
 8005912:	58d3      	ldr	r3, [r2, r3]
 8005914:	695b      	ldr	r3, [r3, #20]
 8005916:	220b      	movs	r2, #11
 8005918:	18ba      	adds	r2, r7, r2
 800591a:	7811      	ldrb	r1, [r2, #0]
 800591c:	68fa      	ldr	r2, [r7, #12]
 800591e:	0010      	movs	r0, r2
 8005920:	4798      	blx	r3
 8005922:	e001      	b.n	8005928 <USBD_LL_DataInStage+0x170>
  }
  else
  {
    /* should never be in this condition */
    return USBD_FAIL;
 8005924:	2302      	movs	r3, #2
 8005926:	e000      	b.n	800592a <USBD_LL_DataInStage+0x172>
  }

  return USBD_OK;
 8005928:	2300      	movs	r3, #0
}
 800592a:	0018      	movs	r0, r3
 800592c:	46bd      	mov	sp, r7
 800592e:	b006      	add	sp, #24
 8005930:	bd80      	pop	{r7, pc}

08005932 <USBD_LL_Reset>:
* @param  pdev: device instance
* @retval status
*/

USBD_StatusTypeDef USBD_LL_Reset(USBD_HandleTypeDef *pdev)
{
 8005932:	b580      	push	{r7, lr}
 8005934:	b082      	sub	sp, #8
 8005936:	af00      	add	r7, sp, #0
 8005938:	6078      	str	r0, [r7, #4]
  /* Open EP0 OUT */
  USBD_LL_OpenEP(pdev, 0x00U, USBD_EP_TYPE_CTRL, USB_MAX_EP0_SIZE);
 800593a:	6878      	ldr	r0, [r7, #4]
 800593c:	2340      	movs	r3, #64	; 0x40
 800593e:	2200      	movs	r2, #0
 8005940:	2100      	movs	r1, #0
 8005942:	f001 faa6 	bl	8006e92 <USBD_LL_OpenEP>
  pdev->ep_out[0x00U & 0xFU].is_used = 1U;
 8005946:	687a      	ldr	r2, [r7, #4]
 8005948:	23ac      	movs	r3, #172	; 0xac
 800594a:	005b      	lsls	r3, r3, #1
 800594c:	2101      	movs	r1, #1
 800594e:	50d1      	str	r1, [r2, r3]

  pdev->ep_out[0].maxpacket = USB_MAX_EP0_SIZE;
 8005950:	687a      	ldr	r2, [r7, #4]
 8005952:	23b2      	movs	r3, #178	; 0xb2
 8005954:	005b      	lsls	r3, r3, #1
 8005956:	2140      	movs	r1, #64	; 0x40
 8005958:	50d1      	str	r1, [r2, r3]

  /* Open EP0 IN */
  USBD_LL_OpenEP(pdev, 0x80U, USBD_EP_TYPE_CTRL, USB_MAX_EP0_SIZE);
 800595a:	6878      	ldr	r0, [r7, #4]
 800595c:	2340      	movs	r3, #64	; 0x40
 800595e:	2200      	movs	r2, #0
 8005960:	2180      	movs	r1, #128	; 0x80
 8005962:	f001 fa96 	bl	8006e92 <USBD_LL_OpenEP>
  pdev->ep_in[0x80U & 0xFU].is_used = 1U;
 8005966:	687b      	ldr	r3, [r7, #4]
 8005968:	2201      	movs	r2, #1
 800596a:	619a      	str	r2, [r3, #24]

  pdev->ep_in[0].maxpacket = USB_MAX_EP0_SIZE;
 800596c:	687b      	ldr	r3, [r7, #4]
 800596e:	2240      	movs	r2, #64	; 0x40
 8005970:	625a      	str	r2, [r3, #36]	; 0x24

  /* Upon Reset call user call back */
  pdev->dev_state = USBD_STATE_DEFAULT;
 8005972:	687a      	ldr	r2, [r7, #4]
 8005974:	23a7      	movs	r3, #167	; 0xa7
 8005976:	009b      	lsls	r3, r3, #2
 8005978:	2101      	movs	r1, #1
 800597a:	54d1      	strb	r1, [r2, r3]
  pdev->ep0_state = USBD_EP0_IDLE;
 800597c:	687a      	ldr	r2, [r7, #4]
 800597e:	23a5      	movs	r3, #165	; 0xa5
 8005980:	009b      	lsls	r3, r3, #2
 8005982:	2100      	movs	r1, #0
 8005984:	50d1      	str	r1, [r2, r3]
  pdev->dev_config = 0U;
 8005986:	687b      	ldr	r3, [r7, #4]
 8005988:	2200      	movs	r2, #0
 800598a:	605a      	str	r2, [r3, #4]
  pdev->dev_remote_wakeup = 0U;
 800598c:	687a      	ldr	r2, [r7, #4]
 800598e:	23a9      	movs	r3, #169	; 0xa9
 8005990:	009b      	lsls	r3, r3, #2
 8005992:	2100      	movs	r1, #0
 8005994:	50d1      	str	r1, [r2, r3]

  if (pdev->pClassData)
 8005996:	687a      	ldr	r2, [r7, #4]
 8005998:	23ae      	movs	r3, #174	; 0xae
 800599a:	009b      	lsls	r3, r3, #2
 800599c:	58d3      	ldr	r3, [r2, r3]
 800599e:	2b00      	cmp	r3, #0
 80059a0:	d00a      	beq.n	80059b8 <USBD_LL_Reset+0x86>
  {
    pdev->pClass->DeInit(pdev, (uint8_t)pdev->dev_config);
 80059a2:	687a      	ldr	r2, [r7, #4]
 80059a4:	23ad      	movs	r3, #173	; 0xad
 80059a6:	009b      	lsls	r3, r3, #2
 80059a8:	58d3      	ldr	r3, [r2, r3]
 80059aa:	685a      	ldr	r2, [r3, #4]
 80059ac:	687b      	ldr	r3, [r7, #4]
 80059ae:	685b      	ldr	r3, [r3, #4]
 80059b0:	b2d9      	uxtb	r1, r3
 80059b2:	687b      	ldr	r3, [r7, #4]
 80059b4:	0018      	movs	r0, r3
 80059b6:	4790      	blx	r2
  }

  return USBD_OK;
 80059b8:	2300      	movs	r3, #0
}
 80059ba:	0018      	movs	r0, r3
 80059bc:	46bd      	mov	sp, r7
 80059be:	b002      	add	sp, #8
 80059c0:	bd80      	pop	{r7, pc}

080059c2 <USBD_LL_SetSpeed>:
* @param  pdev: device instance
* @retval status
*/
USBD_StatusTypeDef USBD_LL_SetSpeed(USBD_HandleTypeDef *pdev,
                                    USBD_SpeedTypeDef speed)
{
 80059c2:	b580      	push	{r7, lr}
 80059c4:	b082      	sub	sp, #8
 80059c6:	af00      	add	r7, sp, #0
 80059c8:	6078      	str	r0, [r7, #4]
 80059ca:	000a      	movs	r2, r1
 80059cc:	1cfb      	adds	r3, r7, #3
 80059ce:	701a      	strb	r2, [r3, #0]
  pdev->dev_speed = speed;
 80059d0:	687b      	ldr	r3, [r7, #4]
 80059d2:	1cfa      	adds	r2, r7, #3
 80059d4:	7812      	ldrb	r2, [r2, #0]
 80059d6:	741a      	strb	r2, [r3, #16]

  return USBD_OK;
 80059d8:	2300      	movs	r3, #0
}
 80059da:	0018      	movs	r0, r3
 80059dc:	46bd      	mov	sp, r7
 80059de:	b002      	add	sp, #8
 80059e0:	bd80      	pop	{r7, pc}
	...

080059e4 <USBD_LL_Suspend>:
* @param  pdev: device instance
* @retval status
*/

USBD_StatusTypeDef USBD_LL_Suspend(USBD_HandleTypeDef *pdev)
{
 80059e4:	b580      	push	{r7, lr}
 80059e6:	b082      	sub	sp, #8
 80059e8:	af00      	add	r7, sp, #0
 80059ea:	6078      	str	r0, [r7, #4]
  pdev->dev_old_state =  pdev->dev_state;
 80059ec:	687a      	ldr	r2, [r7, #4]
 80059ee:	23a7      	movs	r3, #167	; 0xa7
 80059f0:	009b      	lsls	r3, r3, #2
 80059f2:	5cd1      	ldrb	r1, [r2, r3]
 80059f4:	687b      	ldr	r3, [r7, #4]
 80059f6:	4a06      	ldr	r2, [pc, #24]	; (8005a10 <USBD_LL_Suspend+0x2c>)
 80059f8:	5499      	strb	r1, [r3, r2]
  pdev->dev_state  = USBD_STATE_SUSPENDED;
 80059fa:	687a      	ldr	r2, [r7, #4]
 80059fc:	23a7      	movs	r3, #167	; 0xa7
 80059fe:	009b      	lsls	r3, r3, #2
 8005a00:	2104      	movs	r1, #4
 8005a02:	54d1      	strb	r1, [r2, r3]

  return USBD_OK;
 8005a04:	2300      	movs	r3, #0
}
 8005a06:	0018      	movs	r0, r3
 8005a08:	46bd      	mov	sp, r7
 8005a0a:	b002      	add	sp, #8
 8005a0c:	bd80      	pop	{r7, pc}
 8005a0e:	46c0      	nop			; (mov r8, r8)
 8005a10:	0000029d 	.word	0x0000029d

08005a14 <USBD_LL_Resume>:
* @param  pdev: device instance
* @retval status
*/

USBD_StatusTypeDef USBD_LL_Resume(USBD_HandleTypeDef *pdev)
{
 8005a14:	b580      	push	{r7, lr}
 8005a16:	b082      	sub	sp, #8
 8005a18:	af00      	add	r7, sp, #0
 8005a1a:	6078      	str	r0, [r7, #4]
  if (pdev->dev_state == USBD_STATE_SUSPENDED)
 8005a1c:	687a      	ldr	r2, [r7, #4]
 8005a1e:	23a7      	movs	r3, #167	; 0xa7
 8005a20:	009b      	lsls	r3, r3, #2
 8005a22:	5cd3      	ldrb	r3, [r2, r3]
 8005a24:	2b04      	cmp	r3, #4
 8005a26:	d106      	bne.n	8005a36 <USBD_LL_Resume+0x22>
  {
    pdev->dev_state = pdev->dev_old_state;
 8005a28:	687b      	ldr	r3, [r7, #4]
 8005a2a:	4a05      	ldr	r2, [pc, #20]	; (8005a40 <USBD_LL_Resume+0x2c>)
 8005a2c:	5c99      	ldrb	r1, [r3, r2]
 8005a2e:	687a      	ldr	r2, [r7, #4]
 8005a30:	23a7      	movs	r3, #167	; 0xa7
 8005a32:	009b      	lsls	r3, r3, #2
 8005a34:	54d1      	strb	r1, [r2, r3]
  }

  return USBD_OK;
 8005a36:	2300      	movs	r3, #0
}
 8005a38:	0018      	movs	r0, r3
 8005a3a:	46bd      	mov	sp, r7
 8005a3c:	b002      	add	sp, #8
 8005a3e:	bd80      	pop	{r7, pc}
 8005a40:	0000029d 	.word	0x0000029d

08005a44 <USBD_LL_SOF>:
* @param  pdev: device instance
* @retval status
*/

USBD_StatusTypeDef USBD_LL_SOF(USBD_HandleTypeDef *pdev)
{
 8005a44:	b580      	push	{r7, lr}
 8005a46:	b082      	sub	sp, #8
 8005a48:	af00      	add	r7, sp, #0
 8005a4a:	6078      	str	r0, [r7, #4]
  if (pdev->dev_state == USBD_STATE_CONFIGURED)
 8005a4c:	687a      	ldr	r2, [r7, #4]
 8005a4e:	23a7      	movs	r3, #167	; 0xa7
 8005a50:	009b      	lsls	r3, r3, #2
 8005a52:	5cd3      	ldrb	r3, [r2, r3]
 8005a54:	2b03      	cmp	r3, #3
 8005a56:	d10e      	bne.n	8005a76 <USBD_LL_SOF+0x32>
  {
    if (pdev->pClass->SOF != NULL)
 8005a58:	687a      	ldr	r2, [r7, #4]
 8005a5a:	23ad      	movs	r3, #173	; 0xad
 8005a5c:	009b      	lsls	r3, r3, #2
 8005a5e:	58d3      	ldr	r3, [r2, r3]
 8005a60:	69db      	ldr	r3, [r3, #28]
 8005a62:	2b00      	cmp	r3, #0
 8005a64:	d007      	beq.n	8005a76 <USBD_LL_SOF+0x32>
    {
      pdev->pClass->SOF(pdev);
 8005a66:	687a      	ldr	r2, [r7, #4]
 8005a68:	23ad      	movs	r3, #173	; 0xad
 8005a6a:	009b      	lsls	r3, r3, #2
 8005a6c:	58d3      	ldr	r3, [r2, r3]
 8005a6e:	69db      	ldr	r3, [r3, #28]
 8005a70:	687a      	ldr	r2, [r7, #4]
 8005a72:	0010      	movs	r0, r2
 8005a74:	4798      	blx	r3
    }
  }

  return USBD_OK;
 8005a76:	2300      	movs	r3, #0
}
 8005a78:	0018      	movs	r0, r3
 8005a7a:	46bd      	mov	sp, r7
 8005a7c:	b002      	add	sp, #8
 8005a7e:	bd80      	pop	{r7, pc}

08005a80 <USBD_StdDevReq>:
* @param  req: usb request
* @retval status
*/
USBD_StatusTypeDef  USBD_StdDevReq(USBD_HandleTypeDef *pdev,
                                   USBD_SetupReqTypedef *req)
{
 8005a80:	b580      	push	{r7, lr}
 8005a82:	b084      	sub	sp, #16
 8005a84:	af00      	add	r7, sp, #0
 8005a86:	6078      	str	r0, [r7, #4]
 8005a88:	6039      	str	r1, [r7, #0]
  USBD_StatusTypeDef ret = USBD_OK;
 8005a8a:	230f      	movs	r3, #15
 8005a8c:	18fb      	adds	r3, r7, r3
 8005a8e:	2200      	movs	r2, #0
 8005a90:	701a      	strb	r2, [r3, #0]

  switch (req->bmRequest & USB_REQ_TYPE_MASK)
 8005a92:	683b      	ldr	r3, [r7, #0]
 8005a94:	781b      	ldrb	r3, [r3, #0]
 8005a96:	001a      	movs	r2, r3
 8005a98:	2360      	movs	r3, #96	; 0x60
 8005a9a:	4013      	ands	r3, r2
 8005a9c:	2b40      	cmp	r3, #64	; 0x40
 8005a9e:	d004      	beq.n	8005aaa <USBD_StdDevReq+0x2a>
 8005aa0:	d84f      	bhi.n	8005b42 <USBD_StdDevReq+0xc2>
 8005aa2:	2b00      	cmp	r3, #0
 8005aa4:	d00b      	beq.n	8005abe <USBD_StdDevReq+0x3e>
 8005aa6:	2b20      	cmp	r3, #32
 8005aa8:	d14b      	bne.n	8005b42 <USBD_StdDevReq+0xc2>
  {
    case USB_REQ_TYPE_CLASS:
    case USB_REQ_TYPE_VENDOR:
      pdev->pClass->Setup(pdev, req);
 8005aaa:	687a      	ldr	r2, [r7, #4]
 8005aac:	23ad      	movs	r3, #173	; 0xad
 8005aae:	009b      	lsls	r3, r3, #2
 8005ab0:	58d3      	ldr	r3, [r2, r3]
 8005ab2:	689b      	ldr	r3, [r3, #8]
 8005ab4:	6839      	ldr	r1, [r7, #0]
 8005ab6:	687a      	ldr	r2, [r7, #4]
 8005ab8:	0010      	movs	r0, r2
 8005aba:	4798      	blx	r3
      break;
 8005abc:	e048      	b.n	8005b50 <USBD_StdDevReq+0xd0>

    case USB_REQ_TYPE_STANDARD:
      switch (req->bRequest)
 8005abe:	683b      	ldr	r3, [r7, #0]
 8005ac0:	785b      	ldrb	r3, [r3, #1]
 8005ac2:	2b09      	cmp	r3, #9
 8005ac4:	d835      	bhi.n	8005b32 <USBD_StdDevReq+0xb2>
 8005ac6:	009a      	lsls	r2, r3, #2
 8005ac8:	4b25      	ldr	r3, [pc, #148]	; (8005b60 <USBD_StdDevReq+0xe0>)
 8005aca:	18d3      	adds	r3, r2, r3
 8005acc:	681b      	ldr	r3, [r3, #0]
 8005ace:	469f      	mov	pc, r3
      {
        case USB_REQ_GET_DESCRIPTOR:
          USBD_GetDescriptor(pdev, req);
 8005ad0:	683a      	ldr	r2, [r7, #0]
 8005ad2:	687b      	ldr	r3, [r7, #4]
 8005ad4:	0011      	movs	r1, r2
 8005ad6:	0018      	movs	r0, r3
 8005ad8:	f000 fa52 	bl	8005f80 <USBD_GetDescriptor>
          break;
 8005adc:	e030      	b.n	8005b40 <USBD_StdDevReq+0xc0>

        case USB_REQ_SET_ADDRESS:
          USBD_SetAddress(pdev, req);
 8005ade:	683a      	ldr	r2, [r7, #0]
 8005ae0:	687b      	ldr	r3, [r7, #4]
 8005ae2:	0011      	movs	r1, r2
 8005ae4:	0018      	movs	r0, r3
 8005ae6:	f000 fbfd 	bl	80062e4 <USBD_SetAddress>
          break;
 8005aea:	e029      	b.n	8005b40 <USBD_StdDevReq+0xc0>

        case USB_REQ_SET_CONFIGURATION:
          USBD_SetConfig(pdev, req);
 8005aec:	683a      	ldr	r2, [r7, #0]
 8005aee:	687b      	ldr	r3, [r7, #4]
 8005af0:	0011      	movs	r1, r2
 8005af2:	0018      	movs	r0, r3
 8005af4:	f000 fc4a 	bl	800638c <USBD_SetConfig>
          break;
 8005af8:	e022      	b.n	8005b40 <USBD_StdDevReq+0xc0>

        case USB_REQ_GET_CONFIGURATION:
          USBD_GetConfig(pdev, req);
 8005afa:	683a      	ldr	r2, [r7, #0]
 8005afc:	687b      	ldr	r3, [r7, #4]
 8005afe:	0011      	movs	r1, r2
 8005b00:	0018      	movs	r0, r3
 8005b02:	f000 fce7 	bl	80064d4 <USBD_GetConfig>
          break;
 8005b06:	e01b      	b.n	8005b40 <USBD_StdDevReq+0xc0>

        case USB_REQ_GET_STATUS:
          USBD_GetStatus(pdev, req);
 8005b08:	683a      	ldr	r2, [r7, #0]
 8005b0a:	687b      	ldr	r3, [r7, #4]
 8005b0c:	0011      	movs	r1, r2
 8005b0e:	0018      	movs	r0, r3
 8005b10:	f000 fd1b 	bl	800654a <USBD_GetStatus>
          break;
 8005b14:	e014      	b.n	8005b40 <USBD_StdDevReq+0xc0>

        case USB_REQ_SET_FEATURE:
          USBD_SetFeature(pdev, req);
 8005b16:	683a      	ldr	r2, [r7, #0]
 8005b18:	687b      	ldr	r3, [r7, #4]
 8005b1a:	0011      	movs	r1, r2
 8005b1c:	0018      	movs	r0, r3
 8005b1e:	f000 fd4e 	bl	80065be <USBD_SetFeature>
          break;
 8005b22:	e00d      	b.n	8005b40 <USBD_StdDevReq+0xc0>

        case USB_REQ_CLEAR_FEATURE:
          USBD_ClrFeature(pdev, req);
 8005b24:	683a      	ldr	r2, [r7, #0]
 8005b26:	687b      	ldr	r3, [r7, #4]
 8005b28:	0011      	movs	r1, r2
 8005b2a:	0018      	movs	r0, r3
 8005b2c:	f000 fd5d 	bl	80065ea <USBD_ClrFeature>
          break;
 8005b30:	e006      	b.n	8005b40 <USBD_StdDevReq+0xc0>

        default:
          USBD_CtlError(pdev, req);
 8005b32:	683a      	ldr	r2, [r7, #0]
 8005b34:	687b      	ldr	r3, [r7, #4]
 8005b36:	0011      	movs	r1, r2
 8005b38:	0018      	movs	r0, r3
 8005b3a:	f000 fdb7 	bl	80066ac <USBD_CtlError>
          break;
 8005b3e:	46c0      	nop			; (mov r8, r8)
      }
      break;
 8005b40:	e006      	b.n	8005b50 <USBD_StdDevReq+0xd0>

    default:
      USBD_CtlError(pdev, req);
 8005b42:	683a      	ldr	r2, [r7, #0]
 8005b44:	687b      	ldr	r3, [r7, #4]
 8005b46:	0011      	movs	r1, r2
 8005b48:	0018      	movs	r0, r3
 8005b4a:	f000 fdaf 	bl	80066ac <USBD_CtlError>
      break;
 8005b4e:	46c0      	nop			; (mov r8, r8)
  }

  return ret;
 8005b50:	230f      	movs	r3, #15
 8005b52:	18fb      	adds	r3, r7, r3
 8005b54:	781b      	ldrb	r3, [r3, #0]
}
 8005b56:	0018      	movs	r0, r3
 8005b58:	46bd      	mov	sp, r7
 8005b5a:	b004      	add	sp, #16
 8005b5c:	bd80      	pop	{r7, pc}
 8005b5e:	46c0      	nop			; (mov r8, r8)
 8005b60:	0800736c 	.word	0x0800736c

08005b64 <USBD_StdItfReq>:
* @param  req: usb request
* @retval status
*/
USBD_StatusTypeDef  USBD_StdItfReq(USBD_HandleTypeDef *pdev,
                                   USBD_SetupReqTypedef  *req)
{
 8005b64:	b5b0      	push	{r4, r5, r7, lr}
 8005b66:	b084      	sub	sp, #16
 8005b68:	af00      	add	r7, sp, #0
 8005b6a:	6078      	str	r0, [r7, #4]
 8005b6c:	6039      	str	r1, [r7, #0]
  USBD_StatusTypeDef ret = USBD_OK;
 8005b6e:	230f      	movs	r3, #15
 8005b70:	18fb      	adds	r3, r7, r3
 8005b72:	2200      	movs	r2, #0
 8005b74:	701a      	strb	r2, [r3, #0]

  switch (req->bmRequest & USB_REQ_TYPE_MASK)
 8005b76:	683b      	ldr	r3, [r7, #0]
 8005b78:	781b      	ldrb	r3, [r3, #0]
 8005b7a:	001a      	movs	r2, r3
 8005b7c:	2360      	movs	r3, #96	; 0x60
 8005b7e:	4013      	ands	r3, r2
 8005b80:	2b40      	cmp	r3, #64	; 0x40
 8005b82:	d004      	beq.n	8005b8e <USBD_StdItfReq+0x2a>
 8005b84:	d839      	bhi.n	8005bfa <USBD_StdItfReq+0x96>
 8005b86:	2b00      	cmp	r3, #0
 8005b88:	d001      	beq.n	8005b8e <USBD_StdItfReq+0x2a>
 8005b8a:	2b20      	cmp	r3, #32
 8005b8c:	d135      	bne.n	8005bfa <USBD_StdItfReq+0x96>
  {
    case USB_REQ_TYPE_CLASS:
    case USB_REQ_TYPE_VENDOR:
    case USB_REQ_TYPE_STANDARD:
      switch (pdev->dev_state)
 8005b8e:	687a      	ldr	r2, [r7, #4]
 8005b90:	23a7      	movs	r3, #167	; 0xa7
 8005b92:	009b      	lsls	r3, r3, #2
 8005b94:	5cd3      	ldrb	r3, [r2, r3]
 8005b96:	3b01      	subs	r3, #1
 8005b98:	2b02      	cmp	r3, #2
 8005b9a:	d825      	bhi.n	8005be8 <USBD_StdItfReq+0x84>
      {
        case USBD_STATE_DEFAULT:
        case USBD_STATE_ADDRESSED:
        case USBD_STATE_CONFIGURED:

          if (LOBYTE(req->wIndex) <= USBD_MAX_NUM_INTERFACES)
 8005b9c:	683b      	ldr	r3, [r7, #0]
 8005b9e:	889b      	ldrh	r3, [r3, #4]
 8005ba0:	b2db      	uxtb	r3, r3
 8005ba2:	2b01      	cmp	r3, #1
 8005ba4:	d819      	bhi.n	8005bda <USBD_StdItfReq+0x76>
          {
            ret = (USBD_StatusTypeDef)pdev->pClass->Setup(pdev, req);
 8005ba6:	687a      	ldr	r2, [r7, #4]
 8005ba8:	23ad      	movs	r3, #173	; 0xad
 8005baa:	009b      	lsls	r3, r3, #2
 8005bac:	58d3      	ldr	r3, [r2, r3]
 8005bae:	689b      	ldr	r3, [r3, #8]
 8005bb0:	250f      	movs	r5, #15
 8005bb2:	197c      	adds	r4, r7, r5
 8005bb4:	6839      	ldr	r1, [r7, #0]
 8005bb6:	687a      	ldr	r2, [r7, #4]
 8005bb8:	0010      	movs	r0, r2
 8005bba:	4798      	blx	r3
 8005bbc:	0003      	movs	r3, r0
 8005bbe:	7023      	strb	r3, [r4, #0]

            if ((req->wLength == 0U) && (ret == USBD_OK))
 8005bc0:	683b      	ldr	r3, [r7, #0]
 8005bc2:	88db      	ldrh	r3, [r3, #6]
 8005bc4:	2b00      	cmp	r3, #0
 8005bc6:	d116      	bne.n	8005bf6 <USBD_StdItfReq+0x92>
 8005bc8:	197b      	adds	r3, r7, r5
 8005bca:	781b      	ldrb	r3, [r3, #0]
 8005bcc:	2b00      	cmp	r3, #0
 8005bce:	d112      	bne.n	8005bf6 <USBD_StdItfReq+0x92>
            {
              USBD_CtlSendStatus(pdev);
 8005bd0:	687b      	ldr	r3, [r7, #4]
 8005bd2:	0018      	movs	r0, r3
 8005bd4:	f000 fe52 	bl	800687c <USBD_CtlSendStatus>
          }
          else
          {
            USBD_CtlError(pdev, req);
          }
          break;
 8005bd8:	e00d      	b.n	8005bf6 <USBD_StdItfReq+0x92>
            USBD_CtlError(pdev, req);
 8005bda:	683a      	ldr	r2, [r7, #0]
 8005bdc:	687b      	ldr	r3, [r7, #4]
 8005bde:	0011      	movs	r1, r2
 8005be0:	0018      	movs	r0, r3
 8005be2:	f000 fd63 	bl	80066ac <USBD_CtlError>
          break;
 8005be6:	e006      	b.n	8005bf6 <USBD_StdItfReq+0x92>

        default:
          USBD_CtlError(pdev, req);
 8005be8:	683a      	ldr	r2, [r7, #0]
 8005bea:	687b      	ldr	r3, [r7, #4]
 8005bec:	0011      	movs	r1, r2
 8005bee:	0018      	movs	r0, r3
 8005bf0:	f000 fd5c 	bl	80066ac <USBD_CtlError>
          break;
 8005bf4:	e000      	b.n	8005bf8 <USBD_StdItfReq+0x94>
          break;
 8005bf6:	46c0      	nop			; (mov r8, r8)
      }
      break;
 8005bf8:	e006      	b.n	8005c08 <USBD_StdItfReq+0xa4>

    default:
      USBD_CtlError(pdev, req);
 8005bfa:	683a      	ldr	r2, [r7, #0]
 8005bfc:	687b      	ldr	r3, [r7, #4]
 8005bfe:	0011      	movs	r1, r2
 8005c00:	0018      	movs	r0, r3
 8005c02:	f000 fd53 	bl	80066ac <USBD_CtlError>
      break;
 8005c06:	46c0      	nop			; (mov r8, r8)
  }

  return USBD_OK;
 8005c08:	2300      	movs	r3, #0
}
 8005c0a:	0018      	movs	r0, r3
 8005c0c:	46bd      	mov	sp, r7
 8005c0e:	b004      	add	sp, #16
 8005c10:	bdb0      	pop	{r4, r5, r7, pc}

08005c12 <USBD_StdEPReq>:
* @param  req: usb request
* @retval status
*/
USBD_StatusTypeDef  USBD_StdEPReq(USBD_HandleTypeDef *pdev,
                                  USBD_SetupReqTypedef  *req)
{
 8005c12:	b5b0      	push	{r4, r5, r7, lr}
 8005c14:	b084      	sub	sp, #16
 8005c16:	af00      	add	r7, sp, #0
 8005c18:	6078      	str	r0, [r7, #4]
 8005c1a:	6039      	str	r1, [r7, #0]
  USBD_EndpointTypeDef *pep;
  uint8_t   ep_addr;
  USBD_StatusTypeDef ret = USBD_OK;
 8005c1c:	230f      	movs	r3, #15
 8005c1e:	18fb      	adds	r3, r7, r3
 8005c20:	2200      	movs	r2, #0
 8005c22:	701a      	strb	r2, [r3, #0]
  ep_addr  = LOBYTE(req->wIndex);
 8005c24:	683b      	ldr	r3, [r7, #0]
 8005c26:	889a      	ldrh	r2, [r3, #4]
 8005c28:	230e      	movs	r3, #14
 8005c2a:	18fb      	adds	r3, r7, r3
 8005c2c:	701a      	strb	r2, [r3, #0]

  switch (req->bmRequest & USB_REQ_TYPE_MASK)
 8005c2e:	683b      	ldr	r3, [r7, #0]
 8005c30:	781b      	ldrb	r3, [r3, #0]
 8005c32:	001a      	movs	r2, r3
 8005c34:	2360      	movs	r3, #96	; 0x60
 8005c36:	4013      	ands	r3, r2
 8005c38:	2b40      	cmp	r3, #64	; 0x40
 8005c3a:	d006      	beq.n	8005c4a <USBD_StdEPReq+0x38>
 8005c3c:	d900      	bls.n	8005c40 <USBD_StdEPReq+0x2e>
 8005c3e:	e190      	b.n	8005f62 <USBD_StdEPReq+0x350>
 8005c40:	2b00      	cmp	r3, #0
 8005c42:	d00c      	beq.n	8005c5e <USBD_StdEPReq+0x4c>
 8005c44:	2b20      	cmp	r3, #32
 8005c46:	d000      	beq.n	8005c4a <USBD_StdEPReq+0x38>
 8005c48:	e18b      	b.n	8005f62 <USBD_StdEPReq+0x350>
  {
    case USB_REQ_TYPE_CLASS:
    case USB_REQ_TYPE_VENDOR:
      pdev->pClass->Setup(pdev, req);
 8005c4a:	687a      	ldr	r2, [r7, #4]
 8005c4c:	23ad      	movs	r3, #173	; 0xad
 8005c4e:	009b      	lsls	r3, r3, #2
 8005c50:	58d3      	ldr	r3, [r2, r3]
 8005c52:	689b      	ldr	r3, [r3, #8]
 8005c54:	6839      	ldr	r1, [r7, #0]
 8005c56:	687a      	ldr	r2, [r7, #4]
 8005c58:	0010      	movs	r0, r2
 8005c5a:	4798      	blx	r3
      break;
 8005c5c:	e188      	b.n	8005f70 <USBD_StdEPReq+0x35e>

    case USB_REQ_TYPE_STANDARD:
      /* Check if it is a class request */
      if ((req->bmRequest & 0x60U) == 0x20U)
 8005c5e:	683b      	ldr	r3, [r7, #0]
 8005c60:	781b      	ldrb	r3, [r3, #0]
 8005c62:	001a      	movs	r2, r3
 8005c64:	2360      	movs	r3, #96	; 0x60
 8005c66:	4013      	ands	r3, r2
 8005c68:	2b20      	cmp	r3, #32
 8005c6a:	d10f      	bne.n	8005c8c <USBD_StdEPReq+0x7a>
      {
        ret = (USBD_StatusTypeDef)pdev->pClass->Setup(pdev, req);
 8005c6c:	687a      	ldr	r2, [r7, #4]
 8005c6e:	23ad      	movs	r3, #173	; 0xad
 8005c70:	009b      	lsls	r3, r3, #2
 8005c72:	58d3      	ldr	r3, [r2, r3]
 8005c74:	689b      	ldr	r3, [r3, #8]
 8005c76:	250f      	movs	r5, #15
 8005c78:	197c      	adds	r4, r7, r5
 8005c7a:	6839      	ldr	r1, [r7, #0]
 8005c7c:	687a      	ldr	r2, [r7, #4]
 8005c7e:	0010      	movs	r0, r2
 8005c80:	4798      	blx	r3
 8005c82:	0003      	movs	r3, r0
 8005c84:	7023      	strb	r3, [r4, #0]

        return ret;
 8005c86:	197b      	adds	r3, r7, r5
 8005c88:	781b      	ldrb	r3, [r3, #0]
 8005c8a:	e174      	b.n	8005f76 <USBD_StdEPReq+0x364>
      }

      switch (req->bRequest)
 8005c8c:	683b      	ldr	r3, [r7, #0]
 8005c8e:	785b      	ldrb	r3, [r3, #1]
 8005c90:	2b03      	cmp	r3, #3
 8005c92:	d007      	beq.n	8005ca4 <USBD_StdEPReq+0x92>
 8005c94:	dd00      	ble.n	8005c98 <USBD_StdEPReq+0x86>
 8005c96:	e15c      	b.n	8005f52 <USBD_StdEPReq+0x340>
 8005c98:	2b00      	cmp	r3, #0
 8005c9a:	d100      	bne.n	8005c9e <USBD_StdEPReq+0x8c>
 8005c9c:	e092      	b.n	8005dc4 <USBD_StdEPReq+0x1b2>
 8005c9e:	2b01      	cmp	r3, #1
 8005ca0:	d04b      	beq.n	8005d3a <USBD_StdEPReq+0x128>
 8005ca2:	e156      	b.n	8005f52 <USBD_StdEPReq+0x340>
      {
        case USB_REQ_SET_FEATURE:
          switch (pdev->dev_state)
 8005ca4:	687a      	ldr	r2, [r7, #4]
 8005ca6:	23a7      	movs	r3, #167	; 0xa7
 8005ca8:	009b      	lsls	r3, r3, #2
 8005caa:	5cd3      	ldrb	r3, [r2, r3]
 8005cac:	2b02      	cmp	r3, #2
 8005cae:	d002      	beq.n	8005cb6 <USBD_StdEPReq+0xa4>
 8005cb0:	2b03      	cmp	r3, #3
 8005cb2:	d01d      	beq.n	8005cf0 <USBD_StdEPReq+0xde>
 8005cb4:	e039      	b.n	8005d2a <USBD_StdEPReq+0x118>
          {
            case USBD_STATE_ADDRESSED:
              if ((ep_addr != 0x00U) && (ep_addr != 0x80U))
 8005cb6:	220e      	movs	r2, #14
 8005cb8:	18bb      	adds	r3, r7, r2
 8005cba:	781b      	ldrb	r3, [r3, #0]
 8005cbc:	2b00      	cmp	r3, #0
 8005cbe:	d010      	beq.n	8005ce2 <USBD_StdEPReq+0xd0>
 8005cc0:	18bb      	adds	r3, r7, r2
 8005cc2:	781b      	ldrb	r3, [r3, #0]
 8005cc4:	2b80      	cmp	r3, #128	; 0x80
 8005cc6:	d00c      	beq.n	8005ce2 <USBD_StdEPReq+0xd0>
              {
                USBD_LL_StallEP(pdev, ep_addr);
 8005cc8:	18bb      	adds	r3, r7, r2
 8005cca:	781a      	ldrb	r2, [r3, #0]
 8005ccc:	687b      	ldr	r3, [r7, #4]
 8005cce:	0011      	movs	r1, r2
 8005cd0:	0018      	movs	r0, r3
 8005cd2:	f001 f940 	bl	8006f56 <USBD_LL_StallEP>
                USBD_LL_StallEP(pdev, 0x80U);
 8005cd6:	687b      	ldr	r3, [r7, #4]
 8005cd8:	2180      	movs	r1, #128	; 0x80
 8005cda:	0018      	movs	r0, r3
 8005cdc:	f001 f93b 	bl	8006f56 <USBD_LL_StallEP>
              }
              else
              {
                USBD_CtlError(pdev, req);
              }
              break;
 8005ce0:	e02a      	b.n	8005d38 <USBD_StdEPReq+0x126>
                USBD_CtlError(pdev, req);
 8005ce2:	683a      	ldr	r2, [r7, #0]
 8005ce4:	687b      	ldr	r3, [r7, #4]
 8005ce6:	0011      	movs	r1, r2
 8005ce8:	0018      	movs	r0, r3
 8005cea:	f000 fcdf 	bl	80066ac <USBD_CtlError>
              break;
 8005cee:	e023      	b.n	8005d38 <USBD_StdEPReq+0x126>

            case USBD_STATE_CONFIGURED:
              if (req->wValue == USB_FEATURE_EP_HALT)
 8005cf0:	683b      	ldr	r3, [r7, #0]
 8005cf2:	885b      	ldrh	r3, [r3, #2]
 8005cf4:	2b00      	cmp	r3, #0
 8005cf6:	d113      	bne.n	8005d20 <USBD_StdEPReq+0x10e>
              {
                if ((ep_addr != 0x00U) &&
 8005cf8:	220e      	movs	r2, #14
 8005cfa:	18bb      	adds	r3, r7, r2
 8005cfc:	781b      	ldrb	r3, [r3, #0]
 8005cfe:	2b00      	cmp	r3, #0
 8005d00:	d00e      	beq.n	8005d20 <USBD_StdEPReq+0x10e>
 8005d02:	18bb      	adds	r3, r7, r2
 8005d04:	781b      	ldrb	r3, [r3, #0]
 8005d06:	2b80      	cmp	r3, #128	; 0x80
 8005d08:	d00a      	beq.n	8005d20 <USBD_StdEPReq+0x10e>
                    (ep_addr != 0x80U) && (req->wLength == 0x00U))
 8005d0a:	683b      	ldr	r3, [r7, #0]
 8005d0c:	88db      	ldrh	r3, [r3, #6]
 8005d0e:	2b00      	cmp	r3, #0
 8005d10:	d106      	bne.n	8005d20 <USBD_StdEPReq+0x10e>
                {
                  USBD_LL_StallEP(pdev, ep_addr);
 8005d12:	18bb      	adds	r3, r7, r2
 8005d14:	781a      	ldrb	r2, [r3, #0]
 8005d16:	687b      	ldr	r3, [r7, #4]
 8005d18:	0011      	movs	r1, r2
 8005d1a:	0018      	movs	r0, r3
 8005d1c:	f001 f91b 	bl	8006f56 <USBD_LL_StallEP>
                }
              }
              USBD_CtlSendStatus(pdev);
 8005d20:	687b      	ldr	r3, [r7, #4]
 8005d22:	0018      	movs	r0, r3
 8005d24:	f000 fdaa 	bl	800687c <USBD_CtlSendStatus>

              break;
 8005d28:	e006      	b.n	8005d38 <USBD_StdEPReq+0x126>

            default:
              USBD_CtlError(pdev, req);
 8005d2a:	683a      	ldr	r2, [r7, #0]
 8005d2c:	687b      	ldr	r3, [r7, #4]
 8005d2e:	0011      	movs	r1, r2
 8005d30:	0018      	movs	r0, r3
 8005d32:	f000 fcbb 	bl	80066ac <USBD_CtlError>
              break;
 8005d36:	46c0      	nop			; (mov r8, r8)
          }
          break;
 8005d38:	e112      	b.n	8005f60 <USBD_StdEPReq+0x34e>

        case USB_REQ_CLEAR_FEATURE:

          switch (pdev->dev_state)
 8005d3a:	687a      	ldr	r2, [r7, #4]
 8005d3c:	23a7      	movs	r3, #167	; 0xa7
 8005d3e:	009b      	lsls	r3, r3, #2
 8005d40:	5cd3      	ldrb	r3, [r2, r3]
 8005d42:	2b02      	cmp	r3, #2
 8005d44:	d002      	beq.n	8005d4c <USBD_StdEPReq+0x13a>
 8005d46:	2b03      	cmp	r3, #3
 8005d48:	d01d      	beq.n	8005d86 <USBD_StdEPReq+0x174>
 8005d4a:	e032      	b.n	8005db2 <USBD_StdEPReq+0x1a0>
          {
            case USBD_STATE_ADDRESSED:
              if ((ep_addr != 0x00U) && (ep_addr != 0x80U))
 8005d4c:	220e      	movs	r2, #14
 8005d4e:	18bb      	adds	r3, r7, r2
 8005d50:	781b      	ldrb	r3, [r3, #0]
 8005d52:	2b00      	cmp	r3, #0
 8005d54:	d010      	beq.n	8005d78 <USBD_StdEPReq+0x166>
 8005d56:	18bb      	adds	r3, r7, r2
 8005d58:	781b      	ldrb	r3, [r3, #0]
 8005d5a:	2b80      	cmp	r3, #128	; 0x80
 8005d5c:	d00c      	beq.n	8005d78 <USBD_StdEPReq+0x166>
              {
                USBD_LL_StallEP(pdev, ep_addr);
 8005d5e:	18bb      	adds	r3, r7, r2
 8005d60:	781a      	ldrb	r2, [r3, #0]
 8005d62:	687b      	ldr	r3, [r7, #4]
 8005d64:	0011      	movs	r1, r2
 8005d66:	0018      	movs	r0, r3
 8005d68:	f001 f8f5 	bl	8006f56 <USBD_LL_StallEP>
                USBD_LL_StallEP(pdev, 0x80U);
 8005d6c:	687b      	ldr	r3, [r7, #4]
 8005d6e:	2180      	movs	r1, #128	; 0x80
 8005d70:	0018      	movs	r0, r3
 8005d72:	f001 f8f0 	bl	8006f56 <USBD_LL_StallEP>
              }
              else
              {
                USBD_CtlError(pdev, req);
              }
              break;
 8005d76:	e024      	b.n	8005dc2 <USBD_StdEPReq+0x1b0>
                USBD_CtlError(pdev, req);
 8005d78:	683a      	ldr	r2, [r7, #0]
 8005d7a:	687b      	ldr	r3, [r7, #4]
 8005d7c:	0011      	movs	r1, r2
 8005d7e:	0018      	movs	r0, r3
 8005d80:	f000 fc94 	bl	80066ac <USBD_CtlError>
              break;
 8005d84:	e01d      	b.n	8005dc2 <USBD_StdEPReq+0x1b0>

            case USBD_STATE_CONFIGURED:
              if (req->wValue == USB_FEATURE_EP_HALT)
 8005d86:	683b      	ldr	r3, [r7, #0]
 8005d88:	885b      	ldrh	r3, [r3, #2]
 8005d8a:	2b00      	cmp	r3, #0
 8005d8c:	d118      	bne.n	8005dc0 <USBD_StdEPReq+0x1ae>
              {
                if ((ep_addr & 0x7FU) != 0x00U)
 8005d8e:	210e      	movs	r1, #14
 8005d90:	187b      	adds	r3, r7, r1
 8005d92:	781b      	ldrb	r3, [r3, #0]
 8005d94:	227f      	movs	r2, #127	; 0x7f
 8005d96:	4013      	ands	r3, r2
 8005d98:	d006      	beq.n	8005da8 <USBD_StdEPReq+0x196>
                {
                  USBD_LL_ClearStallEP(pdev, ep_addr);
 8005d9a:	187b      	adds	r3, r7, r1
 8005d9c:	781a      	ldrb	r2, [r3, #0]
 8005d9e:	687b      	ldr	r3, [r7, #4]
 8005da0:	0011      	movs	r1, r2
 8005da2:	0018      	movs	r0, r3
 8005da4:	f001 f902 	bl	8006fac <USBD_LL_ClearStallEP>
                }
                USBD_CtlSendStatus(pdev);
 8005da8:	687b      	ldr	r3, [r7, #4]
 8005daa:	0018      	movs	r0, r3
 8005dac:	f000 fd66 	bl	800687c <USBD_CtlSendStatus>
              }
              break;
 8005db0:	e006      	b.n	8005dc0 <USBD_StdEPReq+0x1ae>

            default:
              USBD_CtlError(pdev, req);
 8005db2:	683a      	ldr	r2, [r7, #0]
 8005db4:	687b      	ldr	r3, [r7, #4]
 8005db6:	0011      	movs	r1, r2
 8005db8:	0018      	movs	r0, r3
 8005dba:	f000 fc77 	bl	80066ac <USBD_CtlError>
              break;
 8005dbe:	e000      	b.n	8005dc2 <USBD_StdEPReq+0x1b0>
              break;
 8005dc0:	46c0      	nop			; (mov r8, r8)
          }
          break;
 8005dc2:	e0cd      	b.n	8005f60 <USBD_StdEPReq+0x34e>

        case USB_REQ_GET_STATUS:
          switch (pdev->dev_state)
 8005dc4:	687a      	ldr	r2, [r7, #4]
 8005dc6:	23a7      	movs	r3, #167	; 0xa7
 8005dc8:	009b      	lsls	r3, r3, #2
 8005dca:	5cd3      	ldrb	r3, [r2, r3]
 8005dcc:	2b02      	cmp	r3, #2
 8005dce:	d002      	beq.n	8005dd6 <USBD_StdEPReq+0x1c4>
 8005dd0:	2b03      	cmp	r3, #3
 8005dd2:	d03c      	beq.n	8005e4e <USBD_StdEPReq+0x23c>
 8005dd4:	e0b5      	b.n	8005f42 <USBD_StdEPReq+0x330>
          {
            case USBD_STATE_ADDRESSED:
              if ((ep_addr != 0x00U) && (ep_addr != 0x80U))
 8005dd6:	220e      	movs	r2, #14
 8005dd8:	18bb      	adds	r3, r7, r2
 8005dda:	781b      	ldrb	r3, [r3, #0]
 8005ddc:	2b00      	cmp	r3, #0
 8005dde:	d00a      	beq.n	8005df6 <USBD_StdEPReq+0x1e4>
 8005de0:	18bb      	adds	r3, r7, r2
 8005de2:	781b      	ldrb	r3, [r3, #0]
 8005de4:	2b80      	cmp	r3, #128	; 0x80
 8005de6:	d006      	beq.n	8005df6 <USBD_StdEPReq+0x1e4>
              {
                USBD_CtlError(pdev, req);
 8005de8:	683a      	ldr	r2, [r7, #0]
 8005dea:	687b      	ldr	r3, [r7, #4]
 8005dec:	0011      	movs	r1, r2
 8005dee:	0018      	movs	r0, r3
 8005df0:	f000 fc5c 	bl	80066ac <USBD_CtlError>
                break;
 8005df4:	e0ac      	b.n	8005f50 <USBD_StdEPReq+0x33e>
              }
              pep = ((ep_addr & 0x80U) == 0x80U) ? &pdev->ep_in[ep_addr & 0x7FU] : \
 8005df6:	220e      	movs	r2, #14
 8005df8:	18bb      	adds	r3, r7, r2
 8005dfa:	781b      	ldrb	r3, [r3, #0]
 8005dfc:	b25b      	sxtb	r3, r3
 8005dfe:	2b00      	cmp	r3, #0
 8005e00:	da0c      	bge.n	8005e1c <USBD_StdEPReq+0x20a>
 8005e02:	18bb      	adds	r3, r7, r2
 8005e04:	781b      	ldrb	r3, [r3, #0]
 8005e06:	227f      	movs	r2, #127	; 0x7f
 8005e08:	401a      	ands	r2, r3
 8005e0a:	0013      	movs	r3, r2
 8005e0c:	009b      	lsls	r3, r3, #2
 8005e0e:	189b      	adds	r3, r3, r2
 8005e10:	009b      	lsls	r3, r3, #2
 8005e12:	3310      	adds	r3, #16
 8005e14:	687a      	ldr	r2, [r7, #4]
 8005e16:	18d3      	adds	r3, r2, r3
 8005e18:	3304      	adds	r3, #4
 8005e1a:	e00d      	b.n	8005e38 <USBD_StdEPReq+0x226>
                    &pdev->ep_out[ep_addr & 0x7FU];
 8005e1c:	230e      	movs	r3, #14
 8005e1e:	18fb      	adds	r3, r7, r3
 8005e20:	781b      	ldrb	r3, [r3, #0]
 8005e22:	227f      	movs	r2, #127	; 0x7f
 8005e24:	401a      	ands	r2, r3
              pep = ((ep_addr & 0x80U) == 0x80U) ? &pdev->ep_in[ep_addr & 0x7FU] : \
 8005e26:	0013      	movs	r3, r2
 8005e28:	009b      	lsls	r3, r3, #2
 8005e2a:	189b      	adds	r3, r3, r2
 8005e2c:	009b      	lsls	r3, r3, #2
 8005e2e:	3351      	adds	r3, #81	; 0x51
 8005e30:	33ff      	adds	r3, #255	; 0xff
 8005e32:	687a      	ldr	r2, [r7, #4]
 8005e34:	18d3      	adds	r3, r2, r3
 8005e36:	3304      	adds	r3, #4
 8005e38:	60bb      	str	r3, [r7, #8]

              pep->status = 0x0000U;
 8005e3a:	68bb      	ldr	r3, [r7, #8]
 8005e3c:	2200      	movs	r2, #0
 8005e3e:	601a      	str	r2, [r3, #0]

              USBD_CtlSendData(pdev, (uint8_t *)(void *)&pep->status, 2U);
 8005e40:	68b9      	ldr	r1, [r7, #8]
 8005e42:	687b      	ldr	r3, [r7, #4]
 8005e44:	2202      	movs	r2, #2
 8005e46:	0018      	movs	r0, r3
 8005e48:	f000 fcae 	bl	80067a8 <USBD_CtlSendData>
              break;
 8005e4c:	e080      	b.n	8005f50 <USBD_StdEPReq+0x33e>

            case USBD_STATE_CONFIGURED:
              if ((ep_addr & 0x80U) == 0x80U)
 8005e4e:	220e      	movs	r2, #14
 8005e50:	18bb      	adds	r3, r7, r2
 8005e52:	781b      	ldrb	r3, [r3, #0]
 8005e54:	b25b      	sxtb	r3, r3
 8005e56:	2b00      	cmp	r3, #0
 8005e58:	da14      	bge.n	8005e84 <USBD_StdEPReq+0x272>
              {
                if (pdev->ep_in[ep_addr & 0xFU].is_used == 0U)
 8005e5a:	18bb      	adds	r3, r7, r2
 8005e5c:	781b      	ldrb	r3, [r3, #0]
 8005e5e:	220f      	movs	r2, #15
 8005e60:	401a      	ands	r2, r3
 8005e62:	6879      	ldr	r1, [r7, #4]
 8005e64:	0013      	movs	r3, r2
 8005e66:	009b      	lsls	r3, r3, #2
 8005e68:	189b      	adds	r3, r3, r2
 8005e6a:	009b      	lsls	r3, r3, #2
 8005e6c:	18cb      	adds	r3, r1, r3
 8005e6e:	3318      	adds	r3, #24
 8005e70:	681b      	ldr	r3, [r3, #0]
 8005e72:	2b00      	cmp	r3, #0
 8005e74:	d11e      	bne.n	8005eb4 <USBD_StdEPReq+0x2a2>
                {
                  USBD_CtlError(pdev, req);
 8005e76:	683a      	ldr	r2, [r7, #0]
 8005e78:	687b      	ldr	r3, [r7, #4]
 8005e7a:	0011      	movs	r1, r2
 8005e7c:	0018      	movs	r0, r3
 8005e7e:	f000 fc15 	bl	80066ac <USBD_CtlError>
                  break;
 8005e82:	e065      	b.n	8005f50 <USBD_StdEPReq+0x33e>
                }
              }
              else
              {
                if (pdev->ep_out[ep_addr & 0xFU].is_used == 0U)
 8005e84:	230e      	movs	r3, #14
 8005e86:	18fb      	adds	r3, r7, r3
 8005e88:	781b      	ldrb	r3, [r3, #0]
 8005e8a:	220f      	movs	r2, #15
 8005e8c:	401a      	ands	r2, r3
 8005e8e:	6878      	ldr	r0, [r7, #4]
 8005e90:	23ac      	movs	r3, #172	; 0xac
 8005e92:	0059      	lsls	r1, r3, #1
 8005e94:	0013      	movs	r3, r2
 8005e96:	009b      	lsls	r3, r3, #2
 8005e98:	189b      	adds	r3, r3, r2
 8005e9a:	009b      	lsls	r3, r3, #2
 8005e9c:	18c3      	adds	r3, r0, r3
 8005e9e:	185b      	adds	r3, r3, r1
 8005ea0:	681b      	ldr	r3, [r3, #0]
 8005ea2:	2b00      	cmp	r3, #0
 8005ea4:	d106      	bne.n	8005eb4 <USBD_StdEPReq+0x2a2>
                {
                  USBD_CtlError(pdev, req);
 8005ea6:	683a      	ldr	r2, [r7, #0]
 8005ea8:	687b      	ldr	r3, [r7, #4]
 8005eaa:	0011      	movs	r1, r2
 8005eac:	0018      	movs	r0, r3
 8005eae:	f000 fbfd 	bl	80066ac <USBD_CtlError>
                  break;
 8005eb2:	e04d      	b.n	8005f50 <USBD_StdEPReq+0x33e>
                }
              }

              pep = ((ep_addr & 0x80U) == 0x80U) ? &pdev->ep_in[ep_addr & 0x7FU] : \
 8005eb4:	220e      	movs	r2, #14
 8005eb6:	18bb      	adds	r3, r7, r2
 8005eb8:	781b      	ldrb	r3, [r3, #0]
 8005eba:	b25b      	sxtb	r3, r3
 8005ebc:	2b00      	cmp	r3, #0
 8005ebe:	da0c      	bge.n	8005eda <USBD_StdEPReq+0x2c8>
 8005ec0:	18bb      	adds	r3, r7, r2
 8005ec2:	781b      	ldrb	r3, [r3, #0]
 8005ec4:	227f      	movs	r2, #127	; 0x7f
 8005ec6:	401a      	ands	r2, r3
 8005ec8:	0013      	movs	r3, r2
 8005eca:	009b      	lsls	r3, r3, #2
 8005ecc:	189b      	adds	r3, r3, r2
 8005ece:	009b      	lsls	r3, r3, #2
 8005ed0:	3310      	adds	r3, #16
 8005ed2:	687a      	ldr	r2, [r7, #4]
 8005ed4:	18d3      	adds	r3, r2, r3
 8005ed6:	3304      	adds	r3, #4
 8005ed8:	e00d      	b.n	8005ef6 <USBD_StdEPReq+0x2e4>
                    &pdev->ep_out[ep_addr & 0x7FU];
 8005eda:	230e      	movs	r3, #14
 8005edc:	18fb      	adds	r3, r7, r3
 8005ede:	781b      	ldrb	r3, [r3, #0]
 8005ee0:	227f      	movs	r2, #127	; 0x7f
 8005ee2:	401a      	ands	r2, r3
              pep = ((ep_addr & 0x80U) == 0x80U) ? &pdev->ep_in[ep_addr & 0x7FU] : \
 8005ee4:	0013      	movs	r3, r2
 8005ee6:	009b      	lsls	r3, r3, #2
 8005ee8:	189b      	adds	r3, r3, r2
 8005eea:	009b      	lsls	r3, r3, #2
 8005eec:	3351      	adds	r3, #81	; 0x51
 8005eee:	33ff      	adds	r3, #255	; 0xff
 8005ef0:	687a      	ldr	r2, [r7, #4]
 8005ef2:	18d3      	adds	r3, r2, r3
 8005ef4:	3304      	adds	r3, #4
 8005ef6:	60bb      	str	r3, [r7, #8]

              if ((ep_addr == 0x00U) || (ep_addr == 0x80U))
 8005ef8:	220e      	movs	r2, #14
 8005efa:	18bb      	adds	r3, r7, r2
 8005efc:	781b      	ldrb	r3, [r3, #0]
 8005efe:	2b00      	cmp	r3, #0
 8005f00:	d003      	beq.n	8005f0a <USBD_StdEPReq+0x2f8>
 8005f02:	18bb      	adds	r3, r7, r2
 8005f04:	781b      	ldrb	r3, [r3, #0]
 8005f06:	2b80      	cmp	r3, #128	; 0x80
 8005f08:	d103      	bne.n	8005f12 <USBD_StdEPReq+0x300>
              {
                pep->status = 0x0000U;
 8005f0a:	68bb      	ldr	r3, [r7, #8]
 8005f0c:	2200      	movs	r2, #0
 8005f0e:	601a      	str	r2, [r3, #0]
 8005f10:	e010      	b.n	8005f34 <USBD_StdEPReq+0x322>
              }
              else if (USBD_LL_IsStallEP(pdev, ep_addr))
 8005f12:	230e      	movs	r3, #14
 8005f14:	18fb      	adds	r3, r7, r3
 8005f16:	781a      	ldrb	r2, [r3, #0]
 8005f18:	687b      	ldr	r3, [r7, #4]
 8005f1a:	0011      	movs	r1, r2
 8005f1c:	0018      	movs	r0, r3
 8005f1e:	f001 f870 	bl	8007002 <USBD_LL_IsStallEP>
 8005f22:	1e03      	subs	r3, r0, #0
 8005f24:	d003      	beq.n	8005f2e <USBD_StdEPReq+0x31c>
              {
                pep->status = 0x0001U;
 8005f26:	68bb      	ldr	r3, [r7, #8]
 8005f28:	2201      	movs	r2, #1
 8005f2a:	601a      	str	r2, [r3, #0]
 8005f2c:	e002      	b.n	8005f34 <USBD_StdEPReq+0x322>
              }
              else
              {
                pep->status = 0x0000U;
 8005f2e:	68bb      	ldr	r3, [r7, #8]
 8005f30:	2200      	movs	r2, #0
 8005f32:	601a      	str	r2, [r3, #0]
              }

              USBD_CtlSendData(pdev, (uint8_t *)(void *)&pep->status, 2U);
 8005f34:	68b9      	ldr	r1, [r7, #8]
 8005f36:	687b      	ldr	r3, [r7, #4]
 8005f38:	2202      	movs	r2, #2
 8005f3a:	0018      	movs	r0, r3
 8005f3c:	f000 fc34 	bl	80067a8 <USBD_CtlSendData>
              break;
 8005f40:	e006      	b.n	8005f50 <USBD_StdEPReq+0x33e>

            default:
              USBD_CtlError(pdev, req);
 8005f42:	683a      	ldr	r2, [r7, #0]
 8005f44:	687b      	ldr	r3, [r7, #4]
 8005f46:	0011      	movs	r1, r2
 8005f48:	0018      	movs	r0, r3
 8005f4a:	f000 fbaf 	bl	80066ac <USBD_CtlError>
              break;
 8005f4e:	46c0      	nop			; (mov r8, r8)
          }
          break;
 8005f50:	e006      	b.n	8005f60 <USBD_StdEPReq+0x34e>

        default:
          USBD_CtlError(pdev, req);
 8005f52:	683a      	ldr	r2, [r7, #0]
 8005f54:	687b      	ldr	r3, [r7, #4]
 8005f56:	0011      	movs	r1, r2
 8005f58:	0018      	movs	r0, r3
 8005f5a:	f000 fba7 	bl	80066ac <USBD_CtlError>
          break;
 8005f5e:	46c0      	nop			; (mov r8, r8)
      }
      break;
 8005f60:	e006      	b.n	8005f70 <USBD_StdEPReq+0x35e>

    default:
      USBD_CtlError(pdev, req);
 8005f62:	683a      	ldr	r2, [r7, #0]
 8005f64:	687b      	ldr	r3, [r7, #4]
 8005f66:	0011      	movs	r1, r2
 8005f68:	0018      	movs	r0, r3
 8005f6a:	f000 fb9f 	bl	80066ac <USBD_CtlError>
      break;
 8005f6e:	46c0      	nop			; (mov r8, r8)
  }

  return ret;
 8005f70:	230f      	movs	r3, #15
 8005f72:	18fb      	adds	r3, r7, r3
 8005f74:	781b      	ldrb	r3, [r3, #0]
}
 8005f76:	0018      	movs	r0, r3
 8005f78:	46bd      	mov	sp, r7
 8005f7a:	b004      	add	sp, #16
 8005f7c:	bdb0      	pop	{r4, r5, r7, pc}
	...

08005f80 <USBD_GetDescriptor>:
* @param  req: usb request
* @retval status
*/
static void USBD_GetDescriptor(USBD_HandleTypeDef *pdev,
                               USBD_SetupReqTypedef *req)
{
 8005f80:	b580      	push	{r7, lr}
 8005f82:	b084      	sub	sp, #16
 8005f84:	af00      	add	r7, sp, #0
 8005f86:	6078      	str	r0, [r7, #4]
 8005f88:	6039      	str	r1, [r7, #0]
  uint16_t len = 0U;
 8005f8a:	2308      	movs	r3, #8
 8005f8c:	18fb      	adds	r3, r7, r3
 8005f8e:	2200      	movs	r2, #0
 8005f90:	801a      	strh	r2, [r3, #0]
  uint8_t *pbuf = NULL;
 8005f92:	2300      	movs	r3, #0
 8005f94:	60fb      	str	r3, [r7, #12]
  uint8_t err = 0U;
 8005f96:	230b      	movs	r3, #11
 8005f98:	18fb      	adds	r3, r7, r3
 8005f9a:	2200      	movs	r2, #0
 8005f9c:	701a      	strb	r2, [r3, #0]

  switch (req->wValue >> 8)
 8005f9e:	683b      	ldr	r3, [r7, #0]
 8005fa0:	885b      	ldrh	r3, [r3, #2]
 8005fa2:	0a1b      	lsrs	r3, r3, #8
 8005fa4:	b29b      	uxth	r3, r3
 8005fa6:	2b07      	cmp	r3, #7
 8005fa8:	d900      	bls.n	8005fac <USBD_GetDescriptor+0x2c>
 8005faa:	e159      	b.n	8006260 <USBD_GetDescriptor+0x2e0>
 8005fac:	009a      	lsls	r2, r3, #2
 8005fae:	4bcb      	ldr	r3, [pc, #812]	; (80062dc <USBD_GetDescriptor+0x35c>)
 8005fb0:	18d3      	adds	r3, r2, r3
 8005fb2:	681b      	ldr	r3, [r3, #0]
 8005fb4:	469f      	mov	pc, r3
        err++;
      }
      break;
#endif
    case USB_DESC_TYPE_DEVICE:
      pbuf = pdev->pDesc->GetDeviceDescriptor(pdev->dev_speed, &len);
 8005fb6:	687a      	ldr	r2, [r7, #4]
 8005fb8:	23ac      	movs	r3, #172	; 0xac
 8005fba:	009b      	lsls	r3, r3, #2
 8005fbc:	58d3      	ldr	r3, [r2, r3]
 8005fbe:	681b      	ldr	r3, [r3, #0]
 8005fc0:	687a      	ldr	r2, [r7, #4]
 8005fc2:	7c12      	ldrb	r2, [r2, #16]
 8005fc4:	2108      	movs	r1, #8
 8005fc6:	1879      	adds	r1, r7, r1
 8005fc8:	0010      	movs	r0, r2
 8005fca:	4798      	blx	r3
 8005fcc:	0003      	movs	r3, r0
 8005fce:	60fb      	str	r3, [r7, #12]
      break;
 8005fd0:	e153      	b.n	800627a <USBD_GetDescriptor+0x2fa>

    case USB_DESC_TYPE_CONFIGURATION:
      if (pdev->dev_speed == USBD_SPEED_HIGH)
 8005fd2:	687b      	ldr	r3, [r7, #4]
 8005fd4:	7c1b      	ldrb	r3, [r3, #16]
 8005fd6:	2b00      	cmp	r3, #0
 8005fd8:	d10f      	bne.n	8005ffa <USBD_GetDescriptor+0x7a>
      {
        pbuf = pdev->pClass->GetHSConfigDescriptor(&len);
 8005fda:	687a      	ldr	r2, [r7, #4]
 8005fdc:	23ad      	movs	r3, #173	; 0xad
 8005fde:	009b      	lsls	r3, r3, #2
 8005fe0:	58d3      	ldr	r3, [r2, r3]
 8005fe2:	6a9b      	ldr	r3, [r3, #40]	; 0x28
 8005fe4:	2208      	movs	r2, #8
 8005fe6:	18ba      	adds	r2, r7, r2
 8005fe8:	0010      	movs	r0, r2
 8005fea:	4798      	blx	r3
 8005fec:	0003      	movs	r3, r0
 8005fee:	60fb      	str	r3, [r7, #12]
        pbuf[1] = USB_DESC_TYPE_CONFIGURATION;
 8005ff0:	68fb      	ldr	r3, [r7, #12]
 8005ff2:	3301      	adds	r3, #1
 8005ff4:	2202      	movs	r2, #2
 8005ff6:	701a      	strb	r2, [r3, #0]
      else
      {
        pbuf = pdev->pClass->GetFSConfigDescriptor(&len);
        pbuf[1] = USB_DESC_TYPE_CONFIGURATION;
      }
      break;
 8005ff8:	e13f      	b.n	800627a <USBD_GetDescriptor+0x2fa>
        pbuf = pdev->pClass->GetFSConfigDescriptor(&len);
 8005ffa:	687a      	ldr	r2, [r7, #4]
 8005ffc:	23ad      	movs	r3, #173	; 0xad
 8005ffe:	009b      	lsls	r3, r3, #2
 8006000:	58d3      	ldr	r3, [r2, r3]
 8006002:	6adb      	ldr	r3, [r3, #44]	; 0x2c
 8006004:	2208      	movs	r2, #8
 8006006:	18ba      	adds	r2, r7, r2
 8006008:	0010      	movs	r0, r2
 800600a:	4798      	blx	r3
 800600c:	0003      	movs	r3, r0
 800600e:	60fb      	str	r3, [r7, #12]
        pbuf[1] = USB_DESC_TYPE_CONFIGURATION;
 8006010:	68fb      	ldr	r3, [r7, #12]
 8006012:	3301      	adds	r3, #1
 8006014:	2202      	movs	r2, #2
 8006016:	701a      	strb	r2, [r3, #0]
      break;
 8006018:	e12f      	b.n	800627a <USBD_GetDescriptor+0x2fa>

    case USB_DESC_TYPE_STRING:
      switch ((uint8_t)(req->wValue))
 800601a:	683b      	ldr	r3, [r7, #0]
 800601c:	885b      	ldrh	r3, [r3, #2]
 800601e:	b2db      	uxtb	r3, r3
 8006020:	2b05      	cmp	r3, #5
 8006022:	d900      	bls.n	8006026 <USBD_GetDescriptor+0xa6>
 8006024:	e0d0      	b.n	80061c8 <USBD_GetDescriptor+0x248>
 8006026:	009a      	lsls	r2, r3, #2
 8006028:	4bad      	ldr	r3, [pc, #692]	; (80062e0 <USBD_GetDescriptor+0x360>)
 800602a:	18d3      	adds	r3, r2, r3
 800602c:	681b      	ldr	r3, [r3, #0]
 800602e:	469f      	mov	pc, r3
      {
        case USBD_IDX_LANGID_STR:
          if (pdev->pDesc->GetLangIDStrDescriptor != NULL)
 8006030:	687a      	ldr	r2, [r7, #4]
 8006032:	23ac      	movs	r3, #172	; 0xac
 8006034:	009b      	lsls	r3, r3, #2
 8006036:	58d3      	ldr	r3, [r2, r3]
 8006038:	685b      	ldr	r3, [r3, #4]
 800603a:	2b00      	cmp	r3, #0
 800603c:	d00d      	beq.n	800605a <USBD_GetDescriptor+0xda>
          {
            pbuf = pdev->pDesc->GetLangIDStrDescriptor(pdev->dev_speed, &len);
 800603e:	687a      	ldr	r2, [r7, #4]
 8006040:	23ac      	movs	r3, #172	; 0xac
 8006042:	009b      	lsls	r3, r3, #2
 8006044:	58d3      	ldr	r3, [r2, r3]
 8006046:	685b      	ldr	r3, [r3, #4]
 8006048:	687a      	ldr	r2, [r7, #4]
 800604a:	7c12      	ldrb	r2, [r2, #16]
 800604c:	2108      	movs	r1, #8
 800604e:	1879      	adds	r1, r7, r1
 8006050:	0010      	movs	r0, r2
 8006052:	4798      	blx	r3
 8006054:	0003      	movs	r3, r0
 8006056:	60fb      	str	r3, [r7, #12]
          else
          {
            USBD_CtlError(pdev, req);
            err++;
          }
          break;
 8006058:	e0c3      	b.n	80061e2 <USBD_GetDescriptor+0x262>
            USBD_CtlError(pdev, req);
 800605a:	683a      	ldr	r2, [r7, #0]
 800605c:	687b      	ldr	r3, [r7, #4]
 800605e:	0011      	movs	r1, r2
 8006060:	0018      	movs	r0, r3
 8006062:	f000 fb23 	bl	80066ac <USBD_CtlError>
            err++;
 8006066:	210b      	movs	r1, #11
 8006068:	187b      	adds	r3, r7, r1
 800606a:	781a      	ldrb	r2, [r3, #0]
 800606c:	187b      	adds	r3, r7, r1
 800606e:	3201      	adds	r2, #1
 8006070:	701a      	strb	r2, [r3, #0]
          break;
 8006072:	e0b6      	b.n	80061e2 <USBD_GetDescriptor+0x262>

        case USBD_IDX_MFC_STR:
          if (pdev->pDesc->GetManufacturerStrDescriptor != NULL)
 8006074:	687a      	ldr	r2, [r7, #4]
 8006076:	23ac      	movs	r3, #172	; 0xac
 8006078:	009b      	lsls	r3, r3, #2
 800607a:	58d3      	ldr	r3, [r2, r3]
 800607c:	689b      	ldr	r3, [r3, #8]
 800607e:	2b00      	cmp	r3, #0
 8006080:	d00d      	beq.n	800609e <USBD_GetDescriptor+0x11e>
          {
            pbuf = pdev->pDesc->GetManufacturerStrDescriptor(pdev->dev_speed, &len);
 8006082:	687a      	ldr	r2, [r7, #4]
 8006084:	23ac      	movs	r3, #172	; 0xac
 8006086:	009b      	lsls	r3, r3, #2
 8006088:	58d3      	ldr	r3, [r2, r3]
 800608a:	689b      	ldr	r3, [r3, #8]
 800608c:	687a      	ldr	r2, [r7, #4]
 800608e:	7c12      	ldrb	r2, [r2, #16]
 8006090:	2108      	movs	r1, #8
 8006092:	1879      	adds	r1, r7, r1
 8006094:	0010      	movs	r0, r2
 8006096:	4798      	blx	r3
 8006098:	0003      	movs	r3, r0
 800609a:	60fb      	str	r3, [r7, #12]
          else
          {
            USBD_CtlError(pdev, req);
            err++;
          }
          break;
 800609c:	e0a1      	b.n	80061e2 <USBD_GetDescriptor+0x262>
            USBD_CtlError(pdev, req);
 800609e:	683a      	ldr	r2, [r7, #0]
 80060a0:	687b      	ldr	r3, [r7, #4]
 80060a2:	0011      	movs	r1, r2
 80060a4:	0018      	movs	r0, r3
 80060a6:	f000 fb01 	bl	80066ac <USBD_CtlError>
            err++;
 80060aa:	210b      	movs	r1, #11
 80060ac:	187b      	adds	r3, r7, r1
 80060ae:	781a      	ldrb	r2, [r3, #0]
 80060b0:	187b      	adds	r3, r7, r1
 80060b2:	3201      	adds	r2, #1
 80060b4:	701a      	strb	r2, [r3, #0]
          break;
 80060b6:	e094      	b.n	80061e2 <USBD_GetDescriptor+0x262>

        case USBD_IDX_PRODUCT_STR:
          if (pdev->pDesc->GetProductStrDescriptor != NULL)
 80060b8:	687a      	ldr	r2, [r7, #4]
 80060ba:	23ac      	movs	r3, #172	; 0xac
 80060bc:	009b      	lsls	r3, r3, #2
 80060be:	58d3      	ldr	r3, [r2, r3]
 80060c0:	68db      	ldr	r3, [r3, #12]
 80060c2:	2b00      	cmp	r3, #0
 80060c4:	d00d      	beq.n	80060e2 <USBD_GetDescriptor+0x162>
          {
            pbuf = pdev->pDesc->GetProductStrDescriptor(pdev->dev_speed, &len);
 80060c6:	687a      	ldr	r2, [r7, #4]
 80060c8:	23ac      	movs	r3, #172	; 0xac
 80060ca:	009b      	lsls	r3, r3, #2
 80060cc:	58d3      	ldr	r3, [r2, r3]
 80060ce:	68db      	ldr	r3, [r3, #12]
 80060d0:	687a      	ldr	r2, [r7, #4]
 80060d2:	7c12      	ldrb	r2, [r2, #16]
 80060d4:	2108      	movs	r1, #8
 80060d6:	1879      	adds	r1, r7, r1
 80060d8:	0010      	movs	r0, r2
 80060da:	4798      	blx	r3
 80060dc:	0003      	movs	r3, r0
 80060de:	60fb      	str	r3, [r7, #12]
          else
          {
            USBD_CtlError(pdev, req);
            err++;
          }
          break;
 80060e0:	e07f      	b.n	80061e2 <USBD_GetDescriptor+0x262>
            USBD_CtlError(pdev, req);
 80060e2:	683a      	ldr	r2, [r7, #0]
 80060e4:	687b      	ldr	r3, [r7, #4]
 80060e6:	0011      	movs	r1, r2
 80060e8:	0018      	movs	r0, r3
 80060ea:	f000 fadf 	bl	80066ac <USBD_CtlError>
            err++;
 80060ee:	210b      	movs	r1, #11
 80060f0:	187b      	adds	r3, r7, r1
 80060f2:	781a      	ldrb	r2, [r3, #0]
 80060f4:	187b      	adds	r3, r7, r1
 80060f6:	3201      	adds	r2, #1
 80060f8:	701a      	strb	r2, [r3, #0]
          break;
 80060fa:	e072      	b.n	80061e2 <USBD_GetDescriptor+0x262>

        case USBD_IDX_SERIAL_STR:
          if (pdev->pDesc->GetSerialStrDescriptor != NULL)
 80060fc:	687a      	ldr	r2, [r7, #4]
 80060fe:	23ac      	movs	r3, #172	; 0xac
 8006100:	009b      	lsls	r3, r3, #2
 8006102:	58d3      	ldr	r3, [r2, r3]
 8006104:	691b      	ldr	r3, [r3, #16]
 8006106:	2b00      	cmp	r3, #0
 8006108:	d00d      	beq.n	8006126 <USBD_GetDescriptor+0x1a6>
          {
            pbuf = pdev->pDesc->GetSerialStrDescriptor(pdev->dev_speed, &len);
 800610a:	687a      	ldr	r2, [r7, #4]
 800610c:	23ac      	movs	r3, #172	; 0xac
 800610e:	009b      	lsls	r3, r3, #2
 8006110:	58d3      	ldr	r3, [r2, r3]
 8006112:	691b      	ldr	r3, [r3, #16]
 8006114:	687a      	ldr	r2, [r7, #4]
 8006116:	7c12      	ldrb	r2, [r2, #16]
 8006118:	2108      	movs	r1, #8
 800611a:	1879      	adds	r1, r7, r1
 800611c:	0010      	movs	r0, r2
 800611e:	4798      	blx	r3
 8006120:	0003      	movs	r3, r0
 8006122:	60fb      	str	r3, [r7, #12]
          else
          {
            USBD_CtlError(pdev, req);
            err++;
          }
          break;
 8006124:	e05d      	b.n	80061e2 <USBD_GetDescriptor+0x262>
            USBD_CtlError(pdev, req);
 8006126:	683a      	ldr	r2, [r7, #0]
 8006128:	687b      	ldr	r3, [r7, #4]
 800612a:	0011      	movs	r1, r2
 800612c:	0018      	movs	r0, r3
 800612e:	f000 fabd 	bl	80066ac <USBD_CtlError>
            err++;
 8006132:	210b      	movs	r1, #11
 8006134:	187b      	adds	r3, r7, r1
 8006136:	781a      	ldrb	r2, [r3, #0]
 8006138:	187b      	adds	r3, r7, r1
 800613a:	3201      	adds	r2, #1
 800613c:	701a      	strb	r2, [r3, #0]
          break;
 800613e:	e050      	b.n	80061e2 <USBD_GetDescriptor+0x262>

        case USBD_IDX_CONFIG_STR:
          if (pdev->pDesc->GetConfigurationStrDescriptor != NULL)
 8006140:	687a      	ldr	r2, [r7, #4]
 8006142:	23ac      	movs	r3, #172	; 0xac
 8006144:	009b      	lsls	r3, r3, #2
 8006146:	58d3      	ldr	r3, [r2, r3]
 8006148:	695b      	ldr	r3, [r3, #20]
 800614a:	2b00      	cmp	r3, #0
 800614c:	d00d      	beq.n	800616a <USBD_GetDescriptor+0x1ea>
          {
            pbuf = pdev->pDesc->GetConfigurationStrDescriptor(pdev->dev_speed, &len);
 800614e:	687a      	ldr	r2, [r7, #4]
 8006150:	23ac      	movs	r3, #172	; 0xac
 8006152:	009b      	lsls	r3, r3, #2
 8006154:	58d3      	ldr	r3, [r2, r3]
 8006156:	695b      	ldr	r3, [r3, #20]
 8006158:	687a      	ldr	r2, [r7, #4]
 800615a:	7c12      	ldrb	r2, [r2, #16]
 800615c:	2108      	movs	r1, #8
 800615e:	1879      	adds	r1, r7, r1
 8006160:	0010      	movs	r0, r2
 8006162:	4798      	blx	r3
 8006164:	0003      	movs	r3, r0
 8006166:	60fb      	str	r3, [r7, #12]
          else
          {
            USBD_CtlError(pdev, req);
            err++;
          }
          break;
 8006168:	e03b      	b.n	80061e2 <USBD_GetDescriptor+0x262>
            USBD_CtlError(pdev, req);
 800616a:	683a      	ldr	r2, [r7, #0]
 800616c:	687b      	ldr	r3, [r7, #4]
 800616e:	0011      	movs	r1, r2
 8006170:	0018      	movs	r0, r3
 8006172:	f000 fa9b 	bl	80066ac <USBD_CtlError>
            err++;
 8006176:	210b      	movs	r1, #11
 8006178:	187b      	adds	r3, r7, r1
 800617a:	781a      	ldrb	r2, [r3, #0]
 800617c:	187b      	adds	r3, r7, r1
 800617e:	3201      	adds	r2, #1
 8006180:	701a      	strb	r2, [r3, #0]
          break;
 8006182:	e02e      	b.n	80061e2 <USBD_GetDescriptor+0x262>

        case USBD_IDX_INTERFACE_STR:
          if (pdev->pDesc->GetInterfaceStrDescriptor != NULL)
 8006184:	687a      	ldr	r2, [r7, #4]
 8006186:	23ac      	movs	r3, #172	; 0xac
 8006188:	009b      	lsls	r3, r3, #2
 800618a:	58d3      	ldr	r3, [r2, r3]
 800618c:	699b      	ldr	r3, [r3, #24]
 800618e:	2b00      	cmp	r3, #0
 8006190:	d00d      	beq.n	80061ae <USBD_GetDescriptor+0x22e>
          {
            pbuf = pdev->pDesc->GetInterfaceStrDescriptor(pdev->dev_speed, &len);
 8006192:	687a      	ldr	r2, [r7, #4]
 8006194:	23ac      	movs	r3, #172	; 0xac
 8006196:	009b      	lsls	r3, r3, #2
 8006198:	58d3      	ldr	r3, [r2, r3]
 800619a:	699b      	ldr	r3, [r3, #24]
 800619c:	687a      	ldr	r2, [r7, #4]
 800619e:	7c12      	ldrb	r2, [r2, #16]
 80061a0:	2108      	movs	r1, #8
 80061a2:	1879      	adds	r1, r7, r1
 80061a4:	0010      	movs	r0, r2
 80061a6:	4798      	blx	r3
 80061a8:	0003      	movs	r3, r0
 80061aa:	60fb      	str	r3, [r7, #12]
          else
          {
            USBD_CtlError(pdev, req);
            err++;
          }
          break;
 80061ac:	e019      	b.n	80061e2 <USBD_GetDescriptor+0x262>
            USBD_CtlError(pdev, req);
 80061ae:	683a      	ldr	r2, [r7, #0]
 80061b0:	687b      	ldr	r3, [r7, #4]
 80061b2:	0011      	movs	r1, r2
 80061b4:	0018      	movs	r0, r3
 80061b6:	f000 fa79 	bl	80066ac <USBD_CtlError>
            err++;
 80061ba:	210b      	movs	r1, #11
 80061bc:	187b      	adds	r3, r7, r1
 80061be:	781a      	ldrb	r2, [r3, #0]
 80061c0:	187b      	adds	r3, r7, r1
 80061c2:	3201      	adds	r2, #1
 80061c4:	701a      	strb	r2, [r3, #0]
          break;
 80061c6:	e00c      	b.n	80061e2 <USBD_GetDescriptor+0x262>
            USBD_CtlError(pdev, req);
            err++;
          }
          break;
#else
          USBD_CtlError(pdev, req);
 80061c8:	683a      	ldr	r2, [r7, #0]
 80061ca:	687b      	ldr	r3, [r7, #4]
 80061cc:	0011      	movs	r1, r2
 80061ce:	0018      	movs	r0, r3
 80061d0:	f000 fa6c 	bl	80066ac <USBD_CtlError>
          err++;
 80061d4:	210b      	movs	r1, #11
 80061d6:	187b      	adds	r3, r7, r1
 80061d8:	781a      	ldrb	r2, [r3, #0]
 80061da:	187b      	adds	r3, r7, r1
 80061dc:	3201      	adds	r2, #1
 80061de:	701a      	strb	r2, [r3, #0]
#endif
      }
      break;
 80061e0:	e04b      	b.n	800627a <USBD_GetDescriptor+0x2fa>
 80061e2:	e04a      	b.n	800627a <USBD_GetDescriptor+0x2fa>

    case USB_DESC_TYPE_DEVICE_QUALIFIER:
      if (pdev->dev_speed == USBD_SPEED_HIGH)
 80061e4:	687b      	ldr	r3, [r7, #4]
 80061e6:	7c1b      	ldrb	r3, [r3, #16]
 80061e8:	2b00      	cmp	r3, #0
 80061ea:	d10b      	bne.n	8006204 <USBD_GetDescriptor+0x284>
      {
        pbuf = pdev->pClass->GetDeviceQualifierDescriptor(&len);
 80061ec:	687a      	ldr	r2, [r7, #4]
 80061ee:	23ad      	movs	r3, #173	; 0xad
 80061f0:	009b      	lsls	r3, r3, #2
 80061f2:	58d3      	ldr	r3, [r2, r3]
 80061f4:	6b5b      	ldr	r3, [r3, #52]	; 0x34
 80061f6:	2208      	movs	r2, #8
 80061f8:	18ba      	adds	r2, r7, r2
 80061fa:	0010      	movs	r0, r2
 80061fc:	4798      	blx	r3
 80061fe:	0003      	movs	r3, r0
 8006200:	60fb      	str	r3, [r7, #12]
      else
      {
        USBD_CtlError(pdev, req);
        err++;
      }
      break;
 8006202:	e03a      	b.n	800627a <USBD_GetDescriptor+0x2fa>
        USBD_CtlError(pdev, req);
 8006204:	683a      	ldr	r2, [r7, #0]
 8006206:	687b      	ldr	r3, [r7, #4]
 8006208:	0011      	movs	r1, r2
 800620a:	0018      	movs	r0, r3
 800620c:	f000 fa4e 	bl	80066ac <USBD_CtlError>
        err++;
 8006210:	210b      	movs	r1, #11
 8006212:	187b      	adds	r3, r7, r1
 8006214:	781a      	ldrb	r2, [r3, #0]
 8006216:	187b      	adds	r3, r7, r1
 8006218:	3201      	adds	r2, #1
 800621a:	701a      	strb	r2, [r3, #0]
      break;
 800621c:	e02d      	b.n	800627a <USBD_GetDescriptor+0x2fa>

    case USB_DESC_TYPE_OTHER_SPEED_CONFIGURATION:
      if (pdev->dev_speed == USBD_SPEED_HIGH)
 800621e:	687b      	ldr	r3, [r7, #4]
 8006220:	7c1b      	ldrb	r3, [r3, #16]
 8006222:	2b00      	cmp	r3, #0
 8006224:	d10f      	bne.n	8006246 <USBD_GetDescriptor+0x2c6>
      {
        pbuf = pdev->pClass->GetOtherSpeedConfigDescriptor(&len);
 8006226:	687a      	ldr	r2, [r7, #4]
 8006228:	23ad      	movs	r3, #173	; 0xad
 800622a:	009b      	lsls	r3, r3, #2
 800622c:	58d3      	ldr	r3, [r2, r3]
 800622e:	6b1b      	ldr	r3, [r3, #48]	; 0x30
 8006230:	2208      	movs	r2, #8
 8006232:	18ba      	adds	r2, r7, r2
 8006234:	0010      	movs	r0, r2
 8006236:	4798      	blx	r3
 8006238:	0003      	movs	r3, r0
 800623a:	60fb      	str	r3, [r7, #12]
        pbuf[1] = USB_DESC_TYPE_OTHER_SPEED_CONFIGURATION;
 800623c:	68fb      	ldr	r3, [r7, #12]
 800623e:	3301      	adds	r3, #1
 8006240:	2207      	movs	r2, #7
 8006242:	701a      	strb	r2, [r3, #0]
      else
      {
        USBD_CtlError(pdev, req);
        err++;
      }
      break;
 8006244:	e019      	b.n	800627a <USBD_GetDescriptor+0x2fa>
        USBD_CtlError(pdev, req);
 8006246:	683a      	ldr	r2, [r7, #0]
 8006248:	687b      	ldr	r3, [r7, #4]
 800624a:	0011      	movs	r1, r2
 800624c:	0018      	movs	r0, r3
 800624e:	f000 fa2d 	bl	80066ac <USBD_CtlError>
        err++;
 8006252:	210b      	movs	r1, #11
 8006254:	187b      	adds	r3, r7, r1
 8006256:	781a      	ldrb	r2, [r3, #0]
 8006258:	187b      	adds	r3, r7, r1
 800625a:	3201      	adds	r2, #1
 800625c:	701a      	strb	r2, [r3, #0]
      break;
 800625e:	e00c      	b.n	800627a <USBD_GetDescriptor+0x2fa>

    default:
      USBD_CtlError(pdev, req);
 8006260:	683a      	ldr	r2, [r7, #0]
 8006262:	687b      	ldr	r3, [r7, #4]
 8006264:	0011      	movs	r1, r2
 8006266:	0018      	movs	r0, r3
 8006268:	f000 fa20 	bl	80066ac <USBD_CtlError>
      err++;
 800626c:	210b      	movs	r1, #11
 800626e:	187b      	adds	r3, r7, r1
 8006270:	781a      	ldrb	r2, [r3, #0]
 8006272:	187b      	adds	r3, r7, r1
 8006274:	3201      	adds	r2, #1
 8006276:	701a      	strb	r2, [r3, #0]
      break;
 8006278:	46c0      	nop			; (mov r8, r8)
  }

  if (err != 0U)
 800627a:	230b      	movs	r3, #11
 800627c:	18fb      	adds	r3, r7, r3
 800627e:	781b      	ldrb	r3, [r3, #0]
 8006280:	2b00      	cmp	r3, #0
 8006282:	d127      	bne.n	80062d4 <USBD_GetDescriptor+0x354>
  {
    return;
  }
  else
  {
    if ((len != 0U) && (req->wLength != 0U))
 8006284:	2108      	movs	r1, #8
 8006286:	187b      	adds	r3, r7, r1
 8006288:	881b      	ldrh	r3, [r3, #0]
 800628a:	2b00      	cmp	r3, #0
 800628c:	d019      	beq.n	80062c2 <USBD_GetDescriptor+0x342>
 800628e:	683b      	ldr	r3, [r7, #0]
 8006290:	88db      	ldrh	r3, [r3, #6]
 8006292:	2b00      	cmp	r3, #0
 8006294:	d015      	beq.n	80062c2 <USBD_GetDescriptor+0x342>
    {
      len = MIN(len, req->wLength);
 8006296:	683b      	ldr	r3, [r7, #0]
 8006298:	88da      	ldrh	r2, [r3, #6]
 800629a:	187b      	adds	r3, r7, r1
 800629c:	881b      	ldrh	r3, [r3, #0]
 800629e:	1c18      	adds	r0, r3, #0
 80062a0:	1c11      	adds	r1, r2, #0
 80062a2:	b28a      	uxth	r2, r1
 80062a4:	b283      	uxth	r3, r0
 80062a6:	429a      	cmp	r2, r3
 80062a8:	d900      	bls.n	80062ac <USBD_GetDescriptor+0x32c>
 80062aa:	1c01      	adds	r1, r0, #0
 80062ac:	b28a      	uxth	r2, r1
 80062ae:	2108      	movs	r1, #8
 80062b0:	187b      	adds	r3, r7, r1
 80062b2:	801a      	strh	r2, [r3, #0]
      (void)USBD_CtlSendData(pdev, pbuf, len);
 80062b4:	187b      	adds	r3, r7, r1
 80062b6:	881a      	ldrh	r2, [r3, #0]
 80062b8:	68f9      	ldr	r1, [r7, #12]
 80062ba:	687b      	ldr	r3, [r7, #4]
 80062bc:	0018      	movs	r0, r3
 80062be:	f000 fa73 	bl	80067a8 <USBD_CtlSendData>
    }

    if (req->wLength == 0U)
 80062c2:	683b      	ldr	r3, [r7, #0]
 80062c4:	88db      	ldrh	r3, [r3, #6]
 80062c6:	2b00      	cmp	r3, #0
 80062c8:	d105      	bne.n	80062d6 <USBD_GetDescriptor+0x356>
    {
      (void)USBD_CtlSendStatus(pdev);
 80062ca:	687b      	ldr	r3, [r7, #4]
 80062cc:	0018      	movs	r0, r3
 80062ce:	f000 fad5 	bl	800687c <USBD_CtlSendStatus>
 80062d2:	e000      	b.n	80062d6 <USBD_GetDescriptor+0x356>
    return;
 80062d4:	46c0      	nop			; (mov r8, r8)
    }
  }
}
 80062d6:	46bd      	mov	sp, r7
 80062d8:	b004      	add	sp, #16
 80062da:	bd80      	pop	{r7, pc}
 80062dc:	08007394 	.word	0x08007394
 80062e0:	080073b4 	.word	0x080073b4

080062e4 <USBD_SetAddress>:
* @param  req: usb request
* @retval status
*/
static void USBD_SetAddress(USBD_HandleTypeDef *pdev,
                            USBD_SetupReqTypedef *req)
{
 80062e4:	b590      	push	{r4, r7, lr}
 80062e6:	b085      	sub	sp, #20
 80062e8:	af00      	add	r7, sp, #0
 80062ea:	6078      	str	r0, [r7, #4]
 80062ec:	6039      	str	r1, [r7, #0]
  uint8_t  dev_addr;

  if ((req->wIndex == 0U) && (req->wLength == 0U) && (req->wValue < 128U))
 80062ee:	683b      	ldr	r3, [r7, #0]
 80062f0:	889b      	ldrh	r3, [r3, #4]
 80062f2:	2b00      	cmp	r3, #0
 80062f4:	d13d      	bne.n	8006372 <USBD_SetAddress+0x8e>
 80062f6:	683b      	ldr	r3, [r7, #0]
 80062f8:	88db      	ldrh	r3, [r3, #6]
 80062fa:	2b00      	cmp	r3, #0
 80062fc:	d139      	bne.n	8006372 <USBD_SetAddress+0x8e>
 80062fe:	683b      	ldr	r3, [r7, #0]
 8006300:	885b      	ldrh	r3, [r3, #2]
 8006302:	2b7f      	cmp	r3, #127	; 0x7f
 8006304:	d835      	bhi.n	8006372 <USBD_SetAddress+0x8e>
  {
    dev_addr = (uint8_t)(req->wValue) & 0x7FU;
 8006306:	683b      	ldr	r3, [r7, #0]
 8006308:	885b      	ldrh	r3, [r3, #2]
 800630a:	b2da      	uxtb	r2, r3
 800630c:	230f      	movs	r3, #15
 800630e:	18fb      	adds	r3, r7, r3
 8006310:	217f      	movs	r1, #127	; 0x7f
 8006312:	400a      	ands	r2, r1
 8006314:	701a      	strb	r2, [r3, #0]

    if (pdev->dev_state == USBD_STATE_CONFIGURED)
 8006316:	687a      	ldr	r2, [r7, #4]
 8006318:	23a7      	movs	r3, #167	; 0xa7
 800631a:	009b      	lsls	r3, r3, #2
 800631c:	5cd3      	ldrb	r3, [r2, r3]
 800631e:	2b03      	cmp	r3, #3
 8006320:	d106      	bne.n	8006330 <USBD_SetAddress+0x4c>
    {
      USBD_CtlError(pdev, req);
 8006322:	683a      	ldr	r2, [r7, #0]
 8006324:	687b      	ldr	r3, [r7, #4]
 8006326:	0011      	movs	r1, r2
 8006328:	0018      	movs	r0, r3
 800632a:	f000 f9bf 	bl	80066ac <USBD_CtlError>
    if (pdev->dev_state == USBD_STATE_CONFIGURED)
 800632e:	e027      	b.n	8006380 <USBD_SetAddress+0x9c>
    }
    else
    {
      pdev->dev_address = dev_addr;
 8006330:	687b      	ldr	r3, [r7, #4]
 8006332:	240f      	movs	r4, #15
 8006334:	193a      	adds	r2, r7, r4
 8006336:	4914      	ldr	r1, [pc, #80]	; (8006388 <USBD_SetAddress+0xa4>)
 8006338:	7812      	ldrb	r2, [r2, #0]
 800633a:	545a      	strb	r2, [r3, r1]
      USBD_LL_SetUSBAddress(pdev, dev_addr);
 800633c:	193b      	adds	r3, r7, r4
 800633e:	781a      	ldrb	r2, [r3, #0]
 8006340:	687b      	ldr	r3, [r7, #4]
 8006342:	0011      	movs	r1, r2
 8006344:	0018      	movs	r0, r3
 8006346:	f000 fe8d 	bl	8007064 <USBD_LL_SetUSBAddress>
      USBD_CtlSendStatus(pdev);
 800634a:	687b      	ldr	r3, [r7, #4]
 800634c:	0018      	movs	r0, r3
 800634e:	f000 fa95 	bl	800687c <USBD_CtlSendStatus>

      if (dev_addr != 0U)
 8006352:	193b      	adds	r3, r7, r4
 8006354:	781b      	ldrb	r3, [r3, #0]
 8006356:	2b00      	cmp	r3, #0
 8006358:	d005      	beq.n	8006366 <USBD_SetAddress+0x82>
      {
        pdev->dev_state = USBD_STATE_ADDRESSED;
 800635a:	687a      	ldr	r2, [r7, #4]
 800635c:	23a7      	movs	r3, #167	; 0xa7
 800635e:	009b      	lsls	r3, r3, #2
 8006360:	2102      	movs	r1, #2
 8006362:	54d1      	strb	r1, [r2, r3]
    if (pdev->dev_state == USBD_STATE_CONFIGURED)
 8006364:	e00c      	b.n	8006380 <USBD_SetAddress+0x9c>
      }
      else
      {
        pdev->dev_state = USBD_STATE_DEFAULT;
 8006366:	687a      	ldr	r2, [r7, #4]
 8006368:	23a7      	movs	r3, #167	; 0xa7
 800636a:	009b      	lsls	r3, r3, #2
 800636c:	2101      	movs	r1, #1
 800636e:	54d1      	strb	r1, [r2, r3]
    if (pdev->dev_state == USBD_STATE_CONFIGURED)
 8006370:	e006      	b.n	8006380 <USBD_SetAddress+0x9c>
      }
    }
  }
  else
  {
    USBD_CtlError(pdev, req);
 8006372:	683a      	ldr	r2, [r7, #0]
 8006374:	687b      	ldr	r3, [r7, #4]
 8006376:	0011      	movs	r1, r2
 8006378:	0018      	movs	r0, r3
 800637a:	f000 f997 	bl	80066ac <USBD_CtlError>
  }
}
 800637e:	46c0      	nop			; (mov r8, r8)
 8006380:	46c0      	nop			; (mov r8, r8)
 8006382:	46bd      	mov	sp, r7
 8006384:	b005      	add	sp, #20
 8006386:	bd90      	pop	{r4, r7, pc}
 8006388:	0000029e 	.word	0x0000029e

0800638c <USBD_SetConfig>:
* @param  pdev: device instance
* @param  req: usb request
* @retval status
*/
static void USBD_SetConfig(USBD_HandleTypeDef *pdev, USBD_SetupReqTypedef *req)
{
 800638c:	b580      	push	{r7, lr}
 800638e:	b082      	sub	sp, #8
 8006390:	af00      	add	r7, sp, #0
 8006392:	6078      	str	r0, [r7, #4]
 8006394:	6039      	str	r1, [r7, #0]
  static uint8_t cfgidx;

  cfgidx = (uint8_t)(req->wValue);
 8006396:	683b      	ldr	r3, [r7, #0]
 8006398:	885b      	ldrh	r3, [r3, #2]
 800639a:	b2da      	uxtb	r2, r3
 800639c:	4b4c      	ldr	r3, [pc, #304]	; (80064d0 <USBD_SetConfig+0x144>)
 800639e:	701a      	strb	r2, [r3, #0]

  if (cfgidx > USBD_MAX_NUM_CONFIGURATION)
 80063a0:	4b4b      	ldr	r3, [pc, #300]	; (80064d0 <USBD_SetConfig+0x144>)
 80063a2:	781b      	ldrb	r3, [r3, #0]
 80063a4:	2b01      	cmp	r3, #1
 80063a6:	d906      	bls.n	80063b6 <USBD_SetConfig+0x2a>
  {
    USBD_CtlError(pdev, req);
 80063a8:	683a      	ldr	r2, [r7, #0]
 80063aa:	687b      	ldr	r3, [r7, #4]
 80063ac:	0011      	movs	r1, r2
 80063ae:	0018      	movs	r0, r3
 80063b0:	f000 f97c 	bl	80066ac <USBD_CtlError>
 80063b4:	e088      	b.n	80064c8 <USBD_SetConfig+0x13c>
  }
  else
  {
    switch (pdev->dev_state)
 80063b6:	687a      	ldr	r2, [r7, #4]
 80063b8:	23a7      	movs	r3, #167	; 0xa7
 80063ba:	009b      	lsls	r3, r3, #2
 80063bc:	5cd3      	ldrb	r3, [r2, r3]
 80063be:	2b02      	cmp	r3, #2
 80063c0:	d002      	beq.n	80063c8 <USBD_SetConfig+0x3c>
 80063c2:	2b03      	cmp	r3, #3
 80063c4:	d029      	beq.n	800641a <USBD_SetConfig+0x8e>
 80063c6:	e071      	b.n	80064ac <USBD_SetConfig+0x120>
    {
      case USBD_STATE_ADDRESSED:
        if (cfgidx)
 80063c8:	4b41      	ldr	r3, [pc, #260]	; (80064d0 <USBD_SetConfig+0x144>)
 80063ca:	781b      	ldrb	r3, [r3, #0]
 80063cc:	2b00      	cmp	r3, #0
 80063ce:	d01f      	beq.n	8006410 <USBD_SetConfig+0x84>
        {
          pdev->dev_config = cfgidx;
 80063d0:	4b3f      	ldr	r3, [pc, #252]	; (80064d0 <USBD_SetConfig+0x144>)
 80063d2:	781b      	ldrb	r3, [r3, #0]
 80063d4:	001a      	movs	r2, r3
 80063d6:	687b      	ldr	r3, [r7, #4]
 80063d8:	605a      	str	r2, [r3, #4]
          pdev->dev_state = USBD_STATE_CONFIGURED;
 80063da:	687a      	ldr	r2, [r7, #4]
 80063dc:	23a7      	movs	r3, #167	; 0xa7
 80063de:	009b      	lsls	r3, r3, #2
 80063e0:	2103      	movs	r1, #3
 80063e2:	54d1      	strb	r1, [r2, r3]
          if (USBD_SetClassConfig(pdev, cfgidx) == USBD_FAIL)
 80063e4:	4b3a      	ldr	r3, [pc, #232]	; (80064d0 <USBD_SetConfig+0x144>)
 80063e6:	781a      	ldrb	r2, [r3, #0]
 80063e8:	687b      	ldr	r3, [r7, #4]
 80063ea:	0011      	movs	r1, r2
 80063ec:	0018      	movs	r0, r3
 80063ee:	f7ff f8c5 	bl	800557c <USBD_SetClassConfig>
 80063f2:	0003      	movs	r3, r0
 80063f4:	2b02      	cmp	r3, #2
 80063f6:	d106      	bne.n	8006406 <USBD_SetConfig+0x7a>
          {
            USBD_CtlError(pdev, req);
 80063f8:	683a      	ldr	r2, [r7, #0]
 80063fa:	687b      	ldr	r3, [r7, #4]
 80063fc:	0011      	movs	r1, r2
 80063fe:	0018      	movs	r0, r3
 8006400:	f000 f954 	bl	80066ac <USBD_CtlError>
            return;
 8006404:	e060      	b.n	80064c8 <USBD_SetConfig+0x13c>
          }
          USBD_CtlSendStatus(pdev);
 8006406:	687b      	ldr	r3, [r7, #4]
 8006408:	0018      	movs	r0, r3
 800640a:	f000 fa37 	bl	800687c <USBD_CtlSendStatus>
        }
        else
        {
          USBD_CtlSendStatus(pdev);
        }
        break;
 800640e:	e05b      	b.n	80064c8 <USBD_SetConfig+0x13c>
          USBD_CtlSendStatus(pdev);
 8006410:	687b      	ldr	r3, [r7, #4]
 8006412:	0018      	movs	r0, r3
 8006414:	f000 fa32 	bl	800687c <USBD_CtlSendStatus>
        break;
 8006418:	e056      	b.n	80064c8 <USBD_SetConfig+0x13c>

      case USBD_STATE_CONFIGURED:
        if (cfgidx == 0U)
 800641a:	4b2d      	ldr	r3, [pc, #180]	; (80064d0 <USBD_SetConfig+0x144>)
 800641c:	781b      	ldrb	r3, [r3, #0]
 800641e:	2b00      	cmp	r3, #0
 8006420:	d115      	bne.n	800644e <USBD_SetConfig+0xc2>
        {
          pdev->dev_state = USBD_STATE_ADDRESSED;
 8006422:	687a      	ldr	r2, [r7, #4]
 8006424:	23a7      	movs	r3, #167	; 0xa7
 8006426:	009b      	lsls	r3, r3, #2
 8006428:	2102      	movs	r1, #2
 800642a:	54d1      	strb	r1, [r2, r3]
          pdev->dev_config = cfgidx;
 800642c:	4b28      	ldr	r3, [pc, #160]	; (80064d0 <USBD_SetConfig+0x144>)
 800642e:	781b      	ldrb	r3, [r3, #0]
 8006430:	001a      	movs	r2, r3
 8006432:	687b      	ldr	r3, [r7, #4]
 8006434:	605a      	str	r2, [r3, #4]
          USBD_ClrClassConfig(pdev, cfgidx);
 8006436:	4b26      	ldr	r3, [pc, #152]	; (80064d0 <USBD_SetConfig+0x144>)
 8006438:	781a      	ldrb	r2, [r3, #0]
 800643a:	687b      	ldr	r3, [r7, #4]
 800643c:	0011      	movs	r1, r2
 800643e:	0018      	movs	r0, r3
 8006440:	f7ff f8c3 	bl	80055ca <USBD_ClrClassConfig>
          USBD_CtlSendStatus(pdev);
 8006444:	687b      	ldr	r3, [r7, #4]
 8006446:	0018      	movs	r0, r3
 8006448:	f000 fa18 	bl	800687c <USBD_CtlSendStatus>
        }
        else
        {
          USBD_CtlSendStatus(pdev);
        }
        break;
 800644c:	e03c      	b.n	80064c8 <USBD_SetConfig+0x13c>
        else if (cfgidx != pdev->dev_config)
 800644e:	4b20      	ldr	r3, [pc, #128]	; (80064d0 <USBD_SetConfig+0x144>)
 8006450:	781b      	ldrb	r3, [r3, #0]
 8006452:	001a      	movs	r2, r3
 8006454:	687b      	ldr	r3, [r7, #4]
 8006456:	685b      	ldr	r3, [r3, #4]
 8006458:	429a      	cmp	r2, r3
 800645a:	d022      	beq.n	80064a2 <USBD_SetConfig+0x116>
          USBD_ClrClassConfig(pdev, (uint8_t)pdev->dev_config);
 800645c:	687b      	ldr	r3, [r7, #4]
 800645e:	685b      	ldr	r3, [r3, #4]
 8006460:	b2da      	uxtb	r2, r3
 8006462:	687b      	ldr	r3, [r7, #4]
 8006464:	0011      	movs	r1, r2
 8006466:	0018      	movs	r0, r3
 8006468:	f7ff f8af 	bl	80055ca <USBD_ClrClassConfig>
          pdev->dev_config = cfgidx;
 800646c:	4b18      	ldr	r3, [pc, #96]	; (80064d0 <USBD_SetConfig+0x144>)
 800646e:	781b      	ldrb	r3, [r3, #0]
 8006470:	001a      	movs	r2, r3
 8006472:	687b      	ldr	r3, [r7, #4]
 8006474:	605a      	str	r2, [r3, #4]
          if (USBD_SetClassConfig(pdev, cfgidx) == USBD_FAIL)
 8006476:	4b16      	ldr	r3, [pc, #88]	; (80064d0 <USBD_SetConfig+0x144>)
 8006478:	781a      	ldrb	r2, [r3, #0]
 800647a:	687b      	ldr	r3, [r7, #4]
 800647c:	0011      	movs	r1, r2
 800647e:	0018      	movs	r0, r3
 8006480:	f7ff f87c 	bl	800557c <USBD_SetClassConfig>
 8006484:	0003      	movs	r3, r0
 8006486:	2b02      	cmp	r3, #2
 8006488:	d106      	bne.n	8006498 <USBD_SetConfig+0x10c>
            USBD_CtlError(pdev, req);
 800648a:	683a      	ldr	r2, [r7, #0]
 800648c:	687b      	ldr	r3, [r7, #4]
 800648e:	0011      	movs	r1, r2
 8006490:	0018      	movs	r0, r3
 8006492:	f000 f90b 	bl	80066ac <USBD_CtlError>
            return;
 8006496:	e017      	b.n	80064c8 <USBD_SetConfig+0x13c>
          USBD_CtlSendStatus(pdev);
 8006498:	687b      	ldr	r3, [r7, #4]
 800649a:	0018      	movs	r0, r3
 800649c:	f000 f9ee 	bl	800687c <USBD_CtlSendStatus>
        break;
 80064a0:	e012      	b.n	80064c8 <USBD_SetConfig+0x13c>
          USBD_CtlSendStatus(pdev);
 80064a2:	687b      	ldr	r3, [r7, #4]
 80064a4:	0018      	movs	r0, r3
 80064a6:	f000 f9e9 	bl	800687c <USBD_CtlSendStatus>
        break;
 80064aa:	e00d      	b.n	80064c8 <USBD_SetConfig+0x13c>

      default:
        USBD_CtlError(pdev, req);
 80064ac:	683a      	ldr	r2, [r7, #0]
 80064ae:	687b      	ldr	r3, [r7, #4]
 80064b0:	0011      	movs	r1, r2
 80064b2:	0018      	movs	r0, r3
 80064b4:	f000 f8fa 	bl	80066ac <USBD_CtlError>
        USBD_ClrClassConfig(pdev, cfgidx);
 80064b8:	4b05      	ldr	r3, [pc, #20]	; (80064d0 <USBD_SetConfig+0x144>)
 80064ba:	781a      	ldrb	r2, [r3, #0]
 80064bc:	687b      	ldr	r3, [r7, #4]
 80064be:	0011      	movs	r1, r2
 80064c0:	0018      	movs	r0, r3
 80064c2:	f7ff f882 	bl	80055ca <USBD_ClrClassConfig>
        break;
 80064c6:	46c0      	nop			; (mov r8, r8)
    }
  }
}
 80064c8:	46bd      	mov	sp, r7
 80064ca:	b002      	add	sp, #8
 80064cc:	bd80      	pop	{r7, pc}
 80064ce:	46c0      	nop			; (mov r8, r8)
 80064d0:	20000164 	.word	0x20000164

080064d4 <USBD_GetConfig>:
* @param  pdev: device instance
* @param  req: usb request
* @retval status
*/
static void USBD_GetConfig(USBD_HandleTypeDef *pdev, USBD_SetupReqTypedef *req)
{
 80064d4:	b580      	push	{r7, lr}
 80064d6:	b082      	sub	sp, #8
 80064d8:	af00      	add	r7, sp, #0
 80064da:	6078      	str	r0, [r7, #4]
 80064dc:	6039      	str	r1, [r7, #0]
  if (req->wLength != 1U)
 80064de:	683b      	ldr	r3, [r7, #0]
 80064e0:	88db      	ldrh	r3, [r3, #6]
 80064e2:	2b01      	cmp	r3, #1
 80064e4:	d006      	beq.n	80064f4 <USBD_GetConfig+0x20>
  {
    USBD_CtlError(pdev, req);
 80064e6:	683a      	ldr	r2, [r7, #0]
 80064e8:	687b      	ldr	r3, [r7, #4]
 80064ea:	0011      	movs	r1, r2
 80064ec:	0018      	movs	r0, r3
 80064ee:	f000 f8dd 	bl	80066ac <USBD_CtlError>
      default:
        USBD_CtlError(pdev, req);
        break;
    }
  }
}
 80064f2:	e026      	b.n	8006542 <USBD_GetConfig+0x6e>
    switch (pdev->dev_state)
 80064f4:	687a      	ldr	r2, [r7, #4]
 80064f6:	23a7      	movs	r3, #167	; 0xa7
 80064f8:	009b      	lsls	r3, r3, #2
 80064fa:	5cd3      	ldrb	r3, [r2, r3]
 80064fc:	2b02      	cmp	r3, #2
 80064fe:	dc02      	bgt.n	8006506 <USBD_GetConfig+0x32>
 8006500:	2b00      	cmp	r3, #0
 8006502:	dc03      	bgt.n	800650c <USBD_GetConfig+0x38>
 8006504:	e016      	b.n	8006534 <USBD_GetConfig+0x60>
 8006506:	2b03      	cmp	r3, #3
 8006508:	d00c      	beq.n	8006524 <USBD_GetConfig+0x50>
 800650a:	e013      	b.n	8006534 <USBD_GetConfig+0x60>
        pdev->dev_default_config = 0U;
 800650c:	687b      	ldr	r3, [r7, #4]
 800650e:	2200      	movs	r2, #0
 8006510:	609a      	str	r2, [r3, #8]
        USBD_CtlSendData(pdev, (uint8_t *)(void *)&pdev->dev_default_config, 1U);
 8006512:	687b      	ldr	r3, [r7, #4]
 8006514:	3308      	adds	r3, #8
 8006516:	0019      	movs	r1, r3
 8006518:	687b      	ldr	r3, [r7, #4]
 800651a:	2201      	movs	r2, #1
 800651c:	0018      	movs	r0, r3
 800651e:	f000 f943 	bl	80067a8 <USBD_CtlSendData>
        break;
 8006522:	e00e      	b.n	8006542 <USBD_GetConfig+0x6e>
        USBD_CtlSendData(pdev, (uint8_t *)(void *)&pdev->dev_config, 1U);
 8006524:	687b      	ldr	r3, [r7, #4]
 8006526:	1d19      	adds	r1, r3, #4
 8006528:	687b      	ldr	r3, [r7, #4]
 800652a:	2201      	movs	r2, #1
 800652c:	0018      	movs	r0, r3
 800652e:	f000 f93b 	bl	80067a8 <USBD_CtlSendData>
        break;
 8006532:	e006      	b.n	8006542 <USBD_GetConfig+0x6e>
        USBD_CtlError(pdev, req);
 8006534:	683a      	ldr	r2, [r7, #0]
 8006536:	687b      	ldr	r3, [r7, #4]
 8006538:	0011      	movs	r1, r2
 800653a:	0018      	movs	r0, r3
 800653c:	f000 f8b6 	bl	80066ac <USBD_CtlError>
        break;
 8006540:	46c0      	nop			; (mov r8, r8)
}
 8006542:	46c0      	nop			; (mov r8, r8)
 8006544:	46bd      	mov	sp, r7
 8006546:	b002      	add	sp, #8
 8006548:	bd80      	pop	{r7, pc}

0800654a <USBD_GetStatus>:
* @param  pdev: device instance
* @param  req: usb request
* @retval status
*/
static void USBD_GetStatus(USBD_HandleTypeDef *pdev, USBD_SetupReqTypedef *req)
{
 800654a:	b580      	push	{r7, lr}
 800654c:	b082      	sub	sp, #8
 800654e:	af00      	add	r7, sp, #0
 8006550:	6078      	str	r0, [r7, #4]
 8006552:	6039      	str	r1, [r7, #0]
  switch (pdev->dev_state)
 8006554:	687a      	ldr	r2, [r7, #4]
 8006556:	23a7      	movs	r3, #167	; 0xa7
 8006558:	009b      	lsls	r3, r3, #2
 800655a:	5cd3      	ldrb	r3, [r2, r3]
 800655c:	3b01      	subs	r3, #1
 800655e:	2b02      	cmp	r3, #2
 8006560:	d822      	bhi.n	80065a8 <USBD_GetStatus+0x5e>
  {
    case USBD_STATE_DEFAULT:
    case USBD_STATE_ADDRESSED:
    case USBD_STATE_CONFIGURED:
      if (req->wLength != 0x2U)
 8006562:	683b      	ldr	r3, [r7, #0]
 8006564:	88db      	ldrh	r3, [r3, #6]
 8006566:	2b02      	cmp	r3, #2
 8006568:	d006      	beq.n	8006578 <USBD_GetStatus+0x2e>
      {
        USBD_CtlError(pdev, req);
 800656a:	683a      	ldr	r2, [r7, #0]
 800656c:	687b      	ldr	r3, [r7, #4]
 800656e:	0011      	movs	r1, r2
 8006570:	0018      	movs	r0, r3
 8006572:	f000 f89b 	bl	80066ac <USBD_CtlError>
        break;
 8006576:	e01e      	b.n	80065b6 <USBD_GetStatus+0x6c>
      }

#if (USBD_SELF_POWERED == 1U)
      pdev->dev_config_status = USB_CONFIG_SELF_POWERED;
 8006578:	687b      	ldr	r3, [r7, #4]
 800657a:	2201      	movs	r2, #1
 800657c:	60da      	str	r2, [r3, #12]
#else
      pdev->dev_config_status = 0U;
#endif

      if (pdev->dev_remote_wakeup)
 800657e:	687a      	ldr	r2, [r7, #4]
 8006580:	23a9      	movs	r3, #169	; 0xa9
 8006582:	009b      	lsls	r3, r3, #2
 8006584:	58d3      	ldr	r3, [r2, r3]
 8006586:	2b00      	cmp	r3, #0
 8006588:	d005      	beq.n	8006596 <USBD_GetStatus+0x4c>
      {
        pdev->dev_config_status |= USB_CONFIG_REMOTE_WAKEUP;
 800658a:	687b      	ldr	r3, [r7, #4]
 800658c:	68db      	ldr	r3, [r3, #12]
 800658e:	2202      	movs	r2, #2
 8006590:	431a      	orrs	r2, r3
 8006592:	687b      	ldr	r3, [r7, #4]
 8006594:	60da      	str	r2, [r3, #12]
      }

      USBD_CtlSendData(pdev, (uint8_t *)(void *)&pdev->dev_config_status, 2U);
 8006596:	687b      	ldr	r3, [r7, #4]
 8006598:	330c      	adds	r3, #12
 800659a:	0019      	movs	r1, r3
 800659c:	687b      	ldr	r3, [r7, #4]
 800659e:	2202      	movs	r2, #2
 80065a0:	0018      	movs	r0, r3
 80065a2:	f000 f901 	bl	80067a8 <USBD_CtlSendData>
      break;
 80065a6:	e006      	b.n	80065b6 <USBD_GetStatus+0x6c>

    default:
      USBD_CtlError(pdev, req);
 80065a8:	683a      	ldr	r2, [r7, #0]
 80065aa:	687b      	ldr	r3, [r7, #4]
 80065ac:	0011      	movs	r1, r2
 80065ae:	0018      	movs	r0, r3
 80065b0:	f000 f87c 	bl	80066ac <USBD_CtlError>
      break;
 80065b4:	46c0      	nop			; (mov r8, r8)
  }
}
 80065b6:	46c0      	nop			; (mov r8, r8)
 80065b8:	46bd      	mov	sp, r7
 80065ba:	b002      	add	sp, #8
 80065bc:	bd80      	pop	{r7, pc}

080065be <USBD_SetFeature>:
* @param  req: usb request
* @retval status
*/
static void USBD_SetFeature(USBD_HandleTypeDef *pdev,
                            USBD_SetupReqTypedef *req)
{
 80065be:	b580      	push	{r7, lr}
 80065c0:	b082      	sub	sp, #8
 80065c2:	af00      	add	r7, sp, #0
 80065c4:	6078      	str	r0, [r7, #4]
 80065c6:	6039      	str	r1, [r7, #0]
  if (req->wValue == USB_FEATURE_REMOTE_WAKEUP)
 80065c8:	683b      	ldr	r3, [r7, #0]
 80065ca:	885b      	ldrh	r3, [r3, #2]
 80065cc:	2b01      	cmp	r3, #1
 80065ce:	d108      	bne.n	80065e2 <USBD_SetFeature+0x24>
  {
    pdev->dev_remote_wakeup = 1U;
 80065d0:	687a      	ldr	r2, [r7, #4]
 80065d2:	23a9      	movs	r3, #169	; 0xa9
 80065d4:	009b      	lsls	r3, r3, #2
 80065d6:	2101      	movs	r1, #1
 80065d8:	50d1      	str	r1, [r2, r3]
    USBD_CtlSendStatus(pdev);
 80065da:	687b      	ldr	r3, [r7, #4]
 80065dc:	0018      	movs	r0, r3
 80065de:	f000 f94d 	bl	800687c <USBD_CtlSendStatus>
  }
}
 80065e2:	46c0      	nop			; (mov r8, r8)
 80065e4:	46bd      	mov	sp, r7
 80065e6:	b002      	add	sp, #8
 80065e8:	bd80      	pop	{r7, pc}

080065ea <USBD_ClrFeature>:
* @param  req: usb request
* @retval status
*/
static void USBD_ClrFeature(USBD_HandleTypeDef *pdev,
                            USBD_SetupReqTypedef *req)
{
 80065ea:	b580      	push	{r7, lr}
 80065ec:	b082      	sub	sp, #8
 80065ee:	af00      	add	r7, sp, #0
 80065f0:	6078      	str	r0, [r7, #4]
 80065f2:	6039      	str	r1, [r7, #0]
  switch (pdev->dev_state)
 80065f4:	687a      	ldr	r2, [r7, #4]
 80065f6:	23a7      	movs	r3, #167	; 0xa7
 80065f8:	009b      	lsls	r3, r3, #2
 80065fa:	5cd3      	ldrb	r3, [r2, r3]
 80065fc:	3b01      	subs	r3, #1
 80065fe:	2b02      	cmp	r3, #2
 8006600:	d80d      	bhi.n	800661e <USBD_ClrFeature+0x34>
  {
    case USBD_STATE_DEFAULT:
    case USBD_STATE_ADDRESSED:
    case USBD_STATE_CONFIGURED:
      if (req->wValue == USB_FEATURE_REMOTE_WAKEUP)
 8006602:	683b      	ldr	r3, [r7, #0]
 8006604:	885b      	ldrh	r3, [r3, #2]
 8006606:	2b01      	cmp	r3, #1
 8006608:	d110      	bne.n	800662c <USBD_ClrFeature+0x42>
      {
        pdev->dev_remote_wakeup = 0U;
 800660a:	687a      	ldr	r2, [r7, #4]
 800660c:	23a9      	movs	r3, #169	; 0xa9
 800660e:	009b      	lsls	r3, r3, #2
 8006610:	2100      	movs	r1, #0
 8006612:	50d1      	str	r1, [r2, r3]
        USBD_CtlSendStatus(pdev);
 8006614:	687b      	ldr	r3, [r7, #4]
 8006616:	0018      	movs	r0, r3
 8006618:	f000 f930 	bl	800687c <USBD_CtlSendStatus>
      }
      break;
 800661c:	e006      	b.n	800662c <USBD_ClrFeature+0x42>

    default:
      USBD_CtlError(pdev, req);
 800661e:	683a      	ldr	r2, [r7, #0]
 8006620:	687b      	ldr	r3, [r7, #4]
 8006622:	0011      	movs	r1, r2
 8006624:	0018      	movs	r0, r3
 8006626:	f000 f841 	bl	80066ac <USBD_CtlError>
      break;
 800662a:	e000      	b.n	800662e <USBD_ClrFeature+0x44>
      break;
 800662c:	46c0      	nop			; (mov r8, r8)
  }
}
 800662e:	46c0      	nop			; (mov r8, r8)
 8006630:	46bd      	mov	sp, r7
 8006632:	b002      	add	sp, #8
 8006634:	bd80      	pop	{r7, pc}

08006636 <USBD_ParseSetupRequest>:
* @param  req: usb request
* @retval None
*/

void USBD_ParseSetupRequest(USBD_SetupReqTypedef *req, uint8_t *pdata)
{
 8006636:	b580      	push	{r7, lr}
 8006638:	b082      	sub	sp, #8
 800663a:	af00      	add	r7, sp, #0
 800663c:	6078      	str	r0, [r7, #4]
 800663e:	6039      	str	r1, [r7, #0]
  req->bmRequest = *(uint8_t *)(pdata);
 8006640:	683b      	ldr	r3, [r7, #0]
 8006642:	781a      	ldrb	r2, [r3, #0]
 8006644:	687b      	ldr	r3, [r7, #4]
 8006646:	701a      	strb	r2, [r3, #0]
  req->bRequest = *(uint8_t *)(pdata + 1U);
 8006648:	683b      	ldr	r3, [r7, #0]
 800664a:	785a      	ldrb	r2, [r3, #1]
 800664c:	687b      	ldr	r3, [r7, #4]
 800664e:	705a      	strb	r2, [r3, #1]
  req->wValue = SWAPBYTE(pdata + 2U);
 8006650:	683b      	ldr	r3, [r7, #0]
 8006652:	3302      	adds	r3, #2
 8006654:	781b      	ldrb	r3, [r3, #0]
 8006656:	b29a      	uxth	r2, r3
 8006658:	683b      	ldr	r3, [r7, #0]
 800665a:	3303      	adds	r3, #3
 800665c:	781b      	ldrb	r3, [r3, #0]
 800665e:	b29b      	uxth	r3, r3
 8006660:	021b      	lsls	r3, r3, #8
 8006662:	b29b      	uxth	r3, r3
 8006664:	18d3      	adds	r3, r2, r3
 8006666:	b29a      	uxth	r2, r3
 8006668:	687b      	ldr	r3, [r7, #4]
 800666a:	805a      	strh	r2, [r3, #2]
  req->wIndex = SWAPBYTE(pdata + 4U);
 800666c:	683b      	ldr	r3, [r7, #0]
 800666e:	3304      	adds	r3, #4
 8006670:	781b      	ldrb	r3, [r3, #0]
 8006672:	b29a      	uxth	r2, r3
 8006674:	683b      	ldr	r3, [r7, #0]
 8006676:	3305      	adds	r3, #5
 8006678:	781b      	ldrb	r3, [r3, #0]
 800667a:	b29b      	uxth	r3, r3
 800667c:	021b      	lsls	r3, r3, #8
 800667e:	b29b      	uxth	r3, r3
 8006680:	18d3      	adds	r3, r2, r3
 8006682:	b29a      	uxth	r2, r3
 8006684:	687b      	ldr	r3, [r7, #4]
 8006686:	809a      	strh	r2, [r3, #4]
  req->wLength = SWAPBYTE(pdata + 6U);
 8006688:	683b      	ldr	r3, [r7, #0]
 800668a:	3306      	adds	r3, #6
 800668c:	781b      	ldrb	r3, [r3, #0]
 800668e:	b29a      	uxth	r2, r3
 8006690:	683b      	ldr	r3, [r7, #0]
 8006692:	3307      	adds	r3, #7
 8006694:	781b      	ldrb	r3, [r3, #0]
 8006696:	b29b      	uxth	r3, r3
 8006698:	021b      	lsls	r3, r3, #8
 800669a:	b29b      	uxth	r3, r3
 800669c:	18d3      	adds	r3, r2, r3
 800669e:	b29a      	uxth	r2, r3
 80066a0:	687b      	ldr	r3, [r7, #4]
 80066a2:	80da      	strh	r2, [r3, #6]

}
 80066a4:	46c0      	nop			; (mov r8, r8)
 80066a6:	46bd      	mov	sp, r7
 80066a8:	b002      	add	sp, #8
 80066aa:	bd80      	pop	{r7, pc}

080066ac <USBD_CtlError>:
* @retval None
*/

void USBD_CtlError(USBD_HandleTypeDef *pdev,
                   USBD_SetupReqTypedef *req)
{
 80066ac:	b580      	push	{r7, lr}
 80066ae:	b082      	sub	sp, #8
 80066b0:	af00      	add	r7, sp, #0
 80066b2:	6078      	str	r0, [r7, #4]
 80066b4:	6039      	str	r1, [r7, #0]
  USBD_LL_StallEP(pdev, 0x80U);
 80066b6:	687b      	ldr	r3, [r7, #4]
 80066b8:	2180      	movs	r1, #128	; 0x80
 80066ba:	0018      	movs	r0, r3
 80066bc:	f000 fc4b 	bl	8006f56 <USBD_LL_StallEP>
  USBD_LL_StallEP(pdev, 0U);
 80066c0:	687b      	ldr	r3, [r7, #4]
 80066c2:	2100      	movs	r1, #0
 80066c4:	0018      	movs	r0, r3
 80066c6:	f000 fc46 	bl	8006f56 <USBD_LL_StallEP>
}
 80066ca:	46c0      	nop			; (mov r8, r8)
 80066cc:	46bd      	mov	sp, r7
 80066ce:	b002      	add	sp, #8
 80066d0:	bd80      	pop	{r7, pc}

080066d2 <USBD_GetString>:
  * @param  unicode : Formatted string buffer (unicode)
  * @param  len : descriptor length
  * @retval None
  */
void USBD_GetString(uint8_t *desc, uint8_t *unicode, uint16_t *len)
{
 80066d2:	b590      	push	{r4, r7, lr}
 80066d4:	b087      	sub	sp, #28
 80066d6:	af00      	add	r7, sp, #0
 80066d8:	60f8      	str	r0, [r7, #12]
 80066da:	60b9      	str	r1, [r7, #8]
 80066dc:	607a      	str	r2, [r7, #4]
  uint8_t idx = 0U;
 80066de:	2417      	movs	r4, #23
 80066e0:	193b      	adds	r3, r7, r4
 80066e2:	2200      	movs	r2, #0
 80066e4:	701a      	strb	r2, [r3, #0]

  if (desc != NULL)
 80066e6:	68fb      	ldr	r3, [r7, #12]
 80066e8:	2b00      	cmp	r3, #0
 80066ea:	d03c      	beq.n	8006766 <USBD_GetString+0x94>
  {
    *len = (uint16_t)USBD_GetLen(desc) * 2U + 2U;
 80066ec:	68fb      	ldr	r3, [r7, #12]
 80066ee:	0018      	movs	r0, r3
 80066f0:	f000 f83d 	bl	800676e <USBD_GetLen>
 80066f4:	0003      	movs	r3, r0
 80066f6:	3301      	adds	r3, #1
 80066f8:	b29b      	uxth	r3, r3
 80066fa:	18db      	adds	r3, r3, r3
 80066fc:	b29a      	uxth	r2, r3
 80066fe:	687b      	ldr	r3, [r7, #4]
 8006700:	801a      	strh	r2, [r3, #0]
    unicode[idx++] = *(uint8_t *)(void *)len;
 8006702:	193b      	adds	r3, r7, r4
 8006704:	781b      	ldrb	r3, [r3, #0]
 8006706:	193a      	adds	r2, r7, r4
 8006708:	1c59      	adds	r1, r3, #1
 800670a:	7011      	strb	r1, [r2, #0]
 800670c:	001a      	movs	r2, r3
 800670e:	68bb      	ldr	r3, [r7, #8]
 8006710:	189b      	adds	r3, r3, r2
 8006712:	687a      	ldr	r2, [r7, #4]
 8006714:	7812      	ldrb	r2, [r2, #0]
 8006716:	701a      	strb	r2, [r3, #0]
    unicode[idx++] = USB_DESC_TYPE_STRING;
 8006718:	193b      	adds	r3, r7, r4
 800671a:	781b      	ldrb	r3, [r3, #0]
 800671c:	193a      	adds	r2, r7, r4
 800671e:	1c59      	adds	r1, r3, #1
 8006720:	7011      	strb	r1, [r2, #0]
 8006722:	001a      	movs	r2, r3
 8006724:	68bb      	ldr	r3, [r7, #8]
 8006726:	189b      	adds	r3, r3, r2
 8006728:	2203      	movs	r2, #3
 800672a:	701a      	strb	r2, [r3, #0]

    while (*desc != '\0')
 800672c:	e017      	b.n	800675e <USBD_GetString+0x8c>
    {
      unicode[idx++] = *desc++;
 800672e:	68fb      	ldr	r3, [r7, #12]
 8006730:	1c5a      	adds	r2, r3, #1
 8006732:	60fa      	str	r2, [r7, #12]
 8006734:	2417      	movs	r4, #23
 8006736:	193a      	adds	r2, r7, r4
 8006738:	7812      	ldrb	r2, [r2, #0]
 800673a:	1939      	adds	r1, r7, r4
 800673c:	1c50      	adds	r0, r2, #1
 800673e:	7008      	strb	r0, [r1, #0]
 8006740:	0011      	movs	r1, r2
 8006742:	68ba      	ldr	r2, [r7, #8]
 8006744:	1852      	adds	r2, r2, r1
 8006746:	781b      	ldrb	r3, [r3, #0]
 8006748:	7013      	strb	r3, [r2, #0]
      unicode[idx++] =  0U;
 800674a:	193b      	adds	r3, r7, r4
 800674c:	781b      	ldrb	r3, [r3, #0]
 800674e:	193a      	adds	r2, r7, r4
 8006750:	1c59      	adds	r1, r3, #1
 8006752:	7011      	strb	r1, [r2, #0]
 8006754:	001a      	movs	r2, r3
 8006756:	68bb      	ldr	r3, [r7, #8]
 8006758:	189b      	adds	r3, r3, r2
 800675a:	2200      	movs	r2, #0
 800675c:	701a      	strb	r2, [r3, #0]
    while (*desc != '\0')
 800675e:	68fb      	ldr	r3, [r7, #12]
 8006760:	781b      	ldrb	r3, [r3, #0]
 8006762:	2b00      	cmp	r3, #0
 8006764:	d1e3      	bne.n	800672e <USBD_GetString+0x5c>
    }
  }
}
 8006766:	46c0      	nop			; (mov r8, r8)
 8006768:	46bd      	mov	sp, r7
 800676a:	b007      	add	sp, #28
 800676c:	bd90      	pop	{r4, r7, pc}

0800676e <USBD_GetLen>:
  *         return the string length
   * @param  buf : pointer to the ascii string buffer
  * @retval string length
  */
static uint8_t USBD_GetLen(uint8_t *buf)
{
 800676e:	b580      	push	{r7, lr}
 8006770:	b084      	sub	sp, #16
 8006772:	af00      	add	r7, sp, #0
 8006774:	6078      	str	r0, [r7, #4]
  uint8_t  len = 0U;
 8006776:	230f      	movs	r3, #15
 8006778:	18fb      	adds	r3, r7, r3
 800677a:	2200      	movs	r2, #0
 800677c:	701a      	strb	r2, [r3, #0]

  while (*buf != '\0')
 800677e:	e008      	b.n	8006792 <USBD_GetLen+0x24>
  {
    len++;
 8006780:	210f      	movs	r1, #15
 8006782:	187b      	adds	r3, r7, r1
 8006784:	781a      	ldrb	r2, [r3, #0]
 8006786:	187b      	adds	r3, r7, r1
 8006788:	3201      	adds	r2, #1
 800678a:	701a      	strb	r2, [r3, #0]
    buf++;
 800678c:	687b      	ldr	r3, [r7, #4]
 800678e:	3301      	adds	r3, #1
 8006790:	607b      	str	r3, [r7, #4]
  while (*buf != '\0')
 8006792:	687b      	ldr	r3, [r7, #4]
 8006794:	781b      	ldrb	r3, [r3, #0]
 8006796:	2b00      	cmp	r3, #0
 8006798:	d1f2      	bne.n	8006780 <USBD_GetLen+0x12>
  }

  return len;
 800679a:	230f      	movs	r3, #15
 800679c:	18fb      	adds	r3, r7, r3
 800679e:	781b      	ldrb	r3, [r3, #0]
}
 80067a0:	0018      	movs	r0, r3
 80067a2:	46bd      	mov	sp, r7
 80067a4:	b004      	add	sp, #16
 80067a6:	bd80      	pop	{r7, pc}

080067a8 <USBD_CtlSendData>:
* @param  len: length of data to be sent
* @retval status
*/
USBD_StatusTypeDef USBD_CtlSendData(USBD_HandleTypeDef *pdev,
                                    uint8_t *pbuf, uint16_t len)
{
 80067a8:	b580      	push	{r7, lr}
 80067aa:	b084      	sub	sp, #16
 80067ac:	af00      	add	r7, sp, #0
 80067ae:	60f8      	str	r0, [r7, #12]
 80067b0:	60b9      	str	r1, [r7, #8]
 80067b2:	1dbb      	adds	r3, r7, #6
 80067b4:	801a      	strh	r2, [r3, #0]
  /* Set EP0 State */
  pdev->ep0_state = USBD_EP0_DATA_IN;
 80067b6:	68fa      	ldr	r2, [r7, #12]
 80067b8:	23a5      	movs	r3, #165	; 0xa5
 80067ba:	009b      	lsls	r3, r3, #2
 80067bc:	2102      	movs	r1, #2
 80067be:	50d1      	str	r1, [r2, r3]
  pdev->ep_in[0].total_length = len;
 80067c0:	1dbb      	adds	r3, r7, #6
 80067c2:	881a      	ldrh	r2, [r3, #0]
 80067c4:	68fb      	ldr	r3, [r7, #12]
 80067c6:	61da      	str	r2, [r3, #28]
  pdev->ep_in[0].rem_length   = len;
 80067c8:	1dbb      	adds	r3, r7, #6
 80067ca:	881a      	ldrh	r2, [r3, #0]
 80067cc:	68fb      	ldr	r3, [r7, #12]
 80067ce:	621a      	str	r2, [r3, #32]

  /* Start the transfer */
  USBD_LL_Transmit(pdev, 0x00U, pbuf, len);
 80067d0:	1dbb      	adds	r3, r7, #6
 80067d2:	881b      	ldrh	r3, [r3, #0]
 80067d4:	68ba      	ldr	r2, [r7, #8]
 80067d6:	68f8      	ldr	r0, [r7, #12]
 80067d8:	2100      	movs	r1, #0
 80067da:	f000 fc6e 	bl	80070ba <USBD_LL_Transmit>

  return USBD_OK;
 80067de:	2300      	movs	r3, #0
}
 80067e0:	0018      	movs	r0, r3
 80067e2:	46bd      	mov	sp, r7
 80067e4:	b004      	add	sp, #16
 80067e6:	bd80      	pop	{r7, pc}

080067e8 <USBD_CtlContinueSendData>:
* @param  len: length of data to be sent
* @retval status
*/
USBD_StatusTypeDef USBD_CtlContinueSendData(USBD_HandleTypeDef *pdev,
                                            uint8_t *pbuf, uint16_t len)
{
 80067e8:	b580      	push	{r7, lr}
 80067ea:	b084      	sub	sp, #16
 80067ec:	af00      	add	r7, sp, #0
 80067ee:	60f8      	str	r0, [r7, #12]
 80067f0:	60b9      	str	r1, [r7, #8]
 80067f2:	1dbb      	adds	r3, r7, #6
 80067f4:	801a      	strh	r2, [r3, #0]
  /* Start the next transfer */
  USBD_LL_Transmit(pdev, 0x00U, pbuf, len);
 80067f6:	1dbb      	adds	r3, r7, #6
 80067f8:	881b      	ldrh	r3, [r3, #0]
 80067fa:	68ba      	ldr	r2, [r7, #8]
 80067fc:	68f8      	ldr	r0, [r7, #12]
 80067fe:	2100      	movs	r1, #0
 8006800:	f000 fc5b 	bl	80070ba <USBD_LL_Transmit>

  return USBD_OK;
 8006804:	2300      	movs	r3, #0
}
 8006806:	0018      	movs	r0, r3
 8006808:	46bd      	mov	sp, r7
 800680a:	b004      	add	sp, #16
 800680c:	bd80      	pop	{r7, pc}

0800680e <USBD_CtlPrepareRx>:
* @param  len: length of data to be received
* @retval status
*/
USBD_StatusTypeDef USBD_CtlPrepareRx(USBD_HandleTypeDef *pdev,
                                     uint8_t *pbuf, uint16_t len)
{
 800680e:	b580      	push	{r7, lr}
 8006810:	b084      	sub	sp, #16
 8006812:	af00      	add	r7, sp, #0
 8006814:	60f8      	str	r0, [r7, #12]
 8006816:	60b9      	str	r1, [r7, #8]
 8006818:	1dbb      	adds	r3, r7, #6
 800681a:	801a      	strh	r2, [r3, #0]
  /* Set EP0 State */
  pdev->ep0_state = USBD_EP0_DATA_OUT;
 800681c:	68fa      	ldr	r2, [r7, #12]
 800681e:	23a5      	movs	r3, #165	; 0xa5
 8006820:	009b      	lsls	r3, r3, #2
 8006822:	2103      	movs	r1, #3
 8006824:	50d1      	str	r1, [r2, r3]
  pdev->ep_out[0].total_length = len;
 8006826:	1dbb      	adds	r3, r7, #6
 8006828:	8819      	ldrh	r1, [r3, #0]
 800682a:	68fa      	ldr	r2, [r7, #12]
 800682c:	23ae      	movs	r3, #174	; 0xae
 800682e:	005b      	lsls	r3, r3, #1
 8006830:	50d1      	str	r1, [r2, r3]
  pdev->ep_out[0].rem_length   = len;
 8006832:	1dbb      	adds	r3, r7, #6
 8006834:	8819      	ldrh	r1, [r3, #0]
 8006836:	68fa      	ldr	r2, [r7, #12]
 8006838:	23b0      	movs	r3, #176	; 0xb0
 800683a:	005b      	lsls	r3, r3, #1
 800683c:	50d1      	str	r1, [r2, r3]

  /* Start the transfer */
  USBD_LL_PrepareReceive(pdev, 0U, pbuf, len);
 800683e:	1dbb      	adds	r3, r7, #6
 8006840:	881b      	ldrh	r3, [r3, #0]
 8006842:	68ba      	ldr	r2, [r7, #8]
 8006844:	68f8      	ldr	r0, [r7, #12]
 8006846:	2100      	movs	r1, #0
 8006848:	f000 fc6e 	bl	8007128 <USBD_LL_PrepareReceive>

  return USBD_OK;
 800684c:	2300      	movs	r3, #0
}
 800684e:	0018      	movs	r0, r3
 8006850:	46bd      	mov	sp, r7
 8006852:	b004      	add	sp, #16
 8006854:	bd80      	pop	{r7, pc}

08006856 <USBD_CtlContinueRx>:
* @param  len: length of data to be received
* @retval status
*/
USBD_StatusTypeDef USBD_CtlContinueRx(USBD_HandleTypeDef *pdev,
                                      uint8_t *pbuf, uint16_t len)
{
 8006856:	b580      	push	{r7, lr}
 8006858:	b084      	sub	sp, #16
 800685a:	af00      	add	r7, sp, #0
 800685c:	60f8      	str	r0, [r7, #12]
 800685e:	60b9      	str	r1, [r7, #8]
 8006860:	1dbb      	adds	r3, r7, #6
 8006862:	801a      	strh	r2, [r3, #0]
  USBD_LL_PrepareReceive(pdev, 0U, pbuf, len);
 8006864:	1dbb      	adds	r3, r7, #6
 8006866:	881b      	ldrh	r3, [r3, #0]
 8006868:	68ba      	ldr	r2, [r7, #8]
 800686a:	68f8      	ldr	r0, [r7, #12]
 800686c:	2100      	movs	r1, #0
 800686e:	f000 fc5b 	bl	8007128 <USBD_LL_PrepareReceive>

  return USBD_OK;
 8006872:	2300      	movs	r3, #0
}
 8006874:	0018      	movs	r0, r3
 8006876:	46bd      	mov	sp, r7
 8006878:	b004      	add	sp, #16
 800687a:	bd80      	pop	{r7, pc}

0800687c <USBD_CtlSendStatus>:
*         send zero lzngth packet on the ctl pipe
* @param  pdev: device instance
* @retval status
*/
USBD_StatusTypeDef USBD_CtlSendStatus(USBD_HandleTypeDef *pdev)
{
 800687c:	b580      	push	{r7, lr}
 800687e:	b082      	sub	sp, #8
 8006880:	af00      	add	r7, sp, #0
 8006882:	6078      	str	r0, [r7, #4]
  /* Set EP0 State */
  pdev->ep0_state = USBD_EP0_STATUS_IN;
 8006884:	687a      	ldr	r2, [r7, #4]
 8006886:	23a5      	movs	r3, #165	; 0xa5
 8006888:	009b      	lsls	r3, r3, #2
 800688a:	2104      	movs	r1, #4
 800688c:	50d1      	str	r1, [r2, r3]

  /* Start the transfer */
  USBD_LL_Transmit(pdev, 0x00U, NULL, 0U);
 800688e:	6878      	ldr	r0, [r7, #4]
 8006890:	2300      	movs	r3, #0
 8006892:	2200      	movs	r2, #0
 8006894:	2100      	movs	r1, #0
 8006896:	f000 fc10 	bl	80070ba <USBD_LL_Transmit>

  return USBD_OK;
 800689a:	2300      	movs	r3, #0
}
 800689c:	0018      	movs	r0, r3
 800689e:	46bd      	mov	sp, r7
 80068a0:	b002      	add	sp, #8
 80068a2:	bd80      	pop	{r7, pc}

080068a4 <USBD_CtlReceiveStatus>:
*         receive zero lzngth packet on the ctl pipe
* @param  pdev: device instance
* @retval status
*/
USBD_StatusTypeDef USBD_CtlReceiveStatus(USBD_HandleTypeDef *pdev)
{
 80068a4:	b580      	push	{r7, lr}
 80068a6:	b082      	sub	sp, #8
 80068a8:	af00      	add	r7, sp, #0
 80068aa:	6078      	str	r0, [r7, #4]
  /* Set EP0 State */
  pdev->ep0_state = USBD_EP0_STATUS_OUT;
 80068ac:	687a      	ldr	r2, [r7, #4]
 80068ae:	23a5      	movs	r3, #165	; 0xa5
 80068b0:	009b      	lsls	r3, r3, #2
 80068b2:	2105      	movs	r1, #5
 80068b4:	50d1      	str	r1, [r2, r3]

  /* Start the transfer */
  USBD_LL_PrepareReceive(pdev, 0U, NULL, 0U);
 80068b6:	6878      	ldr	r0, [r7, #4]
 80068b8:	2300      	movs	r3, #0
 80068ba:	2200      	movs	r2, #0
 80068bc:	2100      	movs	r1, #0
 80068be:	f000 fc33 	bl	8007128 <USBD_LL_PrepareReceive>

  return USBD_OK;
 80068c2:	2300      	movs	r3, #0
}
 80068c4:	0018      	movs	r0, r3
 80068c6:	46bd      	mov	sp, r7
 80068c8:	b002      	add	sp, #8
 80068ca:	bd80      	pop	{r7, pc}

080068cc <MX_USB_DEVICE_Init>:
/**
  * Init USB device Library, add supported class and start the library
  * @retval None
  */
void MX_USB_DEVICE_Init(void)
{
 80068cc:	b580      	push	{r7, lr}
 80068ce:	af00      	add	r7, sp, #0
  /* USER CODE BEGIN USB_DEVICE_Init_PreTreatment */

  /* USER CODE END USB_DEVICE_Init_PreTreatment */

  /* Init Device Library, add supported class and start the library. */
  if (USBD_Init(&hUsbDeviceFS, &FS_Desc, DEVICE_FS) != USBD_OK)
 80068d0:	4914      	ldr	r1, [pc, #80]	; (8006924 <MX_USB_DEVICE_Init+0x58>)
 80068d2:	4b15      	ldr	r3, [pc, #84]	; (8006928 <MX_USB_DEVICE_Init+0x5c>)
 80068d4:	2200      	movs	r2, #0
 80068d6:	0018      	movs	r0, r3
 80068d8:	f7fe fde9 	bl	80054ae <USBD_Init>
 80068dc:	1e03      	subs	r3, r0, #0
 80068de:	d001      	beq.n	80068e4 <MX_USB_DEVICE_Init+0x18>
  {
    Error_Handler();
 80068e0:	f7f9 fd18 	bl	8000314 <Error_Handler>
  }
  if (USBD_RegisterClass(&hUsbDeviceFS, &USBD_CUSTOM_HID) != USBD_OK)
 80068e4:	4a11      	ldr	r2, [pc, #68]	; (800692c <MX_USB_DEVICE_Init+0x60>)
 80068e6:	4b10      	ldr	r3, [pc, #64]	; (8006928 <MX_USB_DEVICE_Init+0x5c>)
 80068e8:	0011      	movs	r1, r2
 80068ea:	0018      	movs	r0, r3
 80068ec:	f7fe fe10 	bl	8005510 <USBD_RegisterClass>
 80068f0:	1e03      	subs	r3, r0, #0
 80068f2:	d001      	beq.n	80068f8 <MX_USB_DEVICE_Init+0x2c>
  {
    Error_Handler();
 80068f4:	f7f9 fd0e 	bl	8000314 <Error_Handler>
  }
  if (USBD_CUSTOM_HID_RegisterInterface(&hUsbDeviceFS, &USBD_CustomHID_fops_FS) != USBD_OK)
 80068f8:	4a0d      	ldr	r2, [pc, #52]	; (8006930 <MX_USB_DEVICE_Init+0x64>)
 80068fa:	4b0b      	ldr	r3, [pc, #44]	; (8006928 <MX_USB_DEVICE_Init+0x5c>)
 80068fc:	0011      	movs	r1, r2
 80068fe:	0018      	movs	r0, r3
 8006900:	f7fe fdba 	bl	8005478 <USBD_CUSTOM_HID_RegisterInterface>
 8006904:	1e03      	subs	r3, r0, #0
 8006906:	d001      	beq.n	800690c <MX_USB_DEVICE_Init+0x40>
  {
    Error_Handler();
 8006908:	f7f9 fd04 	bl	8000314 <Error_Handler>
  }
  if (USBD_Start(&hUsbDeviceFS) != USBD_OK)
 800690c:	4b06      	ldr	r3, [pc, #24]	; (8006928 <MX_USB_DEVICE_Init+0x5c>)
 800690e:	0018      	movs	r0, r3
 8006910:	f7fe fe1e 	bl	8005550 <USBD_Start>
 8006914:	1e03      	subs	r3, r0, #0
 8006916:	d001      	beq.n	800691c <MX_USB_DEVICE_Init+0x50>
  {
    Error_Handler();
 8006918:	f7f9 fcfc 	bl	8000314 <Error_Handler>
  }

  /* USER CODE BEGIN USB_DEVICE_Init_PostTreatment */

  /* USER CODE END USB_DEVICE_Init_PostTreatment */
}
 800691c:	46c0      	nop			; (mov r8, r8)
 800691e:	46bd      	mov	sp, r7
 8006920:	bd80      	pop	{r7, pc}
 8006922:	46c0      	nop			; (mov r8, r8)
 8006924:	200000f4 	.word	0x200000f4
 8006928:	20000168 	.word	0x20000168
 800692c:	2000000c 	.word	0x2000000c
 8006930:	200000e4 	.word	0x200000e4

08006934 <CUSTOM_HID_Init_FS>:
/**
  * @brief  Initializes the CUSTOM HID media low layer
  * @retval USBD_OK if all operations are OK else USBD_FAIL
  */
static int8_t CUSTOM_HID_Init_FS(void)
{
 8006934:	b580      	push	{r7, lr}
 8006936:	af00      	add	r7, sp, #0
  /* USER CODE BEGIN 4 */
  return (USBD_OK);
 8006938:	2300      	movs	r3, #0
  /* USER CODE END 4 */
}
 800693a:	0018      	movs	r0, r3
 800693c:	46bd      	mov	sp, r7
 800693e:	bd80      	pop	{r7, pc}

08006940 <CUSTOM_HID_DeInit_FS>:
/**
  * @brief  DeInitializes the CUSTOM HID media low layer
  * @retval USBD_OK if all operations are OK else USBD_FAIL
  */
static int8_t CUSTOM_HID_DeInit_FS(void)
{
 8006940:	b580      	push	{r7, lr}
 8006942:	af00      	add	r7, sp, #0
  /* USER CODE BEGIN 5 */
  return (USBD_OK);
 8006944:	2300      	movs	r3, #0
  /* USER CODE END 5 */
}
 8006946:	0018      	movs	r0, r3
 8006948:	46bd      	mov	sp, r7
 800694a:	bd80      	pop	{r7, pc}

0800694c <CUSTOM_HID_OutEvent_FS>:
  * @param  event_idx: Event index
  * @param  state: Event state
  * @retval USBD_OK if all operations are OK else USBD_FAIL
  */
static int8_t CUSTOM_HID_OutEvent_FS(uint8_t event_idx, uint8_t state)
{
 800694c:	b580      	push	{r7, lr}
 800694e:	b082      	sub	sp, #8
 8006950:	af00      	add	r7, sp, #0
 8006952:	0002      	movs	r2, r0
 8006954:	1dfb      	adds	r3, r7, #7
 8006956:	701a      	strb	r2, [r3, #0]
 8006958:	1dbb      	adds	r3, r7, #6
 800695a:	1c0a      	adds	r2, r1, #0
 800695c:	701a      	strb	r2, [r3, #0]
  /* USER CODE BEGIN 6 */
  return (USBD_OK);
 800695e:	2300      	movs	r3, #0
  /* USER CODE END 6 */
}
 8006960:	0018      	movs	r0, r3
 8006962:	46bd      	mov	sp, r7
 8006964:	b002      	add	sp, #8
 8006966:	bd80      	pop	{r7, pc}

08006968 <USBD_FS_DeviceDescriptor>:
  * @param  speed : Current device speed
  * @param  length : Pointer to data length variable
  * @retval Pointer to descriptor buffer
  */
uint8_t * USBD_FS_DeviceDescriptor(USBD_SpeedTypeDef speed, uint16_t *length)
{
 8006968:	b580      	push	{r7, lr}
 800696a:	b082      	sub	sp, #8
 800696c:	af00      	add	r7, sp, #0
 800696e:	0002      	movs	r2, r0
 8006970:	6039      	str	r1, [r7, #0]
 8006972:	1dfb      	adds	r3, r7, #7
 8006974:	701a      	strb	r2, [r3, #0]
  UNUSED(speed);
  *length = sizeof(USBD_FS_DeviceDesc);
 8006976:	683b      	ldr	r3, [r7, #0]
 8006978:	2212      	movs	r2, #18
 800697a:	801a      	strh	r2, [r3, #0]
  return USBD_FS_DeviceDesc;
 800697c:	4b02      	ldr	r3, [pc, #8]	; (8006988 <USBD_FS_DeviceDescriptor+0x20>)
}
 800697e:	0018      	movs	r0, r3
 8006980:	46bd      	mov	sp, r7
 8006982:	b002      	add	sp, #8
 8006984:	bd80      	pop	{r7, pc}
 8006986:	46c0      	nop			; (mov r8, r8)
 8006988:	20000110 	.word	0x20000110

0800698c <USBD_FS_LangIDStrDescriptor>:
  * @param  speed : Current device speed
  * @param  length : Pointer to data length variable
  * @retval Pointer to descriptor buffer
  */
uint8_t * USBD_FS_LangIDStrDescriptor(USBD_SpeedTypeDef speed, uint16_t *length)
{
 800698c:	b580      	push	{r7, lr}
 800698e:	b082      	sub	sp, #8
 8006990:	af00      	add	r7, sp, #0
 8006992:	0002      	movs	r2, r0
 8006994:	6039      	str	r1, [r7, #0]
 8006996:	1dfb      	adds	r3, r7, #7
 8006998:	701a      	strb	r2, [r3, #0]
  UNUSED(speed);
  *length = sizeof(USBD_LangIDDesc);
 800699a:	683b      	ldr	r3, [r7, #0]
 800699c:	2204      	movs	r2, #4
 800699e:	801a      	strh	r2, [r3, #0]
  return USBD_LangIDDesc;
 80069a0:	4b02      	ldr	r3, [pc, #8]	; (80069ac <USBD_FS_LangIDStrDescriptor+0x20>)
}
 80069a2:	0018      	movs	r0, r3
 80069a4:	46bd      	mov	sp, r7
 80069a6:	b002      	add	sp, #8
 80069a8:	bd80      	pop	{r7, pc}
 80069aa:	46c0      	nop			; (mov r8, r8)
 80069ac:	20000124 	.word	0x20000124

080069b0 <USBD_FS_ProductStrDescriptor>:
  * @param  speed : Current device speed
  * @param  length : Pointer to data length variable
  * @retval Pointer to descriptor buffer
  */
uint8_t * USBD_FS_ProductStrDescriptor(USBD_SpeedTypeDef speed, uint16_t *length)
{
 80069b0:	b580      	push	{r7, lr}
 80069b2:	b082      	sub	sp, #8
 80069b4:	af00      	add	r7, sp, #0
 80069b6:	0002      	movs	r2, r0
 80069b8:	6039      	str	r1, [r7, #0]
 80069ba:	1dfb      	adds	r3, r7, #7
 80069bc:	701a      	strb	r2, [r3, #0]
  if(speed == 0)
 80069be:	1dfb      	adds	r3, r7, #7
 80069c0:	781b      	ldrb	r3, [r3, #0]
 80069c2:	2b00      	cmp	r3, #0
 80069c4:	d106      	bne.n	80069d4 <USBD_FS_ProductStrDescriptor+0x24>
  {
    USBD_GetString((uint8_t *)USBD_PRODUCT_STRING_FS, USBD_StrDesc, length);
 80069c6:	683a      	ldr	r2, [r7, #0]
 80069c8:	4908      	ldr	r1, [pc, #32]	; (80069ec <USBD_FS_ProductStrDescriptor+0x3c>)
 80069ca:	4b09      	ldr	r3, [pc, #36]	; (80069f0 <USBD_FS_ProductStrDescriptor+0x40>)
 80069cc:	0018      	movs	r0, r3
 80069ce:	f7ff fe80 	bl	80066d2 <USBD_GetString>
 80069d2:	e005      	b.n	80069e0 <USBD_FS_ProductStrDescriptor+0x30>
  }
  else
  {
    USBD_GetString((uint8_t *)USBD_PRODUCT_STRING_FS, USBD_StrDesc, length);
 80069d4:	683a      	ldr	r2, [r7, #0]
 80069d6:	4905      	ldr	r1, [pc, #20]	; (80069ec <USBD_FS_ProductStrDescriptor+0x3c>)
 80069d8:	4b05      	ldr	r3, [pc, #20]	; (80069f0 <USBD_FS_ProductStrDescriptor+0x40>)
 80069da:	0018      	movs	r0, r3
 80069dc:	f7ff fe79 	bl	80066d2 <USBD_GetString>
  }
  return USBD_StrDesc;
 80069e0:	4b02      	ldr	r3, [pc, #8]	; (80069ec <USBD_FS_ProductStrDescriptor+0x3c>)
}
 80069e2:	0018      	movs	r0, r3
 80069e4:	46bd      	mov	sp, r7
 80069e6:	b002      	add	sp, #8
 80069e8:	bd80      	pop	{r7, pc}
 80069ea:	46c0      	nop			; (mov r8, r8)
 80069ec:	2000042c 	.word	0x2000042c
 80069f0:	080072ac 	.word	0x080072ac

080069f4 <USBD_FS_ManufacturerStrDescriptor>:
  * @param  speed : Current device speed
  * @param  length : Pointer to data length variable
  * @retval Pointer to descriptor buffer
  */
uint8_t * USBD_FS_ManufacturerStrDescriptor(USBD_SpeedTypeDef speed, uint16_t *length)
{
 80069f4:	b580      	push	{r7, lr}
 80069f6:	b082      	sub	sp, #8
 80069f8:	af00      	add	r7, sp, #0
 80069fa:	0002      	movs	r2, r0
 80069fc:	6039      	str	r1, [r7, #0]
 80069fe:	1dfb      	adds	r3, r7, #7
 8006a00:	701a      	strb	r2, [r3, #0]
  UNUSED(speed);
  USBD_GetString((uint8_t *)USBD_MANUFACTURER_STRING, USBD_StrDesc, length);
 8006a02:	683a      	ldr	r2, [r7, #0]
 8006a04:	4904      	ldr	r1, [pc, #16]	; (8006a18 <USBD_FS_ManufacturerStrDescriptor+0x24>)
 8006a06:	4b05      	ldr	r3, [pc, #20]	; (8006a1c <USBD_FS_ManufacturerStrDescriptor+0x28>)
 8006a08:	0018      	movs	r0, r3
 8006a0a:	f7ff fe62 	bl	80066d2 <USBD_GetString>
  return USBD_StrDesc;
 8006a0e:	4b02      	ldr	r3, [pc, #8]	; (8006a18 <USBD_FS_ManufacturerStrDescriptor+0x24>)
}
 8006a10:	0018      	movs	r0, r3
 8006a12:	46bd      	mov	sp, r7
 8006a14:	b002      	add	sp, #8
 8006a16:	bd80      	pop	{r7, pc}
 8006a18:	2000042c 	.word	0x2000042c
 8006a1c:	080072cc 	.word	0x080072cc

08006a20 <USBD_FS_SerialStrDescriptor>:
  * @param  speed : Current device speed
  * @param  length : Pointer to data length variable
  * @retval Pointer to descriptor buffer
  */
uint8_t * USBD_FS_SerialStrDescriptor(USBD_SpeedTypeDef speed, uint16_t *length)
{
 8006a20:	b580      	push	{r7, lr}
 8006a22:	b082      	sub	sp, #8
 8006a24:	af00      	add	r7, sp, #0
 8006a26:	0002      	movs	r2, r0
 8006a28:	6039      	str	r1, [r7, #0]
 8006a2a:	1dfb      	adds	r3, r7, #7
 8006a2c:	701a      	strb	r2, [r3, #0]
  UNUSED(speed);
  *length = USB_SIZ_STRING_SERIAL;
 8006a2e:	683b      	ldr	r3, [r7, #0]
 8006a30:	221a      	movs	r2, #26
 8006a32:	801a      	strh	r2, [r3, #0]

  /* Update the serial number string descriptor with the data from the unique
   * ID */
  Get_SerialNum();
 8006a34:	f000 f84c 	bl	8006ad0 <Get_SerialNum>
  /* USER CODE BEGIN USBD_FS_SerialStrDescriptor */

  /* USER CODE END USBD_FS_SerialStrDescriptor */
  return (uint8_t *) USBD_StringSerial;
 8006a38:	4b02      	ldr	r3, [pc, #8]	; (8006a44 <USBD_FS_SerialStrDescriptor+0x24>)
}
 8006a3a:	0018      	movs	r0, r3
 8006a3c:	46bd      	mov	sp, r7
 8006a3e:	b002      	add	sp, #8
 8006a40:	bd80      	pop	{r7, pc}
 8006a42:	46c0      	nop			; (mov r8, r8)
 8006a44:	20000128 	.word	0x20000128

08006a48 <USBD_FS_ConfigStrDescriptor>:
  * @param  speed : Current device speed
  * @param  length : Pointer to data length variable
  * @retval Pointer to descriptor buffer
  */
uint8_t * USBD_FS_ConfigStrDescriptor(USBD_SpeedTypeDef speed, uint16_t *length)
{
 8006a48:	b580      	push	{r7, lr}
 8006a4a:	b082      	sub	sp, #8
 8006a4c:	af00      	add	r7, sp, #0
 8006a4e:	0002      	movs	r2, r0
 8006a50:	6039      	str	r1, [r7, #0]
 8006a52:	1dfb      	adds	r3, r7, #7
 8006a54:	701a      	strb	r2, [r3, #0]
  if(speed == USBD_SPEED_HIGH)
 8006a56:	1dfb      	adds	r3, r7, #7
 8006a58:	781b      	ldrb	r3, [r3, #0]
 8006a5a:	2b00      	cmp	r3, #0
 8006a5c:	d106      	bne.n	8006a6c <USBD_FS_ConfigStrDescriptor+0x24>
  {
    USBD_GetString((uint8_t *)USBD_CONFIGURATION_STRING_FS, USBD_StrDesc, length);
 8006a5e:	683a      	ldr	r2, [r7, #0]
 8006a60:	4908      	ldr	r1, [pc, #32]	; (8006a84 <USBD_FS_ConfigStrDescriptor+0x3c>)
 8006a62:	4b09      	ldr	r3, [pc, #36]	; (8006a88 <USBD_FS_ConfigStrDescriptor+0x40>)
 8006a64:	0018      	movs	r0, r3
 8006a66:	f7ff fe34 	bl	80066d2 <USBD_GetString>
 8006a6a:	e005      	b.n	8006a78 <USBD_FS_ConfigStrDescriptor+0x30>
  }
  else
  {
    USBD_GetString((uint8_t *)USBD_CONFIGURATION_STRING_FS, USBD_StrDesc, length);
 8006a6c:	683a      	ldr	r2, [r7, #0]
 8006a6e:	4905      	ldr	r1, [pc, #20]	; (8006a84 <USBD_FS_ConfigStrDescriptor+0x3c>)
 8006a70:	4b05      	ldr	r3, [pc, #20]	; (8006a88 <USBD_FS_ConfigStrDescriptor+0x40>)
 8006a72:	0018      	movs	r0, r3
 8006a74:	f7ff fe2d 	bl	80066d2 <USBD_GetString>
  }
  return USBD_StrDesc;
 8006a78:	4b02      	ldr	r3, [pc, #8]	; (8006a84 <USBD_FS_ConfigStrDescriptor+0x3c>)
}
 8006a7a:	0018      	movs	r0, r3
 8006a7c:	46bd      	mov	sp, r7
 8006a7e:	b002      	add	sp, #8
 8006a80:	bd80      	pop	{r7, pc}
 8006a82:	46c0      	nop			; (mov r8, r8)
 8006a84:	2000042c 	.word	0x2000042c
 8006a88:	080072e0 	.word	0x080072e0

08006a8c <USBD_FS_InterfaceStrDescriptor>:
  * @param  speed : Current device speed
  * @param  length : Pointer to data length variable
  * @retval Pointer to descriptor buffer
  */
uint8_t * USBD_FS_InterfaceStrDescriptor(USBD_SpeedTypeDef speed, uint16_t *length)
{
 8006a8c:	b580      	push	{r7, lr}
 8006a8e:	b082      	sub	sp, #8
 8006a90:	af00      	add	r7, sp, #0
 8006a92:	0002      	movs	r2, r0
 8006a94:	6039      	str	r1, [r7, #0]
 8006a96:	1dfb      	adds	r3, r7, #7
 8006a98:	701a      	strb	r2, [r3, #0]
  if(speed == 0)
 8006a9a:	1dfb      	adds	r3, r7, #7
 8006a9c:	781b      	ldrb	r3, [r3, #0]
 8006a9e:	2b00      	cmp	r3, #0
 8006aa0:	d106      	bne.n	8006ab0 <USBD_FS_InterfaceStrDescriptor+0x24>
  {
    USBD_GetString((uint8_t *)USBD_INTERFACE_STRING_FS, USBD_StrDesc, length);
 8006aa2:	683a      	ldr	r2, [r7, #0]
 8006aa4:	4908      	ldr	r1, [pc, #32]	; (8006ac8 <USBD_FS_InterfaceStrDescriptor+0x3c>)
 8006aa6:	4b09      	ldr	r3, [pc, #36]	; (8006acc <USBD_FS_InterfaceStrDescriptor+0x40>)
 8006aa8:	0018      	movs	r0, r3
 8006aaa:	f7ff fe12 	bl	80066d2 <USBD_GetString>
 8006aae:	e005      	b.n	8006abc <USBD_FS_InterfaceStrDescriptor+0x30>
  }
  else
  {
    USBD_GetString((uint8_t *)USBD_INTERFACE_STRING_FS, USBD_StrDesc, length);
 8006ab0:	683a      	ldr	r2, [r7, #0]
 8006ab2:	4905      	ldr	r1, [pc, #20]	; (8006ac8 <USBD_FS_InterfaceStrDescriptor+0x3c>)
 8006ab4:	4b05      	ldr	r3, [pc, #20]	; (8006acc <USBD_FS_InterfaceStrDescriptor+0x40>)
 8006ab6:	0018      	movs	r0, r3
 8006ab8:	f7ff fe0b 	bl	80066d2 <USBD_GetString>
  }
  return USBD_StrDesc;
 8006abc:	4b02      	ldr	r3, [pc, #8]	; (8006ac8 <USBD_FS_InterfaceStrDescriptor+0x3c>)
}
 8006abe:	0018      	movs	r0, r3
 8006ac0:	46bd      	mov	sp, r7
 8006ac2:	b002      	add	sp, #8
 8006ac4:	bd80      	pop	{r7, pc}
 8006ac6:	46c0      	nop			; (mov r8, r8)
 8006ac8:	2000042c 	.word	0x2000042c
 8006acc:	080072f4 	.word	0x080072f4

08006ad0 <Get_SerialNum>:
  * @brief  Create the serial number string descriptor
  * @param  None
  * @retval None
  */
static void Get_SerialNum(void)
{
 8006ad0:	b580      	push	{r7, lr}
 8006ad2:	b084      	sub	sp, #16
 8006ad4:	af00      	add	r7, sp, #0
  uint32_t deviceserial0;
  uint32_t deviceserial1;
  uint32_t deviceserial2;

  deviceserial0 = *(uint32_t *) DEVICE_ID1;
 8006ad6:	4b10      	ldr	r3, [pc, #64]	; (8006b18 <Get_SerialNum+0x48>)
 8006ad8:	681b      	ldr	r3, [r3, #0]
 8006ada:	60fb      	str	r3, [r7, #12]
  deviceserial1 = *(uint32_t *) DEVICE_ID2;
 8006adc:	4b0f      	ldr	r3, [pc, #60]	; (8006b1c <Get_SerialNum+0x4c>)
 8006ade:	681b      	ldr	r3, [r3, #0]
 8006ae0:	60bb      	str	r3, [r7, #8]
  deviceserial2 = *(uint32_t *) DEVICE_ID3;
 8006ae2:	4b0f      	ldr	r3, [pc, #60]	; (8006b20 <Get_SerialNum+0x50>)
 8006ae4:	681b      	ldr	r3, [r3, #0]
 8006ae6:	607b      	str	r3, [r7, #4]

  deviceserial0 += deviceserial2;
 8006ae8:	68fa      	ldr	r2, [r7, #12]
 8006aea:	687b      	ldr	r3, [r7, #4]
 8006aec:	18d3      	adds	r3, r2, r3
 8006aee:	60fb      	str	r3, [r7, #12]

  if (deviceserial0 != 0)
 8006af0:	68fb      	ldr	r3, [r7, #12]
 8006af2:	2b00      	cmp	r3, #0
 8006af4:	d00b      	beq.n	8006b0e <Get_SerialNum+0x3e>
  {
    IntToUnicode(deviceserial0, &USBD_StringSerial[2], 8);
 8006af6:	490b      	ldr	r1, [pc, #44]	; (8006b24 <Get_SerialNum+0x54>)
 8006af8:	68fb      	ldr	r3, [r7, #12]
 8006afa:	2208      	movs	r2, #8
 8006afc:	0018      	movs	r0, r3
 8006afe:	f000 f815 	bl	8006b2c <IntToUnicode>
    IntToUnicode(deviceserial1, &USBD_StringSerial[18], 4);
 8006b02:	4909      	ldr	r1, [pc, #36]	; (8006b28 <Get_SerialNum+0x58>)
 8006b04:	68bb      	ldr	r3, [r7, #8]
 8006b06:	2204      	movs	r2, #4
 8006b08:	0018      	movs	r0, r3
 8006b0a:	f000 f80f 	bl	8006b2c <IntToUnicode>
  }
}
 8006b0e:	46c0      	nop			; (mov r8, r8)
 8006b10:	46bd      	mov	sp, r7
 8006b12:	b004      	add	sp, #16
 8006b14:	bd80      	pop	{r7, pc}
 8006b16:	46c0      	nop			; (mov r8, r8)
 8006b18:	1ffff7ac 	.word	0x1ffff7ac
 8006b1c:	1ffff7b0 	.word	0x1ffff7b0
 8006b20:	1ffff7b4 	.word	0x1ffff7b4
 8006b24:	2000012a 	.word	0x2000012a
 8006b28:	2000013a 	.word	0x2000013a

08006b2c <IntToUnicode>:
  * @param  pbuf: pointer to the buffer
  * @param  len: buffer length
  * @retval None
  */
static void IntToUnicode(uint32_t value, uint8_t * pbuf, uint8_t len)
{
 8006b2c:	b580      	push	{r7, lr}
 8006b2e:	b086      	sub	sp, #24
 8006b30:	af00      	add	r7, sp, #0
 8006b32:	60f8      	str	r0, [r7, #12]
 8006b34:	60b9      	str	r1, [r7, #8]
 8006b36:	1dfb      	adds	r3, r7, #7
 8006b38:	701a      	strb	r2, [r3, #0]
  uint8_t idx = 0;
 8006b3a:	2117      	movs	r1, #23
 8006b3c:	187b      	adds	r3, r7, r1
 8006b3e:	2200      	movs	r2, #0
 8006b40:	701a      	strb	r2, [r3, #0]

  for (idx = 0; idx < len; idx++)
 8006b42:	187b      	adds	r3, r7, r1
 8006b44:	2200      	movs	r2, #0
 8006b46:	701a      	strb	r2, [r3, #0]
 8006b48:	e02f      	b.n	8006baa <IntToUnicode+0x7e>
  {
    if (((value >> 28)) < 0xA)
 8006b4a:	68fb      	ldr	r3, [r7, #12]
 8006b4c:	0f1b      	lsrs	r3, r3, #28
 8006b4e:	2b09      	cmp	r3, #9
 8006b50:	d80d      	bhi.n	8006b6e <IntToUnicode+0x42>
    {
      pbuf[2 * idx] = (value >> 28) + '0';
 8006b52:	68fb      	ldr	r3, [r7, #12]
 8006b54:	0f1b      	lsrs	r3, r3, #28
 8006b56:	b2da      	uxtb	r2, r3
 8006b58:	2317      	movs	r3, #23
 8006b5a:	18fb      	adds	r3, r7, r3
 8006b5c:	781b      	ldrb	r3, [r3, #0]
 8006b5e:	005b      	lsls	r3, r3, #1
 8006b60:	0019      	movs	r1, r3
 8006b62:	68bb      	ldr	r3, [r7, #8]
 8006b64:	185b      	adds	r3, r3, r1
 8006b66:	3230      	adds	r2, #48	; 0x30
 8006b68:	b2d2      	uxtb	r2, r2
 8006b6a:	701a      	strb	r2, [r3, #0]
 8006b6c:	e00c      	b.n	8006b88 <IntToUnicode+0x5c>
    }
    else
    {
      pbuf[2 * idx] = (value >> 28) + 'A' - 10;
 8006b6e:	68fb      	ldr	r3, [r7, #12]
 8006b70:	0f1b      	lsrs	r3, r3, #28
 8006b72:	b2da      	uxtb	r2, r3
 8006b74:	2317      	movs	r3, #23
 8006b76:	18fb      	adds	r3, r7, r3
 8006b78:	781b      	ldrb	r3, [r3, #0]
 8006b7a:	005b      	lsls	r3, r3, #1
 8006b7c:	0019      	movs	r1, r3
 8006b7e:	68bb      	ldr	r3, [r7, #8]
 8006b80:	185b      	adds	r3, r3, r1
 8006b82:	3237      	adds	r2, #55	; 0x37
 8006b84:	b2d2      	uxtb	r2, r2
 8006b86:	701a      	strb	r2, [r3, #0]
    }

    value = value << 4;
 8006b88:	68fb      	ldr	r3, [r7, #12]
 8006b8a:	011b      	lsls	r3, r3, #4
 8006b8c:	60fb      	str	r3, [r7, #12]

    pbuf[2 * idx + 1] = 0;
 8006b8e:	2117      	movs	r1, #23
 8006b90:	187b      	adds	r3, r7, r1
 8006b92:	781b      	ldrb	r3, [r3, #0]
 8006b94:	005b      	lsls	r3, r3, #1
 8006b96:	3301      	adds	r3, #1
 8006b98:	68ba      	ldr	r2, [r7, #8]
 8006b9a:	18d3      	adds	r3, r2, r3
 8006b9c:	2200      	movs	r2, #0
 8006b9e:	701a      	strb	r2, [r3, #0]
  for (idx = 0; idx < len; idx++)
 8006ba0:	187b      	adds	r3, r7, r1
 8006ba2:	781a      	ldrb	r2, [r3, #0]
 8006ba4:	187b      	adds	r3, r7, r1
 8006ba6:	3201      	adds	r2, #1
 8006ba8:	701a      	strb	r2, [r3, #0]
 8006baa:	2317      	movs	r3, #23
 8006bac:	18fa      	adds	r2, r7, r3
 8006bae:	1dfb      	adds	r3, r7, #7
 8006bb0:	7812      	ldrb	r2, [r2, #0]
 8006bb2:	781b      	ldrb	r3, [r3, #0]
 8006bb4:	429a      	cmp	r2, r3
 8006bb6:	d3c8      	bcc.n	8006b4a <IntToUnicode+0x1e>
  }
}
 8006bb8:	46c0      	nop			; (mov r8, r8)
 8006bba:	46c0      	nop			; (mov r8, r8)
 8006bbc:	46bd      	mov	sp, r7
 8006bbe:	b006      	add	sp, #24
 8006bc0:	bd80      	pop	{r7, pc}
	...

08006bc4 <HAL_PCD_MspInit>:
                       LL Driver Callbacks (PCD -> USB Device Library)
*******************************************************************************/
/* MSP Init */

void HAL_PCD_MspInit(PCD_HandleTypeDef* pcdHandle)
{
 8006bc4:	b580      	push	{r7, lr}
 8006bc6:	b084      	sub	sp, #16
 8006bc8:	af00      	add	r7, sp, #0
 8006bca:	6078      	str	r0, [r7, #4]
  if(pcdHandle->Instance==USB)
 8006bcc:	687b      	ldr	r3, [r7, #4]
 8006bce:	681b      	ldr	r3, [r3, #0]
 8006bd0:	4a0e      	ldr	r2, [pc, #56]	; (8006c0c <HAL_PCD_MspInit+0x48>)
 8006bd2:	4293      	cmp	r3, r2
 8006bd4:	d115      	bne.n	8006c02 <HAL_PCD_MspInit+0x3e>
  {
  /* USER CODE BEGIN USB_MspInit 0 */

  /* USER CODE END USB_MspInit 0 */
    /* Peripheral clock enable */
    __HAL_RCC_USB_CLK_ENABLE();
 8006bd6:	4b0e      	ldr	r3, [pc, #56]	; (8006c10 <HAL_PCD_MspInit+0x4c>)
 8006bd8:	69da      	ldr	r2, [r3, #28]
 8006bda:	4b0d      	ldr	r3, [pc, #52]	; (8006c10 <HAL_PCD_MspInit+0x4c>)
 8006bdc:	2180      	movs	r1, #128	; 0x80
 8006bde:	0409      	lsls	r1, r1, #16
 8006be0:	430a      	orrs	r2, r1
 8006be2:	61da      	str	r2, [r3, #28]
 8006be4:	4b0a      	ldr	r3, [pc, #40]	; (8006c10 <HAL_PCD_MspInit+0x4c>)
 8006be6:	69da      	ldr	r2, [r3, #28]
 8006be8:	2380      	movs	r3, #128	; 0x80
 8006bea:	041b      	lsls	r3, r3, #16
 8006bec:	4013      	ands	r3, r2
 8006bee:	60fb      	str	r3, [r7, #12]
 8006bf0:	68fb      	ldr	r3, [r7, #12]

    /* Peripheral interrupt init */
    HAL_NVIC_SetPriority(USB_IRQn, 0, 0);
 8006bf2:	2200      	movs	r2, #0
 8006bf4:	2100      	movs	r1, #0
 8006bf6:	201f      	movs	r0, #31
 8006bf8:	f7f9 fd32 	bl	8000660 <HAL_NVIC_SetPriority>
    HAL_NVIC_EnableIRQ(USB_IRQn);
 8006bfc:	201f      	movs	r0, #31
 8006bfe:	f7f9 fd44 	bl	800068a <HAL_NVIC_EnableIRQ>
  /* USER CODE BEGIN USB_MspInit 1 */

  /* USER CODE END USB_MspInit 1 */
  }
}
 8006c02:	46c0      	nop			; (mov r8, r8)
 8006c04:	46bd      	mov	sp, r7
 8006c06:	b004      	add	sp, #16
 8006c08:	bd80      	pop	{r7, pc}
 8006c0a:	46c0      	nop			; (mov r8, r8)
 8006c0c:	40005c00 	.word	0x40005c00
 8006c10:	40021000 	.word	0x40021000

08006c14 <HAL_PCD_SetupStageCallback>:
#if (USE_HAL_PCD_REGISTER_CALLBACKS == 1U)
static void PCD_SetupStageCallback(PCD_HandleTypeDef *hpcd)
#else
void HAL_PCD_SetupStageCallback(PCD_HandleTypeDef *hpcd)
#endif /* USE_HAL_PCD_REGISTER_CALLBACKS */
{
 8006c14:	b580      	push	{r7, lr}
 8006c16:	b082      	sub	sp, #8
 8006c18:	af00      	add	r7, sp, #0
 8006c1a:	6078      	str	r0, [r7, #4]
  USBD_LL_SetupStage((USBD_HandleTypeDef*)hpcd->pData, (uint8_t *)hpcd->Setup);
 8006c1c:	687a      	ldr	r2, [r7, #4]
 8006c1e:	23bc      	movs	r3, #188	; 0xbc
 8006c20:	009b      	lsls	r3, r3, #2
 8006c22:	58d2      	ldr	r2, [r2, r3]
 8006c24:	687b      	ldr	r3, [r7, #4]
 8006c26:	21ac      	movs	r1, #172	; 0xac
 8006c28:	0089      	lsls	r1, r1, #2
 8006c2a:	468c      	mov	ip, r1
 8006c2c:	4463      	add	r3, ip
 8006c2e:	0019      	movs	r1, r3
 8006c30:	0010      	movs	r0, r2
 8006c32:	f7fe fce1 	bl	80055f8 <USBD_LL_SetupStage>
}
 8006c36:	46c0      	nop			; (mov r8, r8)
 8006c38:	46bd      	mov	sp, r7
 8006c3a:	b002      	add	sp, #8
 8006c3c:	bd80      	pop	{r7, pc}

08006c3e <HAL_PCD_DataOutStageCallback>:
#if (USE_HAL_PCD_REGISTER_CALLBACKS == 1U)
static void PCD_DataOutStageCallback(PCD_HandleTypeDef *hpcd, uint8_t epnum)
#else
void HAL_PCD_DataOutStageCallback(PCD_HandleTypeDef *hpcd, uint8_t epnum)
#endif /* USE_HAL_PCD_REGISTER_CALLBACKS */
{
 8006c3e:	b590      	push	{r4, r7, lr}
 8006c40:	b083      	sub	sp, #12
 8006c42:	af00      	add	r7, sp, #0
 8006c44:	6078      	str	r0, [r7, #4]
 8006c46:	000a      	movs	r2, r1
 8006c48:	1cfb      	adds	r3, r7, #3
 8006c4a:	701a      	strb	r2, [r3, #0]
  USBD_LL_DataOutStage((USBD_HandleTypeDef*)hpcd->pData, epnum, hpcd->OUT_ep[epnum].xfer_buff);
 8006c4c:	687a      	ldr	r2, [r7, #4]
 8006c4e:	23bc      	movs	r3, #188	; 0xbc
 8006c50:	009b      	lsls	r3, r3, #2
 8006c52:	58d4      	ldr	r4, [r2, r3]
 8006c54:	1cfb      	adds	r3, r7, #3
 8006c56:	781a      	ldrb	r2, [r3, #0]
 8006c58:	6878      	ldr	r0, [r7, #4]
 8006c5a:	23be      	movs	r3, #190	; 0xbe
 8006c5c:	0059      	lsls	r1, r3, #1
 8006c5e:	0013      	movs	r3, r2
 8006c60:	009b      	lsls	r3, r3, #2
 8006c62:	189b      	adds	r3, r3, r2
 8006c64:	00db      	lsls	r3, r3, #3
 8006c66:	18c3      	adds	r3, r0, r3
 8006c68:	185b      	adds	r3, r3, r1
 8006c6a:	681a      	ldr	r2, [r3, #0]
 8006c6c:	1cfb      	adds	r3, r7, #3
 8006c6e:	781b      	ldrb	r3, [r3, #0]
 8006c70:	0019      	movs	r1, r3
 8006c72:	0020      	movs	r0, r4
 8006c74:	f7fe fd1e 	bl	80056b4 <USBD_LL_DataOutStage>
}
 8006c78:	46c0      	nop			; (mov r8, r8)
 8006c7a:	46bd      	mov	sp, r7
 8006c7c:	b003      	add	sp, #12
 8006c7e:	bd90      	pop	{r4, r7, pc}

08006c80 <HAL_PCD_DataInStageCallback>:
#if (USE_HAL_PCD_REGISTER_CALLBACKS == 1U)
static void PCD_DataInStageCallback(PCD_HandleTypeDef *hpcd, uint8_t epnum)
#else
void HAL_PCD_DataInStageCallback(PCD_HandleTypeDef *hpcd, uint8_t epnum)
#endif /* USE_HAL_PCD_REGISTER_CALLBACKS */
{
 8006c80:	b580      	push	{r7, lr}
 8006c82:	b082      	sub	sp, #8
 8006c84:	af00      	add	r7, sp, #0
 8006c86:	6078      	str	r0, [r7, #4]
 8006c88:	000a      	movs	r2, r1
 8006c8a:	1cfb      	adds	r3, r7, #3
 8006c8c:	701a      	strb	r2, [r3, #0]
  USBD_LL_DataInStage((USBD_HandleTypeDef*)hpcd->pData, epnum, hpcd->IN_ep[epnum].xfer_buff);
 8006c8e:	687a      	ldr	r2, [r7, #4]
 8006c90:	23bc      	movs	r3, #188	; 0xbc
 8006c92:	009b      	lsls	r3, r3, #2
 8006c94:	58d0      	ldr	r0, [r2, r3]
 8006c96:	1cfb      	adds	r3, r7, #3
 8006c98:	781a      	ldrb	r2, [r3, #0]
 8006c9a:	6879      	ldr	r1, [r7, #4]
 8006c9c:	0013      	movs	r3, r2
 8006c9e:	009b      	lsls	r3, r3, #2
 8006ca0:	189b      	adds	r3, r3, r2
 8006ca2:	00db      	lsls	r3, r3, #3
 8006ca4:	18cb      	adds	r3, r1, r3
 8006ca6:	333c      	adds	r3, #60	; 0x3c
 8006ca8:	681a      	ldr	r2, [r3, #0]
 8006caa:	1cfb      	adds	r3, r7, #3
 8006cac:	781b      	ldrb	r3, [r3, #0]
 8006cae:	0019      	movs	r1, r3
 8006cb0:	f7fe fd82 	bl	80057b8 <USBD_LL_DataInStage>
}
 8006cb4:	46c0      	nop			; (mov r8, r8)
 8006cb6:	46bd      	mov	sp, r7
 8006cb8:	b002      	add	sp, #8
 8006cba:	bd80      	pop	{r7, pc}

08006cbc <HAL_PCD_SOFCallback>:
#if (USE_HAL_PCD_REGISTER_CALLBACKS == 1U)
static void PCD_SOFCallback(PCD_HandleTypeDef *hpcd)
#else
void HAL_PCD_SOFCallback(PCD_HandleTypeDef *hpcd)
#endif /* USE_HAL_PCD_REGISTER_CALLBACKS */
{
 8006cbc:	b580      	push	{r7, lr}
 8006cbe:	b082      	sub	sp, #8
 8006cc0:	af00      	add	r7, sp, #0
 8006cc2:	6078      	str	r0, [r7, #4]
  USBD_LL_SOF((USBD_HandleTypeDef*)hpcd->pData);
 8006cc4:	687a      	ldr	r2, [r7, #4]
 8006cc6:	23bc      	movs	r3, #188	; 0xbc
 8006cc8:	009b      	lsls	r3, r3, #2
 8006cca:	58d3      	ldr	r3, [r2, r3]
 8006ccc:	0018      	movs	r0, r3
 8006cce:	f7fe feb9 	bl	8005a44 <USBD_LL_SOF>
}
 8006cd2:	46c0      	nop			; (mov r8, r8)
 8006cd4:	46bd      	mov	sp, r7
 8006cd6:	b002      	add	sp, #8
 8006cd8:	bd80      	pop	{r7, pc}

08006cda <HAL_PCD_ResetCallback>:
#if (USE_HAL_PCD_REGISTER_CALLBACKS == 1U)
static void PCD_ResetCallback(PCD_HandleTypeDef *hpcd)
#else
void HAL_PCD_ResetCallback(PCD_HandleTypeDef *hpcd)
#endif /* USE_HAL_PCD_REGISTER_CALLBACKS */
{
 8006cda:	b580      	push	{r7, lr}
 8006cdc:	b084      	sub	sp, #16
 8006cde:	af00      	add	r7, sp, #0
 8006ce0:	6078      	str	r0, [r7, #4]
  USBD_SpeedTypeDef speed = USBD_SPEED_FULL;
 8006ce2:	230f      	movs	r3, #15
 8006ce4:	18fb      	adds	r3, r7, r3
 8006ce6:	2201      	movs	r2, #1
 8006ce8:	701a      	strb	r2, [r3, #0]

  if ( hpcd->Init.speed != PCD_SPEED_FULL)
 8006cea:	687b      	ldr	r3, [r7, #4]
 8006cec:	689b      	ldr	r3, [r3, #8]
 8006cee:	2b02      	cmp	r3, #2
 8006cf0:	d001      	beq.n	8006cf6 <HAL_PCD_ResetCallback+0x1c>
  {
    Error_Handler();
 8006cf2:	f7f9 fb0f 	bl	8000314 <Error_Handler>
  }
    /* Set Speed. */
  USBD_LL_SetSpeed((USBD_HandleTypeDef*)hpcd->pData, speed);
 8006cf6:	687a      	ldr	r2, [r7, #4]
 8006cf8:	23bc      	movs	r3, #188	; 0xbc
 8006cfa:	009b      	lsls	r3, r3, #2
 8006cfc:	58d2      	ldr	r2, [r2, r3]
 8006cfe:	230f      	movs	r3, #15
 8006d00:	18fb      	adds	r3, r7, r3
 8006d02:	781b      	ldrb	r3, [r3, #0]
 8006d04:	0019      	movs	r1, r3
 8006d06:	0010      	movs	r0, r2
 8006d08:	f7fe fe5b 	bl	80059c2 <USBD_LL_SetSpeed>

  /* Reset Device. */
  USBD_LL_Reset((USBD_HandleTypeDef*)hpcd->pData);
 8006d0c:	687a      	ldr	r2, [r7, #4]
 8006d0e:	23bc      	movs	r3, #188	; 0xbc
 8006d10:	009b      	lsls	r3, r3, #2
 8006d12:	58d3      	ldr	r3, [r2, r3]
 8006d14:	0018      	movs	r0, r3
 8006d16:	f7fe fe0c 	bl	8005932 <USBD_LL_Reset>
}
 8006d1a:	46c0      	nop			; (mov r8, r8)
 8006d1c:	46bd      	mov	sp, r7
 8006d1e:	b004      	add	sp, #16
 8006d20:	bd80      	pop	{r7, pc}
	...

08006d24 <HAL_PCD_SuspendCallback>:
#if (USE_HAL_PCD_REGISTER_CALLBACKS == 1U)
static void PCD_SuspendCallback(PCD_HandleTypeDef *hpcd)
#else
void HAL_PCD_SuspendCallback(PCD_HandleTypeDef *hpcd)
#endif /* USE_HAL_PCD_REGISTER_CALLBACKS */
{
 8006d24:	b580      	push	{r7, lr}
 8006d26:	b082      	sub	sp, #8
 8006d28:	af00      	add	r7, sp, #0
 8006d2a:	6078      	str	r0, [r7, #4]
  /* Inform USB library that core enters in suspend Mode. */
  USBD_LL_Suspend((USBD_HandleTypeDef*)hpcd->pData);
 8006d2c:	687a      	ldr	r2, [r7, #4]
 8006d2e:	23bc      	movs	r3, #188	; 0xbc
 8006d30:	009b      	lsls	r3, r3, #2
 8006d32:	58d3      	ldr	r3, [r2, r3]
 8006d34:	0018      	movs	r0, r3
 8006d36:	f7fe fe55 	bl	80059e4 <USBD_LL_Suspend>
  /* Enter in STOP mode. */
  /* USER CODE BEGIN 2 */
  if (hpcd->Init.low_power_enable)
 8006d3a:	687b      	ldr	r3, [r7, #4]
 8006d3c:	699b      	ldr	r3, [r3, #24]
 8006d3e:	2b00      	cmp	r3, #0
 8006d40:	d005      	beq.n	8006d4e <HAL_PCD_SuspendCallback+0x2a>
  {
    /* Set SLEEPDEEP bit and SleepOnExit of Cortex System Control Register. */
    SCB->SCR |= (uint32_t)((uint32_t)(SCB_SCR_SLEEPDEEP_Msk | SCB_SCR_SLEEPONEXIT_Msk));
 8006d42:	4b05      	ldr	r3, [pc, #20]	; (8006d58 <HAL_PCD_SuspendCallback+0x34>)
 8006d44:	691a      	ldr	r2, [r3, #16]
 8006d46:	4b04      	ldr	r3, [pc, #16]	; (8006d58 <HAL_PCD_SuspendCallback+0x34>)
 8006d48:	2106      	movs	r1, #6
 8006d4a:	430a      	orrs	r2, r1
 8006d4c:	611a      	str	r2, [r3, #16]
  }
  /* USER CODE END 2 */
}
 8006d4e:	46c0      	nop			; (mov r8, r8)
 8006d50:	46bd      	mov	sp, r7
 8006d52:	b002      	add	sp, #8
 8006d54:	bd80      	pop	{r7, pc}
 8006d56:	46c0      	nop			; (mov r8, r8)
 8006d58:	e000ed00 	.word	0xe000ed00

08006d5c <HAL_PCD_ResumeCallback>:
#if (USE_HAL_PCD_REGISTER_CALLBACKS == 1U)
static void PCD_ResumeCallback(PCD_HandleTypeDef *hpcd)
#else
void HAL_PCD_ResumeCallback(PCD_HandleTypeDef *hpcd)
#endif /* USE_HAL_PCD_REGISTER_CALLBACKS */
{
 8006d5c:	b580      	push	{r7, lr}
 8006d5e:	b082      	sub	sp, #8
 8006d60:	af00      	add	r7, sp, #0
 8006d62:	6078      	str	r0, [r7, #4]
  /* USER CODE BEGIN 3 */
  if (hpcd->Init.low_power_enable)
 8006d64:	687b      	ldr	r3, [r7, #4]
 8006d66:	699b      	ldr	r3, [r3, #24]
 8006d68:	2b00      	cmp	r3, #0
 8006d6a:	d007      	beq.n	8006d7c <HAL_PCD_ResumeCallback+0x20>
  {
    /* Reset SLEEPDEEP bit of Cortex System Control Register. */
    SCB->SCR &= (uint32_t)~((uint32_t)(SCB_SCR_SLEEPDEEP_Msk | SCB_SCR_SLEEPONEXIT_Msk));
 8006d6c:	4b09      	ldr	r3, [pc, #36]	; (8006d94 <HAL_PCD_ResumeCallback+0x38>)
 8006d6e:	691a      	ldr	r2, [r3, #16]
 8006d70:	4b08      	ldr	r3, [pc, #32]	; (8006d94 <HAL_PCD_ResumeCallback+0x38>)
 8006d72:	2106      	movs	r1, #6
 8006d74:	438a      	bics	r2, r1
 8006d76:	611a      	str	r2, [r3, #16]
    SystemClockConfig_Resume();
 8006d78:	f000 fa22 	bl	80071c0 <SystemClockConfig_Resume>
  }
  /* USER CODE END 3 */
  USBD_LL_Resume((USBD_HandleTypeDef*)hpcd->pData);
 8006d7c:	687a      	ldr	r2, [r7, #4]
 8006d7e:	23bc      	movs	r3, #188	; 0xbc
 8006d80:	009b      	lsls	r3, r3, #2
 8006d82:	58d3      	ldr	r3, [r2, r3]
 8006d84:	0018      	movs	r0, r3
 8006d86:	f7fe fe45 	bl	8005a14 <USBD_LL_Resume>
}
 8006d8a:	46c0      	nop			; (mov r8, r8)
 8006d8c:	46bd      	mov	sp, r7
 8006d8e:	b002      	add	sp, #8
 8006d90:	bd80      	pop	{r7, pc}
 8006d92:	46c0      	nop			; (mov r8, r8)
 8006d94:	e000ed00 	.word	0xe000ed00

08006d98 <USBD_LL_Init>:
  * @brief  Initializes the low level portion of the device driver.
  * @param  pdev: Device handle
  * @retval USBD status
  */
USBD_StatusTypeDef USBD_LL_Init(USBD_HandleTypeDef *pdev)
{
 8006d98:	b580      	push	{r7, lr}
 8006d9a:	b082      	sub	sp, #8
 8006d9c:	af00      	add	r7, sp, #0
 8006d9e:	6078      	str	r0, [r7, #4]
  /* Init USB Ip. */
  /* Link the driver to the stack. */
  hpcd_USB_FS.pData = pdev;
 8006da0:	4a27      	ldr	r2, [pc, #156]	; (8006e40 <USBD_LL_Init+0xa8>)
 8006da2:	23bc      	movs	r3, #188	; 0xbc
 8006da4:	009b      	lsls	r3, r3, #2
 8006da6:	6879      	ldr	r1, [r7, #4]
 8006da8:	50d1      	str	r1, [r2, r3]
  pdev->pData = &hpcd_USB_FS;
 8006daa:	687a      	ldr	r2, [r7, #4]
 8006dac:	23b0      	movs	r3, #176	; 0xb0
 8006dae:	009b      	lsls	r3, r3, #2
 8006db0:	4923      	ldr	r1, [pc, #140]	; (8006e40 <USBD_LL_Init+0xa8>)
 8006db2:	50d1      	str	r1, [r2, r3]

  hpcd_USB_FS.Instance = USB;
 8006db4:	4b22      	ldr	r3, [pc, #136]	; (8006e40 <USBD_LL_Init+0xa8>)
 8006db6:	4a23      	ldr	r2, [pc, #140]	; (8006e44 <USBD_LL_Init+0xac>)
 8006db8:	601a      	str	r2, [r3, #0]
  hpcd_USB_FS.Init.dev_endpoints = 8;
 8006dba:	4b21      	ldr	r3, [pc, #132]	; (8006e40 <USBD_LL_Init+0xa8>)
 8006dbc:	2208      	movs	r2, #8
 8006dbe:	605a      	str	r2, [r3, #4]
  hpcd_USB_FS.Init.speed = PCD_SPEED_FULL;
 8006dc0:	4b1f      	ldr	r3, [pc, #124]	; (8006e40 <USBD_LL_Init+0xa8>)
 8006dc2:	2202      	movs	r2, #2
 8006dc4:	609a      	str	r2, [r3, #8]
  hpcd_USB_FS.Init.phy_itface = PCD_PHY_EMBEDDED;
 8006dc6:	4b1e      	ldr	r3, [pc, #120]	; (8006e40 <USBD_LL_Init+0xa8>)
 8006dc8:	2202      	movs	r2, #2
 8006dca:	611a      	str	r2, [r3, #16]
  hpcd_USB_FS.Init.low_power_enable = DISABLE;
 8006dcc:	4b1c      	ldr	r3, [pc, #112]	; (8006e40 <USBD_LL_Init+0xa8>)
 8006dce:	2200      	movs	r2, #0
 8006dd0:	619a      	str	r2, [r3, #24]
  hpcd_USB_FS.Init.lpm_enable = DISABLE;
 8006dd2:	4b1b      	ldr	r3, [pc, #108]	; (8006e40 <USBD_LL_Init+0xa8>)
 8006dd4:	2200      	movs	r2, #0
 8006dd6:	61da      	str	r2, [r3, #28]
  hpcd_USB_FS.Init.battery_charging_enable = DISABLE;
 8006dd8:	4b19      	ldr	r3, [pc, #100]	; (8006e40 <USBD_LL_Init+0xa8>)
 8006dda:	2200      	movs	r2, #0
 8006ddc:	621a      	str	r2, [r3, #32]
  if (HAL_PCD_Init(&hpcd_USB_FS) != HAL_OK)
 8006dde:	4b18      	ldr	r3, [pc, #96]	; (8006e40 <USBD_LL_Init+0xa8>)
 8006de0:	0018      	movs	r0, r3
 8006de2:	f7f9 fc6f 	bl	80006c4 <HAL_PCD_Init>
 8006de6:	1e03      	subs	r3, r0, #0
 8006de8:	d001      	beq.n	8006dee <USBD_LL_Init+0x56>
  {
    Error_Handler( );
 8006dea:	f7f9 fa93 	bl	8000314 <Error_Handler>
  HAL_PCD_RegisterDataInStageCallback(&hpcd_USB_FS, PCD_DataInStageCallback);
  HAL_PCD_RegisterIsoOutIncpltCallback(&hpcd_USB_FS, PCD_ISOOUTIncompleteCallback);
  HAL_PCD_RegisterIsoInIncpltCallback(&hpcd_USB_FS, PCD_ISOINIncompleteCallback);
#endif /* USE_HAL_PCD_REGISTER_CALLBACKS */
  /* USER CODE BEGIN EndPoint_Configuration */
  HAL_PCDEx_PMAConfig((PCD_HandleTypeDef*)pdev->pData , 0x00 , PCD_SNG_BUF, 0x18);
 8006dee:	687a      	ldr	r2, [r7, #4]
 8006df0:	23b0      	movs	r3, #176	; 0xb0
 8006df2:	009b      	lsls	r3, r3, #2
 8006df4:	58d0      	ldr	r0, [r2, r3]
 8006df6:	2318      	movs	r3, #24
 8006df8:	2200      	movs	r2, #0
 8006dfa:	2100      	movs	r1, #0
 8006dfc:	f7fb fa16 	bl	800222c <HAL_PCDEx_PMAConfig>
  HAL_PCDEx_PMAConfig((PCD_HandleTypeDef*)pdev->pData , 0x80 , PCD_SNG_BUF, 0x58);
 8006e00:	687a      	ldr	r2, [r7, #4]
 8006e02:	23b0      	movs	r3, #176	; 0xb0
 8006e04:	009b      	lsls	r3, r3, #2
 8006e06:	58d0      	ldr	r0, [r2, r3]
 8006e08:	2358      	movs	r3, #88	; 0x58
 8006e0a:	2200      	movs	r2, #0
 8006e0c:	2180      	movs	r1, #128	; 0x80
 8006e0e:	f7fb fa0d 	bl	800222c <HAL_PCDEx_PMAConfig>
  /* USER CODE END EndPoint_Configuration */
  /* USER CODE BEGIN EndPoint_Configuration_CUSTOM_HID */
  HAL_PCDEx_PMAConfig((PCD_HandleTypeDef*)pdev->pData , CUSTOM_HID_EPIN_ADDR , PCD_SNG_BUF, 0x98);
 8006e12:	687a      	ldr	r2, [r7, #4]
 8006e14:	23b0      	movs	r3, #176	; 0xb0
 8006e16:	009b      	lsls	r3, r3, #2
 8006e18:	58d0      	ldr	r0, [r2, r3]
 8006e1a:	2398      	movs	r3, #152	; 0x98
 8006e1c:	2200      	movs	r2, #0
 8006e1e:	2181      	movs	r1, #129	; 0x81
 8006e20:	f7fb fa04 	bl	800222c <HAL_PCDEx_PMAConfig>
  HAL_PCDEx_PMAConfig((PCD_HandleTypeDef*)pdev->pData , CUSTOM_HID_EPOUT_ADDR , PCD_SNG_BUF, 0xD8);
 8006e24:	687a      	ldr	r2, [r7, #4]
 8006e26:	23b0      	movs	r3, #176	; 0xb0
 8006e28:	009b      	lsls	r3, r3, #2
 8006e2a:	58d0      	ldr	r0, [r2, r3]
 8006e2c:	23d8      	movs	r3, #216	; 0xd8
 8006e2e:	2200      	movs	r2, #0
 8006e30:	2101      	movs	r1, #1
 8006e32:	f7fb f9fb 	bl	800222c <HAL_PCDEx_PMAConfig>
  /* USER CODE END EndPoint_Configuration_CUSTOM_HID */
  return USBD_OK;
 8006e36:	2300      	movs	r3, #0
}
 8006e38:	0018      	movs	r0, r3
 8006e3a:	46bd      	mov	sp, r7
 8006e3c:	b002      	add	sp, #8
 8006e3e:	bd80      	pop	{r7, pc}
 8006e40:	2000062c 	.word	0x2000062c
 8006e44:	40005c00 	.word	0x40005c00

08006e48 <USBD_LL_Start>:
  * @brief  Starts the low level portion of the device driver.
  * @param  pdev: Device handle
  * @retval USBD status
  */
USBD_StatusTypeDef USBD_LL_Start(USBD_HandleTypeDef *pdev)
{
 8006e48:	b5f0      	push	{r4, r5, r6, r7, lr}
 8006e4a:	b085      	sub	sp, #20
 8006e4c:	af00      	add	r7, sp, #0
 8006e4e:	6078      	str	r0, [r7, #4]
  HAL_StatusTypeDef hal_status = HAL_OK;
 8006e50:	210f      	movs	r1, #15
 8006e52:	187b      	adds	r3, r7, r1
 8006e54:	2200      	movs	r2, #0
 8006e56:	701a      	strb	r2, [r3, #0]
  USBD_StatusTypeDef usb_status = USBD_OK;
 8006e58:	260e      	movs	r6, #14
 8006e5a:	19bb      	adds	r3, r7, r6
 8006e5c:	2200      	movs	r2, #0
 8006e5e:	701a      	strb	r2, [r3, #0]

  hal_status = HAL_PCD_Start(pdev->pData);
 8006e60:	687a      	ldr	r2, [r7, #4]
 8006e62:	23b0      	movs	r3, #176	; 0xb0
 8006e64:	009b      	lsls	r3, r3, #2
 8006e66:	58d3      	ldr	r3, [r2, r3]
 8006e68:	000d      	movs	r5, r1
 8006e6a:	187c      	adds	r4, r7, r1
 8006e6c:	0018      	movs	r0, r3
 8006e6e:	f7f9 fd29 	bl	80008c4 <HAL_PCD_Start>
 8006e72:	0003      	movs	r3, r0
 8006e74:	7023      	strb	r3, [r4, #0]

  usb_status =  USBD_Get_USB_Status(hal_status);
 8006e76:	19bc      	adds	r4, r7, r6
 8006e78:	197b      	adds	r3, r7, r5
 8006e7a:	781b      	ldrb	r3, [r3, #0]
 8006e7c:	0018      	movs	r0, r3
 8006e7e:	f000 f9a6 	bl	80071ce <USBD_Get_USB_Status>
 8006e82:	0003      	movs	r3, r0
 8006e84:	7023      	strb	r3, [r4, #0]

  return usb_status;
 8006e86:	19bb      	adds	r3, r7, r6
 8006e88:	781b      	ldrb	r3, [r3, #0]
}
 8006e8a:	0018      	movs	r0, r3
 8006e8c:	46bd      	mov	sp, r7
 8006e8e:	b005      	add	sp, #20
 8006e90:	bdf0      	pop	{r4, r5, r6, r7, pc}

08006e92 <USBD_LL_OpenEP>:
  * @param  ep_type: Endpoint type
  * @param  ep_mps: Endpoint max packet size
  * @retval USBD status
  */
USBD_StatusTypeDef USBD_LL_OpenEP(USBD_HandleTypeDef *pdev, uint8_t ep_addr, uint8_t ep_type, uint16_t ep_mps)
{
 8006e92:	b5f0      	push	{r4, r5, r6, r7, lr}
 8006e94:	b085      	sub	sp, #20
 8006e96:	af00      	add	r7, sp, #0
 8006e98:	6078      	str	r0, [r7, #4]
 8006e9a:	000c      	movs	r4, r1
 8006e9c:	0010      	movs	r0, r2
 8006e9e:	0019      	movs	r1, r3
 8006ea0:	1cfb      	adds	r3, r7, #3
 8006ea2:	1c22      	adds	r2, r4, #0
 8006ea4:	701a      	strb	r2, [r3, #0]
 8006ea6:	1cbb      	adds	r3, r7, #2
 8006ea8:	1c02      	adds	r2, r0, #0
 8006eaa:	701a      	strb	r2, [r3, #0]
 8006eac:	003b      	movs	r3, r7
 8006eae:	1c0a      	adds	r2, r1, #0
 8006eb0:	801a      	strh	r2, [r3, #0]
  HAL_StatusTypeDef hal_status = HAL_OK;
 8006eb2:	260f      	movs	r6, #15
 8006eb4:	19bb      	adds	r3, r7, r6
 8006eb6:	2200      	movs	r2, #0
 8006eb8:	701a      	strb	r2, [r3, #0]
  USBD_StatusTypeDef usb_status = USBD_OK;
 8006eba:	250e      	movs	r5, #14
 8006ebc:	197b      	adds	r3, r7, r5
 8006ebe:	2200      	movs	r2, #0
 8006ec0:	701a      	strb	r2, [r3, #0]

  hal_status = HAL_PCD_EP_Open(pdev->pData, ep_addr, ep_mps, ep_type);
 8006ec2:	687a      	ldr	r2, [r7, #4]
 8006ec4:	23b0      	movs	r3, #176	; 0xb0
 8006ec6:	009b      	lsls	r3, r3, #2
 8006ec8:	58d0      	ldr	r0, [r2, r3]
 8006eca:	19bc      	adds	r4, r7, r6
 8006ecc:	1cbb      	adds	r3, r7, #2
 8006ece:	781d      	ldrb	r5, [r3, #0]
 8006ed0:	003b      	movs	r3, r7
 8006ed2:	881a      	ldrh	r2, [r3, #0]
 8006ed4:	1cfb      	adds	r3, r7, #3
 8006ed6:	7819      	ldrb	r1, [r3, #0]
 8006ed8:	002b      	movs	r3, r5
 8006eda:	f7f9 fe88 	bl	8000bee <HAL_PCD_EP_Open>
 8006ede:	0003      	movs	r3, r0
 8006ee0:	7023      	strb	r3, [r4, #0]

  usb_status =  USBD_Get_USB_Status(hal_status);
 8006ee2:	250e      	movs	r5, #14
 8006ee4:	197c      	adds	r4, r7, r5
 8006ee6:	19bb      	adds	r3, r7, r6
 8006ee8:	781b      	ldrb	r3, [r3, #0]
 8006eea:	0018      	movs	r0, r3
 8006eec:	f000 f96f 	bl	80071ce <USBD_Get_USB_Status>
 8006ef0:	0003      	movs	r3, r0
 8006ef2:	7023      	strb	r3, [r4, #0]

  return usb_status;
 8006ef4:	197b      	adds	r3, r7, r5
 8006ef6:	781b      	ldrb	r3, [r3, #0]
}
 8006ef8:	0018      	movs	r0, r3
 8006efa:	46bd      	mov	sp, r7
 8006efc:	b005      	add	sp, #20
 8006efe:	bdf0      	pop	{r4, r5, r6, r7, pc}

08006f00 <USBD_LL_CloseEP>:
  * @param  pdev: Device handle
  * @param  ep_addr: Endpoint number
  * @retval USBD status
  */
USBD_StatusTypeDef USBD_LL_CloseEP(USBD_HandleTypeDef *pdev, uint8_t ep_addr)
{
 8006f00:	b5f0      	push	{r4, r5, r6, r7, lr}
 8006f02:	b085      	sub	sp, #20
 8006f04:	af00      	add	r7, sp, #0
 8006f06:	6078      	str	r0, [r7, #4]
 8006f08:	000a      	movs	r2, r1
 8006f0a:	1cfb      	adds	r3, r7, #3
 8006f0c:	701a      	strb	r2, [r3, #0]
  HAL_StatusTypeDef hal_status = HAL_OK;
 8006f0e:	210f      	movs	r1, #15
 8006f10:	187b      	adds	r3, r7, r1
 8006f12:	2200      	movs	r2, #0
 8006f14:	701a      	strb	r2, [r3, #0]
  USBD_StatusTypeDef usb_status = USBD_OK;
 8006f16:	260e      	movs	r6, #14
 8006f18:	19bb      	adds	r3, r7, r6
 8006f1a:	2200      	movs	r2, #0
 8006f1c:	701a      	strb	r2, [r3, #0]

  hal_status = HAL_PCD_EP_Close(pdev->pData, ep_addr);
 8006f1e:	687a      	ldr	r2, [r7, #4]
 8006f20:	23b0      	movs	r3, #176	; 0xb0
 8006f22:	009b      	lsls	r3, r3, #2
 8006f24:	58d2      	ldr	r2, [r2, r3]
 8006f26:	000d      	movs	r5, r1
 8006f28:	187c      	adds	r4, r7, r1
 8006f2a:	1cfb      	adds	r3, r7, #3
 8006f2c:	781b      	ldrb	r3, [r3, #0]
 8006f2e:	0019      	movs	r1, r3
 8006f30:	0010      	movs	r0, r2
 8006f32:	f7f9 fecb 	bl	8000ccc <HAL_PCD_EP_Close>
 8006f36:	0003      	movs	r3, r0
 8006f38:	7023      	strb	r3, [r4, #0]

  usb_status =  USBD_Get_USB_Status(hal_status);
 8006f3a:	19bc      	adds	r4, r7, r6
 8006f3c:	197b      	adds	r3, r7, r5
 8006f3e:	781b      	ldrb	r3, [r3, #0]
 8006f40:	0018      	movs	r0, r3
 8006f42:	f000 f944 	bl	80071ce <USBD_Get_USB_Status>
 8006f46:	0003      	movs	r3, r0
 8006f48:	7023      	strb	r3, [r4, #0]

  return usb_status;
 8006f4a:	19bb      	adds	r3, r7, r6
 8006f4c:	781b      	ldrb	r3, [r3, #0]
}
 8006f4e:	0018      	movs	r0, r3
 8006f50:	46bd      	mov	sp, r7
 8006f52:	b005      	add	sp, #20
 8006f54:	bdf0      	pop	{r4, r5, r6, r7, pc}

08006f56 <USBD_LL_StallEP>:
  * @param  pdev: Device handle
  * @param  ep_addr: Endpoint number
  * @retval USBD status
  */
USBD_StatusTypeDef USBD_LL_StallEP(USBD_HandleTypeDef *pdev, uint8_t ep_addr)
{
 8006f56:	b5f0      	push	{r4, r5, r6, r7, lr}
 8006f58:	b085      	sub	sp, #20
 8006f5a:	af00      	add	r7, sp, #0
 8006f5c:	6078      	str	r0, [r7, #4]
 8006f5e:	000a      	movs	r2, r1
 8006f60:	1cfb      	adds	r3, r7, #3
 8006f62:	701a      	strb	r2, [r3, #0]
  HAL_StatusTypeDef hal_status = HAL_OK;
 8006f64:	210f      	movs	r1, #15
 8006f66:	187b      	adds	r3, r7, r1
 8006f68:	2200      	movs	r2, #0
 8006f6a:	701a      	strb	r2, [r3, #0]
  USBD_StatusTypeDef usb_status = USBD_OK;
 8006f6c:	260e      	movs	r6, #14
 8006f6e:	19bb      	adds	r3, r7, r6
 8006f70:	2200      	movs	r2, #0
 8006f72:	701a      	strb	r2, [r3, #0]

  hal_status = HAL_PCD_EP_SetStall(pdev->pData, ep_addr);
 8006f74:	687a      	ldr	r2, [r7, #4]
 8006f76:	23b0      	movs	r3, #176	; 0xb0
 8006f78:	009b      	lsls	r3, r3, #2
 8006f7a:	58d2      	ldr	r2, [r2, r3]
 8006f7c:	000d      	movs	r5, r1
 8006f7e:	187c      	adds	r4, r7, r1
 8006f80:	1cfb      	adds	r3, r7, #3
 8006f82:	781b      	ldrb	r3, [r3, #0]
 8006f84:	0019      	movs	r1, r3
 8006f86:	0010      	movs	r0, r2
 8006f88:	f7f9 ff64 	bl	8000e54 <HAL_PCD_EP_SetStall>
 8006f8c:	0003      	movs	r3, r0
 8006f8e:	7023      	strb	r3, [r4, #0]

  usb_status =  USBD_Get_USB_Status(hal_status);
 8006f90:	19bc      	adds	r4, r7, r6
 8006f92:	197b      	adds	r3, r7, r5
 8006f94:	781b      	ldrb	r3, [r3, #0]
 8006f96:	0018      	movs	r0, r3
 8006f98:	f000 f919 	bl	80071ce <USBD_Get_USB_Status>
 8006f9c:	0003      	movs	r3, r0
 8006f9e:	7023      	strb	r3, [r4, #0]

  return usb_status;
 8006fa0:	19bb      	adds	r3, r7, r6
 8006fa2:	781b      	ldrb	r3, [r3, #0]
}
 8006fa4:	0018      	movs	r0, r3
 8006fa6:	46bd      	mov	sp, r7
 8006fa8:	b005      	add	sp, #20
 8006faa:	bdf0      	pop	{r4, r5, r6, r7, pc}

08006fac <USBD_LL_ClearStallEP>:
  * @param  pdev: Device handle
  * @param  ep_addr: Endpoint number
  * @retval USBD status
  */
USBD_StatusTypeDef USBD_LL_ClearStallEP(USBD_HandleTypeDef *pdev, uint8_t ep_addr)
{
 8006fac:	b5f0      	push	{r4, r5, r6, r7, lr}
 8006fae:	b085      	sub	sp, #20
 8006fb0:	af00      	add	r7, sp, #0
 8006fb2:	6078      	str	r0, [r7, #4]
 8006fb4:	000a      	movs	r2, r1
 8006fb6:	1cfb      	adds	r3, r7, #3
 8006fb8:	701a      	strb	r2, [r3, #0]
  HAL_StatusTypeDef hal_status = HAL_OK;
 8006fba:	210f      	movs	r1, #15
 8006fbc:	187b      	adds	r3, r7, r1
 8006fbe:	2200      	movs	r2, #0
 8006fc0:	701a      	strb	r2, [r3, #0]
  USBD_StatusTypeDef usb_status = USBD_OK;
 8006fc2:	260e      	movs	r6, #14
 8006fc4:	19bb      	adds	r3, r7, r6
 8006fc6:	2200      	movs	r2, #0
 8006fc8:	701a      	strb	r2, [r3, #0]

  hal_status = HAL_PCD_EP_ClrStall(pdev->pData, ep_addr);
 8006fca:	687a      	ldr	r2, [r7, #4]
 8006fcc:	23b0      	movs	r3, #176	; 0xb0
 8006fce:	009b      	lsls	r3, r3, #2
 8006fd0:	58d2      	ldr	r2, [r2, r3]
 8006fd2:	000d      	movs	r5, r1
 8006fd4:	187c      	adds	r4, r7, r1
 8006fd6:	1cfb      	adds	r3, r7, #3
 8006fd8:	781b      	ldrb	r3, [r3, #0]
 8006fda:	0019      	movs	r1, r3
 8006fdc:	0010      	movs	r0, r2
 8006fde:	f7f9 ff95 	bl	8000f0c <HAL_PCD_EP_ClrStall>
 8006fe2:	0003      	movs	r3, r0
 8006fe4:	7023      	strb	r3, [r4, #0]

  usb_status =  USBD_Get_USB_Status(hal_status);
 8006fe6:	19bc      	adds	r4, r7, r6
 8006fe8:	197b      	adds	r3, r7, r5
 8006fea:	781b      	ldrb	r3, [r3, #0]
 8006fec:	0018      	movs	r0, r3
 8006fee:	f000 f8ee 	bl	80071ce <USBD_Get_USB_Status>
 8006ff2:	0003      	movs	r3, r0
 8006ff4:	7023      	strb	r3, [r4, #0]

  return usb_status;
 8006ff6:	19bb      	adds	r3, r7, r6
 8006ff8:	781b      	ldrb	r3, [r3, #0]
}
 8006ffa:	0018      	movs	r0, r3
 8006ffc:	46bd      	mov	sp, r7
 8006ffe:	b005      	add	sp, #20
 8007000:	bdf0      	pop	{r4, r5, r6, r7, pc}

08007002 <USBD_LL_IsStallEP>:
  * @param  pdev: Device handle
  * @param  ep_addr: Endpoint number
  * @retval Stall (1: Yes, 0: No)
  */
uint8_t USBD_LL_IsStallEP(USBD_HandleTypeDef *pdev, uint8_t ep_addr)
{
 8007002:	b580      	push	{r7, lr}
 8007004:	b084      	sub	sp, #16
 8007006:	af00      	add	r7, sp, #0
 8007008:	6078      	str	r0, [r7, #4]
 800700a:	000a      	movs	r2, r1
 800700c:	1cfb      	adds	r3, r7, #3
 800700e:	701a      	strb	r2, [r3, #0]
  PCD_HandleTypeDef *hpcd = (PCD_HandleTypeDef*) pdev->pData;
 8007010:	687a      	ldr	r2, [r7, #4]
 8007012:	23b0      	movs	r3, #176	; 0xb0
 8007014:	009b      	lsls	r3, r3, #2
 8007016:	58d3      	ldr	r3, [r2, r3]
 8007018:	60fb      	str	r3, [r7, #12]

  if((ep_addr & 0x80) == 0x80)
 800701a:	1cfb      	adds	r3, r7, #3
 800701c:	781b      	ldrb	r3, [r3, #0]
 800701e:	b25b      	sxtb	r3, r3
 8007020:	2b00      	cmp	r3, #0
 8007022:	da0d      	bge.n	8007040 <USBD_LL_IsStallEP+0x3e>
  {
    return hpcd->IN_ep[ep_addr & 0x7F].is_stall;
 8007024:	1cfb      	adds	r3, r7, #3
 8007026:	781b      	ldrb	r3, [r3, #0]
 8007028:	227f      	movs	r2, #127	; 0x7f
 800702a:	4013      	ands	r3, r2
 800702c:	68f9      	ldr	r1, [r7, #12]
 800702e:	1c5a      	adds	r2, r3, #1
 8007030:	0013      	movs	r3, r2
 8007032:	009b      	lsls	r3, r3, #2
 8007034:	189b      	adds	r3, r3, r2
 8007036:	00db      	lsls	r3, r3, #3
 8007038:	18cb      	adds	r3, r1, r3
 800703a:	3302      	adds	r3, #2
 800703c:	781b      	ldrb	r3, [r3, #0]
 800703e:	e00d      	b.n	800705c <USBD_LL_IsStallEP+0x5a>
  }
  else
  {
    return hpcd->OUT_ep[ep_addr & 0x7F].is_stall;
 8007040:	1cfb      	adds	r3, r7, #3
 8007042:	781b      	ldrb	r3, [r3, #0]
 8007044:	227f      	movs	r2, #127	; 0x7f
 8007046:	401a      	ands	r2, r3
 8007048:	68f8      	ldr	r0, [r7, #12]
 800704a:	23b5      	movs	r3, #181	; 0xb5
 800704c:	0059      	lsls	r1, r3, #1
 800704e:	0013      	movs	r3, r2
 8007050:	009b      	lsls	r3, r3, #2
 8007052:	189b      	adds	r3, r3, r2
 8007054:	00db      	lsls	r3, r3, #3
 8007056:	18c3      	adds	r3, r0, r3
 8007058:	185b      	adds	r3, r3, r1
 800705a:	781b      	ldrb	r3, [r3, #0]
  }
}
 800705c:	0018      	movs	r0, r3
 800705e:	46bd      	mov	sp, r7
 8007060:	b004      	add	sp, #16
 8007062:	bd80      	pop	{r7, pc}

08007064 <USBD_LL_SetUSBAddress>:
  * @param  pdev: Device handle
  * @param  dev_addr: Device address
  * @retval USBD status
  */
USBD_StatusTypeDef USBD_LL_SetUSBAddress(USBD_HandleTypeDef *pdev, uint8_t dev_addr)
{
 8007064:	b5f0      	push	{r4, r5, r6, r7, lr}
 8007066:	b085      	sub	sp, #20
 8007068:	af00      	add	r7, sp, #0
 800706a:	6078      	str	r0, [r7, #4]
 800706c:	000a      	movs	r2, r1
 800706e:	1cfb      	adds	r3, r7, #3
 8007070:	701a      	strb	r2, [r3, #0]
  HAL_StatusTypeDef hal_status = HAL_OK;
 8007072:	210f      	movs	r1, #15
 8007074:	187b      	adds	r3, r7, r1
 8007076:	2200      	movs	r2, #0
 8007078:	701a      	strb	r2, [r3, #0]
  USBD_StatusTypeDef usb_status = USBD_OK;
 800707a:	260e      	movs	r6, #14
 800707c:	19bb      	adds	r3, r7, r6
 800707e:	2200      	movs	r2, #0
 8007080:	701a      	strb	r2, [r3, #0]

  hal_status = HAL_PCD_SetAddress(pdev->pData, dev_addr);
 8007082:	687a      	ldr	r2, [r7, #4]
 8007084:	23b0      	movs	r3, #176	; 0xb0
 8007086:	009b      	lsls	r3, r3, #2
 8007088:	58d2      	ldr	r2, [r2, r3]
 800708a:	000d      	movs	r5, r1
 800708c:	187c      	adds	r4, r7, r1
 800708e:	1cfb      	adds	r3, r7, #3
 8007090:	781b      	ldrb	r3, [r3, #0]
 8007092:	0019      	movs	r1, r3
 8007094:	0010      	movs	r0, r2
 8007096:	f7f9 fd7f 	bl	8000b98 <HAL_PCD_SetAddress>
 800709a:	0003      	movs	r3, r0
 800709c:	7023      	strb	r3, [r4, #0]

  usb_status =  USBD_Get_USB_Status(hal_status);
 800709e:	19bc      	adds	r4, r7, r6
 80070a0:	197b      	adds	r3, r7, r5
 80070a2:	781b      	ldrb	r3, [r3, #0]
 80070a4:	0018      	movs	r0, r3
 80070a6:	f000 f892 	bl	80071ce <USBD_Get_USB_Status>
 80070aa:	0003      	movs	r3, r0
 80070ac:	7023      	strb	r3, [r4, #0]

  return usb_status;
 80070ae:	19bb      	adds	r3, r7, r6
 80070b0:	781b      	ldrb	r3, [r3, #0]
}
 80070b2:	0018      	movs	r0, r3
 80070b4:	46bd      	mov	sp, r7
 80070b6:	b005      	add	sp, #20
 80070b8:	bdf0      	pop	{r4, r5, r6, r7, pc}

080070ba <USBD_LL_Transmit>:
  * @param  pbuf: Pointer to data to be sent
  * @param  size: Data size
  * @retval USBD status
  */
USBD_StatusTypeDef USBD_LL_Transmit(USBD_HandleTypeDef *pdev, uint8_t ep_addr, uint8_t *pbuf, uint16_t size)
{
 80070ba:	b5f0      	push	{r4, r5, r6, r7, lr}
 80070bc:	b087      	sub	sp, #28
 80070be:	af00      	add	r7, sp, #0
 80070c0:	60f8      	str	r0, [r7, #12]
 80070c2:	0008      	movs	r0, r1
 80070c4:	607a      	str	r2, [r7, #4]
 80070c6:	0019      	movs	r1, r3
 80070c8:	230b      	movs	r3, #11
 80070ca:	18fb      	adds	r3, r7, r3
 80070cc:	1c02      	adds	r2, r0, #0
 80070ce:	701a      	strb	r2, [r3, #0]
 80070d0:	2408      	movs	r4, #8
 80070d2:	193b      	adds	r3, r7, r4
 80070d4:	1c0a      	adds	r2, r1, #0
 80070d6:	801a      	strh	r2, [r3, #0]
  HAL_StatusTypeDef hal_status = HAL_OK;
 80070d8:	2117      	movs	r1, #23
 80070da:	187b      	adds	r3, r7, r1
 80070dc:	2200      	movs	r2, #0
 80070de:	701a      	strb	r2, [r3, #0]
  USBD_StatusTypeDef usb_status = USBD_OK;
 80070e0:	2516      	movs	r5, #22
 80070e2:	197b      	adds	r3, r7, r5
 80070e4:	2200      	movs	r2, #0
 80070e6:	701a      	strb	r2, [r3, #0]

  hal_status = HAL_PCD_EP_Transmit(pdev->pData, ep_addr, pbuf, size);
 80070e8:	68fa      	ldr	r2, [r7, #12]
 80070ea:	23b0      	movs	r3, #176	; 0xb0
 80070ec:	009b      	lsls	r3, r3, #2
 80070ee:	58d0      	ldr	r0, [r2, r3]
 80070f0:	193b      	adds	r3, r7, r4
 80070f2:	881d      	ldrh	r5, [r3, #0]
 80070f4:	000e      	movs	r6, r1
 80070f6:	187c      	adds	r4, r7, r1
 80070f8:	687a      	ldr	r2, [r7, #4]
 80070fa:	230b      	movs	r3, #11
 80070fc:	18fb      	adds	r3, r7, r3
 80070fe:	7819      	ldrb	r1, [r3, #0]
 8007100:	002b      	movs	r3, r5
 8007102:	f7f9 fe6b 	bl	8000ddc <HAL_PCD_EP_Transmit>
 8007106:	0003      	movs	r3, r0
 8007108:	7023      	strb	r3, [r4, #0]

  usb_status =  USBD_Get_USB_Status(hal_status);
 800710a:	2516      	movs	r5, #22
 800710c:	197c      	adds	r4, r7, r5
 800710e:	19bb      	adds	r3, r7, r6
 8007110:	781b      	ldrb	r3, [r3, #0]
 8007112:	0018      	movs	r0, r3
 8007114:	f000 f85b 	bl	80071ce <USBD_Get_USB_Status>
 8007118:	0003      	movs	r3, r0
 800711a:	7023      	strb	r3, [r4, #0]

  return usb_status;
 800711c:	197b      	adds	r3, r7, r5
 800711e:	781b      	ldrb	r3, [r3, #0]
}
 8007120:	0018      	movs	r0, r3
 8007122:	46bd      	mov	sp, r7
 8007124:	b007      	add	sp, #28
 8007126:	bdf0      	pop	{r4, r5, r6, r7, pc}

08007128 <USBD_LL_PrepareReceive>:
  * @param  pbuf: Pointer to data to be received
  * @param  size: Data size
  * @retval USBD status
  */
USBD_StatusTypeDef USBD_LL_PrepareReceive(USBD_HandleTypeDef *pdev, uint8_t ep_addr, uint8_t *pbuf, uint16_t size)
{
 8007128:	b5f0      	push	{r4, r5, r6, r7, lr}
 800712a:	b087      	sub	sp, #28
 800712c:	af00      	add	r7, sp, #0
 800712e:	60f8      	str	r0, [r7, #12]
 8007130:	0008      	movs	r0, r1
 8007132:	607a      	str	r2, [r7, #4]
 8007134:	0019      	movs	r1, r3
 8007136:	230b      	movs	r3, #11
 8007138:	18fb      	adds	r3, r7, r3
 800713a:	1c02      	adds	r2, r0, #0
 800713c:	701a      	strb	r2, [r3, #0]
 800713e:	2408      	movs	r4, #8
 8007140:	193b      	adds	r3, r7, r4
 8007142:	1c0a      	adds	r2, r1, #0
 8007144:	801a      	strh	r2, [r3, #0]
  HAL_StatusTypeDef hal_status = HAL_OK;
 8007146:	2117      	movs	r1, #23
 8007148:	187b      	adds	r3, r7, r1
 800714a:	2200      	movs	r2, #0
 800714c:	701a      	strb	r2, [r3, #0]
  USBD_StatusTypeDef usb_status = USBD_OK;
 800714e:	2516      	movs	r5, #22
 8007150:	197b      	adds	r3, r7, r5
 8007152:	2200      	movs	r2, #0
 8007154:	701a      	strb	r2, [r3, #0]

  hal_status = HAL_PCD_EP_Receive(pdev->pData, ep_addr, pbuf, size);
 8007156:	68fa      	ldr	r2, [r7, #12]
 8007158:	23b0      	movs	r3, #176	; 0xb0
 800715a:	009b      	lsls	r3, r3, #2
 800715c:	58d0      	ldr	r0, [r2, r3]
 800715e:	193b      	adds	r3, r7, r4
 8007160:	881d      	ldrh	r5, [r3, #0]
 8007162:	000e      	movs	r6, r1
 8007164:	187c      	adds	r4, r7, r1
 8007166:	687a      	ldr	r2, [r7, #4]
 8007168:	230b      	movs	r3, #11
 800716a:	18fb      	adds	r3, r7, r3
 800716c:	7819      	ldrb	r1, [r3, #0]
 800716e:	002b      	movs	r3, r5
 8007170:	f7f9 fdfd 	bl	8000d6e <HAL_PCD_EP_Receive>
 8007174:	0003      	movs	r3, r0
 8007176:	7023      	strb	r3, [r4, #0]

  usb_status =  USBD_Get_USB_Status(hal_status);
 8007178:	2516      	movs	r5, #22
 800717a:	197c      	adds	r4, r7, r5
 800717c:	19bb      	adds	r3, r7, r6
 800717e:	781b      	ldrb	r3, [r3, #0]
 8007180:	0018      	movs	r0, r3
 8007182:	f000 f824 	bl	80071ce <USBD_Get_USB_Status>
 8007186:	0003      	movs	r3, r0
 8007188:	7023      	strb	r3, [r4, #0]

  return usb_status;
 800718a:	197b      	adds	r3, r7, r5
 800718c:	781b      	ldrb	r3, [r3, #0]
}
 800718e:	0018      	movs	r0, r3
 8007190:	46bd      	mov	sp, r7
 8007192:	b007      	add	sp, #28
 8007194:	bdf0      	pop	{r4, r5, r6, r7, pc}
	...

08007198 <USBD_static_malloc>:
  * @brief  Static single allocation.
  * @param  size: Size of allocated memory
  * @retval None
  */
void *USBD_static_malloc(uint32_t size)
{
 8007198:	b580      	push	{r7, lr}
 800719a:	b082      	sub	sp, #8
 800719c:	af00      	add	r7, sp, #0
 800719e:	6078      	str	r0, [r7, #4]
  static uint32_t mem[(sizeof(USBD_CUSTOM_HID_HandleTypeDef)/4+1)];/* On 32-bit boundary */
  return mem;
 80071a0:	4b02      	ldr	r3, [pc, #8]	; (80071ac <USBD_static_malloc+0x14>)
}
 80071a2:	0018      	movs	r0, r3
 80071a4:	46bd      	mov	sp, r7
 80071a6:	b002      	add	sp, #8
 80071a8:	bd80      	pop	{r7, pc}
 80071aa:	46c0      	nop			; (mov r8, r8)
 80071ac:	20000920 	.word	0x20000920

080071b0 <USBD_static_free>:
  * @brief  Dummy memory free
  * @param  p: Pointer to allocated  memory address
  * @retval None
  */
void USBD_static_free(void *p)
{
 80071b0:	b580      	push	{r7, lr}
 80071b2:	b082      	sub	sp, #8
 80071b4:	af00      	add	r7, sp, #0
 80071b6:	6078      	str	r0, [r7, #4]

}
 80071b8:	46c0      	nop			; (mov r8, r8)
 80071ba:	46bd      	mov	sp, r7
 80071bc:	b002      	add	sp, #8
 80071be:	bd80      	pop	{r7, pc}

080071c0 <SystemClockConfig_Resume>:
  * @brief  Configures system clock after wake-up from USB Resume CallBack:
  *         enable HSI, PLL and select PLL as system clock source.
  * @retval None
  */
static void SystemClockConfig_Resume(void)
{
 80071c0:	b580      	push	{r7, lr}
 80071c2:	af00      	add	r7, sp, #0
  SystemClock_Config();
 80071c4:	f7f9 f83a 	bl	800023c <SystemClock_Config>
}
 80071c8:	46c0      	nop			; (mov r8, r8)
 80071ca:	46bd      	mov	sp, r7
 80071cc:	bd80      	pop	{r7, pc}

080071ce <USBD_Get_USB_Status>:
  * @brief  Returns the USB status depending on the HAL status:
  * @param  hal_status: HAL status
  * @retval USB status
  */
USBD_StatusTypeDef USBD_Get_USB_Status(HAL_StatusTypeDef hal_status)
{
 80071ce:	b580      	push	{r7, lr}
 80071d0:	b084      	sub	sp, #16
 80071d2:	af00      	add	r7, sp, #0
 80071d4:	0002      	movs	r2, r0
 80071d6:	1dfb      	adds	r3, r7, #7
 80071d8:	701a      	strb	r2, [r3, #0]
  USBD_StatusTypeDef usb_status = USBD_OK;
 80071da:	230f      	movs	r3, #15
 80071dc:	18fb      	adds	r3, r7, r3
 80071de:	2200      	movs	r2, #0
 80071e0:	701a      	strb	r2, [r3, #0]

  switch (hal_status)
 80071e2:	1dfb      	adds	r3, r7, #7
 80071e4:	781b      	ldrb	r3, [r3, #0]
 80071e6:	2b03      	cmp	r3, #3
 80071e8:	d017      	beq.n	800721a <USBD_Get_USB_Status+0x4c>
 80071ea:	dc1b      	bgt.n	8007224 <USBD_Get_USB_Status+0x56>
 80071ec:	2b02      	cmp	r3, #2
 80071ee:	d00f      	beq.n	8007210 <USBD_Get_USB_Status+0x42>
 80071f0:	dc18      	bgt.n	8007224 <USBD_Get_USB_Status+0x56>
 80071f2:	2b00      	cmp	r3, #0
 80071f4:	d002      	beq.n	80071fc <USBD_Get_USB_Status+0x2e>
 80071f6:	2b01      	cmp	r3, #1
 80071f8:	d005      	beq.n	8007206 <USBD_Get_USB_Status+0x38>
 80071fa:	e013      	b.n	8007224 <USBD_Get_USB_Status+0x56>
  {
    case HAL_OK :
      usb_status = USBD_OK;
 80071fc:	230f      	movs	r3, #15
 80071fe:	18fb      	adds	r3, r7, r3
 8007200:	2200      	movs	r2, #0
 8007202:	701a      	strb	r2, [r3, #0]
    break;
 8007204:	e013      	b.n	800722e <USBD_Get_USB_Status+0x60>
    case HAL_ERROR :
      usb_status = USBD_FAIL;
 8007206:	230f      	movs	r3, #15
 8007208:	18fb      	adds	r3, r7, r3
 800720a:	2202      	movs	r2, #2
 800720c:	701a      	strb	r2, [r3, #0]
    break;
 800720e:	e00e      	b.n	800722e <USBD_Get_USB_Status+0x60>
    case HAL_BUSY :
      usb_status = USBD_BUSY;
 8007210:	230f      	movs	r3, #15
 8007212:	18fb      	adds	r3, r7, r3
 8007214:	2201      	movs	r2, #1
 8007216:	701a      	strb	r2, [r3, #0]
    break;
 8007218:	e009      	b.n	800722e <USBD_Get_USB_Status+0x60>
    case HAL_TIMEOUT :
      usb_status = USBD_FAIL;
 800721a:	230f      	movs	r3, #15
 800721c:	18fb      	adds	r3, r7, r3
 800721e:	2202      	movs	r2, #2
 8007220:	701a      	strb	r2, [r3, #0]
    break;
 8007222:	e004      	b.n	800722e <USBD_Get_USB_Status+0x60>
    default :
      usb_status = USBD_FAIL;
 8007224:	230f      	movs	r3, #15
 8007226:	18fb      	adds	r3, r7, r3
 8007228:	2202      	movs	r2, #2
 800722a:	701a      	strb	r2, [r3, #0]
    break;
 800722c:	46c0      	nop			; (mov r8, r8)
  }
  return usb_status;
 800722e:	230f      	movs	r3, #15
 8007230:	18fb      	adds	r3, r7, r3
 8007232:	781b      	ldrb	r3, [r3, #0]
}
 8007234:	0018      	movs	r0, r3
 8007236:	46bd      	mov	sp, r7
 8007238:	b004      	add	sp, #16
 800723a:	bd80      	pop	{r7, pc}

0800723c <__libc_init_array>:
 800723c:	b570      	push	{r4, r5, r6, lr}
 800723e:	2600      	movs	r6, #0
 8007240:	4d0c      	ldr	r5, [pc, #48]	; (8007274 <__libc_init_array+0x38>)
 8007242:	4c0d      	ldr	r4, [pc, #52]	; (8007278 <__libc_init_array+0x3c>)
 8007244:	1b64      	subs	r4, r4, r5
 8007246:	10a4      	asrs	r4, r4, #2
 8007248:	42a6      	cmp	r6, r4
 800724a:	d109      	bne.n	8007260 <__libc_init_array+0x24>
 800724c:	2600      	movs	r6, #0
 800724e:	f000 f821 	bl	8007294 <_init>
 8007252:	4d0a      	ldr	r5, [pc, #40]	; (800727c <__libc_init_array+0x40>)
 8007254:	4c0a      	ldr	r4, [pc, #40]	; (8007280 <__libc_init_array+0x44>)
 8007256:	1b64      	subs	r4, r4, r5
 8007258:	10a4      	asrs	r4, r4, #2
 800725a:	42a6      	cmp	r6, r4
 800725c:	d105      	bne.n	800726a <__libc_init_array+0x2e>
 800725e:	bd70      	pop	{r4, r5, r6, pc}
 8007260:	00b3      	lsls	r3, r6, #2
 8007262:	58eb      	ldr	r3, [r5, r3]
 8007264:	4798      	blx	r3
 8007266:	3601      	adds	r6, #1
 8007268:	e7ee      	b.n	8007248 <__libc_init_array+0xc>
 800726a:	00b3      	lsls	r3, r6, #2
 800726c:	58eb      	ldr	r3, [r5, r3]
 800726e:	4798      	blx	r3
 8007270:	3601      	adds	r6, #1
 8007272:	e7f2      	b.n	800725a <__libc_init_array+0x1e>
 8007274:	080073cc 	.word	0x080073cc
 8007278:	080073cc 	.word	0x080073cc
 800727c:	080073cc 	.word	0x080073cc
 8007280:	080073d0 	.word	0x080073d0

08007284 <memset>:
 8007284:	0003      	movs	r3, r0
 8007286:	1882      	adds	r2, r0, r2
 8007288:	4293      	cmp	r3, r2
 800728a:	d100      	bne.n	800728e <memset+0xa>
 800728c:	4770      	bx	lr
 800728e:	7019      	strb	r1, [r3, #0]
 8007290:	3301      	adds	r3, #1
 8007292:	e7f9      	b.n	8007288 <memset+0x4>

08007294 <_init>:
 8007294:	b5f8      	push	{r3, r4, r5, r6, r7, lr}
 8007296:	46c0      	nop			; (mov r8, r8)
 8007298:	bcf8      	pop	{r3, r4, r5, r6, r7}
 800729a:	bc08      	pop	{r3}
 800729c:	469e      	mov	lr, r3
 800729e:	4770      	bx	lr

080072a0 <_fini>:
 80072a0:	b5f8      	push	{r3, r4, r5, r6, r7, lr}
 80072a2:	46c0      	nop			; (mov r8, r8)
 80072a4:	bcf8      	pop	{r3, r4, r5, r6, r7}
 80072a6:	bc08      	pop	{r3}
 80072a8:	469e      	mov	lr, r3
 80072aa:	4770      	bx	lr
